
dram_freq_entry.elf:     file format elf32-littlearm


Disassembly of section .text:

f0000000 <dram_freq_main>:
f0000000:	e59f2128 	ldr	r2, [pc, #296]	; f0000130 <dram_freq_main+0x130>
f0000004:	e3510000 	cmp	r1, #0
f0000008:	e92d40f8 	push	{r3, r4, r5, r6, r7, lr}
f000000c:	e3a03000 	mov	r3, #0
f0000010:	e1a07000 	mov	r7, r0
f0000014:	e5823000 	str	r3, [r2]
f0000018:	0a000042 	beq	f0000128 <dram_freq_main+0x128>
f000001c:	e59f2110 	ldr	r2, [pc, #272]	; f0000134 <dram_freq_main+0x134>
f0000020:	e59f0110 	ldr	r0, [pc, #272]	; f0000138 <dram_freq_main+0x138>
f0000024:	e4c23001 	strb	r3, [r2], #1
f0000028:	e1520000 	cmp	r2, r0
f000002c:	9afffffc 	bls	f0000024 <dram_freq_main+0x24>
f0000030:	e1a0200d 	mov	r2, sp
f0000034:	e59f6100 	ldr	r6, [pc, #256]	; f000013c <dram_freq_main+0x13c>
f0000038:	e3073ffc 	movw	r3, #32764	; 0x7ffc
f000003c:	e34f3000 	movt	r3, #61440	; 0xf000
f0000040:	e5862000 	str	r2, [r6]
f0000044:	e1a0d003 	mov	sp, r3
f0000048:	e59f40f0 	ldr	r4, [pc, #240]	; f0000140 <dram_freq_main+0x140>
f000004c:	e301224c 	movw	r2, #4684	; 0x124c
f0000050:	e301e2cc 	movw	lr, #4812	; 0x12cc
f0000054:	e34f21c0 	movt	r2, #61888	; 0xf1c0
f0000058:	e34fe1c0 	movt	lr, #61888	; 0xf1c0
f000005c:	e2822004 	add	r2, r2, #4
f0000060:	e30e3db0 	movw	r3, #60848	; 0xedb0
f0000064:	e1a00002 	mov	r0, r2
f0000068:	e3403e3f 	movt	r3, #3647	; 0xe3f
f000006c:	e690c004 	ldr	ip, [r0], r4
f0000070:	e152000e 	cmp	r2, lr
f0000074:	e0803003 	add	r3, r0, r3
f0000078:	e583c000 	str	ip, [r3]
f000007c:	1afffff6 	bne	f000005c <dram_freq_main+0x5c>
f0000080:	e3a05a01 	mov	r5, #4096	; 0x1000
f0000084:	e59f00b8 	ldr	r0, [pc, #184]	; f0000144 <dram_freq_main+0x144>
f0000088:	e34f51c0 	movt	r5, #61888	; 0xf1c0
f000008c:	e3a02050 	mov	r2, #80	; 0x50
f0000090:	e5953244 	ldr	r3, [r5, #580]	; 0x244
f0000094:	e3833802 	orr	r3, r3, #131072	; 0x20000
f0000098:	e5853244 	str	r3, [r5, #580]	; 0x244
f000009c:	eb00002a 	bl	f000014c <standby_memcpy>
f00000a0:	e3a02040 	mov	r2, #64	; 0x40
f00000a4:	e3a01103 	mov	r1, #-1073741824	; 0xc0000000
f00000a8:	e59f0098 	ldr	r0, [pc, #152]	; f0000148 <dram_freq_main+0x148>
f00000ac:	eb000026 	bl	f000014c <standby_memcpy>
f00000b0:	e3a00001 	mov	r0, #1
f00000b4:	eb0003e2 	bl	f0001044 <change_runtime_env>
f00000b8:	eb0004ef 	bl	f000147c <mem_flush_tlb>
f00000bc:	eb0004f7 	bl	f00014a0 <mem_preload_tlb>
f00000c0:	e59f107c 	ldr	r1, [pc, #124]	; f0000144 <dram_freq_main+0x144>
f00000c4:	e1a00007 	mov	r0, r7
f00000c8:	eb000aa2 	bl	f0002b58 <dram_freq_jum>
f00000cc:	e5953244 	ldr	r3, [r5, #580]	; 0x244
f00000d0:	e3a00103 	mov	r0, #-1073741824	; 0xc0000000
f00000d4:	e3a02040 	mov	r2, #64	; 0x40
f00000d8:	e59f1068 	ldr	r1, [pc, #104]	; f0000148 <dram_freq_main+0x148>
f00000dc:	e3c33802 	bic	r3, r3, #131072	; 0x20000
f00000e0:	e5853244 	str	r3, [r5, #580]	; 0x244
f00000e4:	eb000018 	bl	f000014c <standby_memcpy>
f00000e8:	e3012250 	movw	r2, #4688	; 0x1250
f00000ec:	e30102d0 	movw	r0, #4816	; 0x12d0
f00000f0:	e34f21c0 	movt	r2, #61888	; 0xf1c0
f00000f4:	e34f01c0 	movt	r0, #61888	; 0xf1c0
f00000f8:	e30e3db0 	movw	r3, #60848	; 0xedb0
f00000fc:	e0841002 	add	r1, r4, r2
f0000100:	e3403e3f 	movt	r3, #3647	; 0xe3f
f0000104:	e0813003 	add	r3, r1, r3
f0000108:	e5933000 	ldr	r3, [r3]
f000010c:	e4823004 	str	r3, [r2], #4
f0000110:	e1520000 	cmp	r2, r0
f0000114:	1afffff7 	bne	f00000f8 <dram_freq_main+0xf8>
f0000118:	e5960000 	ldr	r0, [r6]
f000011c:	eb000435 	bl	f00011f8 <restore_sp>
f0000120:	e3a00000 	mov	r0, #0
f0000124:	e8bd80f8 	pop	{r3, r4, r5, r6, r7, pc}
f0000128:	e3e00000 	mvn	r0, #0
f000012c:	e8bd80f8 	pop	{r3, r4, r5, r6, r7, pc}
f0000130:	f0003190 			; <UNDEFINED> instruction: 0xf0003190
f0000134:	f0003110 			; <UNDEFINED> instruction: 0xf0003110
f0000138:	f0003338 			; <UNDEFINED> instruction: 0xf0003338
f000013c:	f00031a4 			; <UNDEFINED> instruction: 0xf00031a4
f0000140:	f0003110 			; <UNDEFINED> instruction: 0xf0003110
f0000144:	f00031e8 			; <UNDEFINED> instruction: 0xf00031e8
f0000148:	f00031a8 			; <UNDEFINED> instruction: 0xf00031a8

f000014c <standby_memcpy>:
f000014c:	e3500000 	cmp	r0, #0
f0000150:	13510000 	cmpne	r1, #0
f0000154:	13a03000 	movne	r3, #0
f0000158:	03a03001 	moveq	r3, #1
f000015c:	012fff1e 	bxeq	lr
f0000160:	e3520000 	cmp	r2, #0
f0000164:	d12fff1e 	bxle	lr
f0000168:	e7d1c003 	ldrb	ip, [r1, r3]
f000016c:	e7c0c003 	strb	ip, [r0, r3]
f0000170:	e2833001 	add	r3, r3, #1
f0000174:	e1530002 	cmp	r3, r2
f0000178:	1afffffa 	bne	f0000168 <standby_memcpy+0x1c>
f000017c:	e12fff1e 	bx	lr

f0000180 <dram_counter_enable>:
f0000180:	e3500020 	cmp	r0, #32
f0000184:	812fff1e 	bxhi	lr
f0000188:	e3003494 	movw	r3, #1172	; 0x494
f000018c:	e3433c70 	movt	r3, #15472	; 0x3c70
f0000190:	e0803003 	add	r3, r0, r3
f0000194:	e1a03103 	lsl	r3, r3, #2
f0000198:	e5932000 	ldr	r2, [r3]
f000019c:	e3822103 	orr	r2, r2, #-1073741824	; 0xc0000000
f00001a0:	e5832000 	str	r2, [r3]
f00001a4:	e12fff1e 	bx	lr

f00001a8 <dram_counter_reset>:
f00001a8:	e3a03a01 	mov	r3, #4096	; 0x1000
f00001ac:	e34f31c0 	movt	r3, #61888	; 0xf1c0
f00001b0:	e5932244 	ldr	r2, [r3, #580]	; 0x244
f00001b4:	e3822802 	orr	r2, r2, #131072	; 0x20000
f00001b8:	e5832244 	str	r2, [r3, #580]	; 0x244
f00001bc:	e12fff1e 	bx	lr

f00001c0 <dram_counter_read>:
f00001c0:	e3a03a01 	mov	r3, #4096	; 0x1000
f00001c4:	e34f31c0 	movt	r3, #61888	; 0xf1c0
f00001c8:	e5932244 	ldr	r2, [r3, #580]	; 0x244
f00001cc:	e5930238 	ldr	r0, [r3, #568]	; 0x238
f00001d0:	e3c22802 	bic	r2, r2, #131072	; 0x20000
f00001d4:	e5832244 	str	r2, [r3, #580]	; 0x244
f00001d8:	e12fff1e 	bx	lr

f00001dc <dram_host_save>:
f00001dc:	e52d4004 	push	{r4}		; (str r4, [sp, #-4]!)
f00001e0:	e301224c 	movw	r2, #4684	; 0x124c
f00001e4:	e59f4034 	ldr	r4, [pc, #52]	; f0000220 <dram_host_save+0x44>
f00001e8:	e301c2cc 	movw	ip, #4812	; 0x12cc
f00001ec:	e34f21c0 	movt	r2, #61888	; 0xf1c0
f00001f0:	e34fc1c0 	movt	ip, #61888	; 0xf1c0
f00001f4:	e2822004 	add	r2, r2, #4
f00001f8:	e30e3db0 	movw	r3, #60848	; 0xedb0
f00001fc:	e1a01002 	mov	r1, r2
f0000200:	e3403e3f 	movt	r3, #3647	; 0xe3f
f0000204:	e6910004 	ldr	r0, [r1], r4
f0000208:	e152000c 	cmp	r2, ip
f000020c:	e0813003 	add	r3, r1, r3
f0000210:	e5830000 	str	r0, [r3]
f0000214:	1afffff6 	bne	f00001f4 <dram_host_save+0x18>
f0000218:	e8bd0010 	pop	{r4}
f000021c:	e12fff1e 	bx	lr
f0000220:	f0003110 			; <UNDEFINED> instruction: 0xf0003110

f0000224 <dram_host_restore>:
f0000224:	e59fc030 	ldr	ip, [pc, #48]	; f000025c <dram_host_restore+0x38>
f0000228:	e3012250 	movw	r2, #4688	; 0x1250
f000022c:	e30102d0 	movw	r0, #4816	; 0x12d0
f0000230:	e34f21c0 	movt	r2, #61888	; 0xf1c0
f0000234:	e34f01c0 	movt	r0, #61888	; 0xf1c0
f0000238:	e30e3db0 	movw	r3, #60848	; 0xedb0
f000023c:	e08c1002 	add	r1, ip, r2
f0000240:	e3403e3f 	movt	r3, #3647	; 0xe3f
f0000244:	e0813003 	add	r3, r1, r3
f0000248:	e5933000 	ldr	r3, [r3]
f000024c:	e4823004 	str	r3, [r2], #4
f0000250:	e1520000 	cmp	r2, r0
f0000254:	1afffff7 	bne	f0000238 <dram_host_restore+0x14>
f0000258:	e12fff1e 	bx	lr
f000025c:	f0003110 			; <UNDEFINED> instruction: 0xf0003110

f0000260 <dram_host_disable>:
f0000260:	e3500020 	cmp	r0, #32
f0000264:	93013250 	movwls	r3, #4688	; 0x1250
f0000268:	934f31c0 	movtls	r3, #61888	; 0xf1c0
f000026c:	97932100 	ldrls	r2, [r3, r0, lsl #2]
f0000270:	93c22001 	bicls	r2, r2, #1
f0000274:	97832100 	strls	r2, [r3, r0, lsl #2]
f0000278:	e12fff1e 	bx	lr

f000027c <serial_init_nommu>:
f000027c:	e3a03902 	mov	r3, #32768	; 0x8000
f0000280:	e3a020e1 	mov	r2, #225	; 0xe1
f0000284:	e34031c2 	movt	r3, #450	; 0x1c2
f0000288:	e5832008 	str	r2, [r3, #8]
f000028c:	e12fff1e 	bx	lr

f0000290 <serial_puts_nommu>:
f0000290:	e3a00000 	mov	r0, #0
f0000294:	e12fff1e 	bx	lr

f0000298 <serial_gets_nommu>:
f0000298:	e3510000 	cmp	r1, #0
f000029c:	0a00000e 	beq	f00002dc <serial_gets_nommu+0x44>
f00002a0:	e3a02902 	mov	r2, #32768	; 0x8000
f00002a4:	e3a0c000 	mov	ip, #0
f00002a8:	e34021c2 	movt	r2, #450	; 0x1c2
f00002ac:	e5d2307c 	ldrb	r3, [r2, #124]	; 0x7c
f00002b0:	e3130008 	tst	r3, #8
f00002b4:	0afffffc 	beq	f00002ac <serial_gets_nommu+0x14>
f00002b8:	e5d23000 	ldrb	r3, [r2]
f00002bc:	e3530000 	cmp	r3, #0
f00002c0:	0a000003 	beq	f00002d4 <serial_gets_nommu+0x3c>
f00002c4:	e7c0300c 	strb	r3, [r0, ip]
f00002c8:	e28cc001 	add	ip, ip, #1
f00002cc:	e15c0001 	cmp	ip, r1
f00002d0:	1afffff5 	bne	f00002ac <serial_gets_nommu+0x14>
f00002d4:	e28c0001 	add	r0, ip, #1
f00002d8:	e12fff1e 	bx	lr
f00002dc:	e3a00001 	mov	r0, #1
f00002e0:	e12fff1e 	bx	lr

f00002e4 <serial_init>:
f00002e4:	e3a02000 	mov	r2, #0
f00002e8:	e3a03902 	mov	r3, #32768	; 0x8000
f00002ec:	e34f21c2 	movt	r2, #61890	; 0xf1c2
f00002f0:	e34f31c2 	movt	r3, #61890	; 0xf1c2
f00002f4:	e592006c 	ldr	r0, [r2, #108]	; 0x6c
f00002f8:	e3a01000 	mov	r1, #0
f00002fc:	e3c00801 	bic	r0, r0, #65536	; 0x10000
f0000300:	e582006c 	str	r0, [r2, #108]	; 0x6c
f0000304:	e592006c 	ldr	r0, [r2, #108]	; 0x6c
f0000308:	e3800801 	orr	r0, r0, #65536	; 0x10000
f000030c:	e582006c 	str	r0, [r2, #108]	; 0x6c
f0000310:	e3a00001 	mov	r0, #1
f0000314:	e593200c 	ldr	r2, [r3, #12]
f0000318:	e58300a4 	str	r0, [r3, #164]	; 0xa4
f000031c:	e3820080 	orr	r0, r2, #128	; 0x80
f0000320:	e3c22080 	bic	r2, r2, #128	; 0x80
f0000324:	e583000c 	str	r0, [r3, #12]
f0000328:	e3a0000d 	mov	r0, #13
f000032c:	e5831004 	str	r1, [r3, #4]
f0000330:	e5830000 	str	r0, [r3]
f0000334:	e583200c 	str	r2, [r3, #12]
f0000338:	e3a02003 	mov	r2, #3
f000033c:	e58310a4 	str	r1, [r3, #164]	; 0xa4
f0000340:	e583200c 	str	r2, [r3, #12]
f0000344:	e3a020e1 	mov	r2, #225	; 0xe1
f0000348:	e5832008 	str	r2, [r3, #8]
f000034c:	e12fff1e 	bx	lr

f0000350 <serial_puts>:
f0000350:	e52d4004 	push	{r4}		; (str r4, [sp, #-4]!)
f0000354:	e5d03000 	ldrb	r3, [r0]
f0000358:	e3530000 	cmp	r3, #0
f000035c:	0a00000f 	beq	f00003a0 <serial_puts+0x50>
f0000360:	e3a01902 	mov	r1, #32768	; 0x8000
f0000364:	e2400001 	sub	r0, r0, #1
f0000368:	e34f11c2 	movt	r1, #61890	; 0xf1c2
f000036c:	e3a0400d 	mov	r4, #13
f0000370:	e353000a 	cmp	r3, #10
f0000374:	0a00000c 	beq	f00003ac <serial_puts+0x5c>
f0000378:	e5f0c001 	ldrb	ip, [r0, #1]!
f000037c:	e5d12080 	ldrb	r2, [r1, #128]	; 0x80
f0000380:	e3a03902 	mov	r3, #32768	; 0x8000
f0000384:	e34f31c2 	movt	r3, #61890	; 0xf1c2
f0000388:	e352002f 	cmp	r2, #47	; 0x2f
f000038c:	8afffffa 	bhi	f000037c <serial_puts+0x2c>
f0000390:	e5c3c000 	strb	ip, [r3]
f0000394:	e5d03001 	ldrb	r3, [r0, #1]
f0000398:	e3530000 	cmp	r3, #0
f000039c:	1afffff3 	bne	f0000370 <serial_puts+0x20>
f00003a0:	e3a00000 	mov	r0, #0
f00003a4:	e8bd0010 	pop	{r4}
f00003a8:	e12fff1e 	bx	lr
f00003ac:	e5d12080 	ldrb	r2, [r1, #128]	; 0x80
f00003b0:	e3a03902 	mov	r3, #32768	; 0x8000
f00003b4:	e34f31c2 	movt	r3, #61890	; 0xf1c2
f00003b8:	e352002f 	cmp	r2, #47	; 0x2f
f00003bc:	8afffffa 	bhi	f00003ac <serial_puts+0x5c>
f00003c0:	e5c34000 	strb	r4, [r3]
f00003c4:	eaffffeb 	b	f0000378 <serial_puts+0x28>

f00003c8 <serial_gets>:
f00003c8:	e3510000 	cmp	r1, #0
f00003cc:	0a00000e 	beq	f000040c <serial_gets+0x44>
f00003d0:	e3a02902 	mov	r2, #32768	; 0x8000
f00003d4:	e3a0c000 	mov	ip, #0
f00003d8:	e34f21c2 	movt	r2, #61890	; 0xf1c2
f00003dc:	e5d2307c 	ldrb	r3, [r2, #124]	; 0x7c
f00003e0:	e3130008 	tst	r3, #8
f00003e4:	0afffffc 	beq	f00003dc <serial_gets+0x14>
f00003e8:	e5d23000 	ldrb	r3, [r2]
f00003ec:	e3530000 	cmp	r3, #0
f00003f0:	0a000003 	beq	f0000404 <serial_gets+0x3c>
f00003f4:	e7c0300c 	strb	r3, [r0, ip]
f00003f8:	e28cc001 	add	ip, ip, #1
f00003fc:	e15c0001 	cmp	ip, r1
f0000400:	1afffff5 	bne	f00003dc <serial_gets+0x14>
f0000404:	e28c0001 	add	r0, ip, #1
f0000408:	e12fff1e 	bx	lr
f000040c:	e3a00001 	mov	r0, #1
f0000410:	e12fff1e 	bx	lr

f0000414 <strlen>:
f0000414:	e5d03000 	ldrb	r3, [r0]
f0000418:	e3530000 	cmp	r3, #0
f000041c:	0a000005 	beq	f0000438 <strlen+0x24>
f0000420:	e1a03000 	mov	r3, r0
f0000424:	e5f32001 	ldrb	r2, [r3, #1]!
f0000428:	e3520000 	cmp	r2, #0
f000042c:	1afffffc 	bne	f0000424 <strlen+0x10>
f0000430:	e0600003 	rsb	r0, r0, r3
f0000434:	e12fff1e 	bx	lr
f0000438:	e1a00003 	mov	r0, r3
f000043c:	e12fff1e 	bx	lr

f0000440 <strcpy>:
f0000440:	e2411001 	sub	r1, r1, #1
f0000444:	e1a02000 	mov	r2, r0
f0000448:	e5f13001 	ldrb	r3, [r1, #1]!
f000044c:	e3530000 	cmp	r3, #0
f0000450:	e4c23001 	strb	r3, [r2], #1
f0000454:	1afffffb 	bne	f0000448 <strcpy+0x8>
f0000458:	e12fff1e 	bx	lr

f000045c <strncpy>:
f000045c:	e3520000 	cmp	r2, #0
f0000460:	012fff1e 	bxeq	lr
f0000464:	e240c001 	sub	ip, r0, #1
f0000468:	e5d13000 	ldrb	r3, [r1]
f000046c:	e3530000 	cmp	r3, #0
f0000470:	e5ec3001 	strb	r3, [ip, #1]!
f0000474:	12811001 	addne	r1, r1, #1
f0000478:	e2522001 	subs	r2, r2, #1
f000047c:	1afffff9 	bne	f0000468 <strncpy+0xc>
f0000480:	e12fff1e 	bx	lr

f0000484 <strcat>:
f0000484:	e5d03000 	ldrb	r3, [r0]
f0000488:	e3530000 	cmp	r3, #0
f000048c:	01a02000 	moveq	r2, r0
f0000490:	0a000005 	beq	f00004ac <strcat+0x28>
f0000494:	e1a03000 	mov	r3, r0
f0000498:	e2833001 	add	r3, r3, #1
f000049c:	e5d3c000 	ldrb	ip, [r3]
f00004a0:	e1a02003 	mov	r2, r3
f00004a4:	e35c0000 	cmp	ip, #0
f00004a8:	1afffffa 	bne	f0000498 <strcat+0x14>
f00004ac:	e2411001 	sub	r1, r1, #1
f00004b0:	e5f13001 	ldrb	r3, [r1, #1]!
f00004b4:	e3530000 	cmp	r3, #0
f00004b8:	e4c23001 	strb	r3, [r2], #1
f00004bc:	1afffffb 	bne	f00004b0 <strcat+0x2c>
f00004c0:	e12fff1e 	bx	lr

f00004c4 <strncat>:
f00004c4:	e3520000 	cmp	r2, #0
f00004c8:	e52d4004 	push	{r4}		; (str r4, [sp, #-4]!)
f00004cc:	0a000014 	beq	f0000524 <strncat+0x60>
f00004d0:	e5d03000 	ldrb	r3, [r0]
f00004d4:	e3530000 	cmp	r3, #0
f00004d8:	01a0c000 	moveq	ip, r0
f00004dc:	0a000005 	beq	f00004f8 <strncat+0x34>
f00004e0:	e1a03000 	mov	r3, r0
f00004e4:	e2833001 	add	r3, r3, #1
f00004e8:	e5d34000 	ldrb	r4, [r3]
f00004ec:	e1a0c003 	mov	ip, r3
f00004f0:	e3540000 	cmp	r4, #0
f00004f4:	1afffffa 	bne	f00004e4 <strncat+0x20>
f00004f8:	e2411001 	sub	r1, r1, #1
f00004fc:	ea000000 	b	f0000504 <strncat+0x40>
f0000500:	e1a0c003 	mov	ip, r3
f0000504:	e5f14001 	ldrb	r4, [r1, #1]!
f0000508:	e1a0300c 	mov	r3, ip
f000050c:	e3540000 	cmp	r4, #0
f0000510:	e4c34001 	strb	r4, [r3], #1
f0000514:	0a000002 	beq	f0000524 <strncat+0x60>
f0000518:	e2522001 	subs	r2, r2, #1
f000051c:	1afffff7 	bne	f0000500 <strncat+0x3c>
f0000520:	e5cc2001 	strb	r2, [ip, #1]
f0000524:	e8bd0010 	pop	{r4}
f0000528:	e12fff1e 	bx	lr

f000052c <strcmp>:
f000052c:	e4d03001 	ldrb	r3, [r0], #1
f0000530:	e4d12001 	ldrb	r2, [r1], #1
f0000534:	e1530002 	cmp	r3, r2
f0000538:	1a000003 	bne	f000054c <strcmp+0x20>
f000053c:	e3530000 	cmp	r3, #0
f0000540:	1afffff9 	bne	f000052c <strcmp>
f0000544:	e1a00003 	mov	r0, r3
f0000548:	e12fff1e 	bx	lr
f000054c:	e1520003 	cmp	r2, r3
f0000550:	93a00001 	movls	r0, #1
f0000554:	83e00000 	mvnhi	r0, #0
f0000558:	e12fff1e 	bx	lr

f000055c <strncmp>:
f000055c:	e3520000 	cmp	r2, #0
f0000560:	01a00002 	moveq	r0, r2
f0000564:	012fff1e 	bxeq	lr
f0000568:	e5d03000 	ldrb	r3, [r0]
f000056c:	e5d1c000 	ldrb	ip, [r1]
f0000570:	e153000c 	cmp	r3, ip
f0000574:	1a00000e 	bne	f00005b4 <strncmp+0x58>
f0000578:	e3530000 	cmp	r3, #0
f000057c:	12403001 	subne	r3, r0, #1
f0000580:	10832002 	addne	r2, r3, r2
f0000584:	1a000006 	bne	f00005a4 <strncmp+0x48>
f0000588:	ea00000f 	b	f00005cc <strncmp+0x70>
f000058c:	e5f03001 	ldrb	r3, [r0, #1]!
f0000590:	e5f1c001 	ldrb	ip, [r1, #1]!
f0000594:	e153000c 	cmp	r3, ip
f0000598:	1a000005 	bne	f00005b4 <strncmp+0x58>
f000059c:	e3530000 	cmp	r3, #0
f00005a0:	0a000007 	beq	f00005c4 <strncmp+0x68>
f00005a4:	e1500002 	cmp	r0, r2
f00005a8:	1afffff7 	bne	f000058c <strncmp+0x30>
f00005ac:	e3a00000 	mov	r0, #0
f00005b0:	e12fff1e 	bx	lr
f00005b4:	e153000c 	cmp	r3, ip
f00005b8:	23a00001 	movcs	r0, #1
f00005bc:	33e00000 	mvncc	r0, #0
f00005c0:	e12fff1e 	bx	lr
f00005c4:	e1a00003 	mov	r0, r3
f00005c8:	e12fff1e 	bx	lr
f00005cc:	e1a00003 	mov	r0, r3
f00005d0:	e12fff1e 	bx	lr

f00005d4 <itoa>:
f00005d4:	e92d47f0 	push	{r4, r5, r6, r7, r8, r9, sl, lr}
f00005d8:	e3500000 	cmp	r0, #0
f00005dc:	e59f60d0 	ldr	r6, [pc, #208]	; f00006b4 <itoa+0xe0>
f00005e0:	e1a07001 	mov	r7, r1
f00005e4:	e1a04000 	mov	r4, r0
f00005e8:	e1a05002 	mov	r5, r2
f00005ec:	e24dd028 	sub	sp, sp, #40	; 0x28
f00005f0:	e28dc004 	add	ip, sp, #4
f00005f4:	e8b6000f 	ldm	r6!, {r0, r1, r2, r3}
f00005f8:	e5966000 	ldr	r6, [r6]
f00005fc:	e8ac000f 	stmia	ip!, {r0, r1, r2, r3}
f0000600:	03a03030 	moveq	r3, #48	; 0x30
f0000604:	05c74001 	strbeq	r4, [r7, #1]
f0000608:	e5cc6000 	strb	r6, [ip]
f000060c:	05c73000 	strbeq	r3, [r7]
f0000610:	0a000024 	beq	f00006a8 <itoa+0xd4>
f0000614:	b2644000 	rsblt	r4, r4, #0
f0000618:	b3a09001 	movlt	r9, #1
f000061c:	a3a09000 	movge	r9, #0
f0000620:	e3a06000 	mov	r6, #0
f0000624:	e28da018 	add	sl, sp, #24
f0000628:	ea000000 	b	f0000630 <itoa+0x5c>
f000062c:	e1a06003 	mov	r6, r3
f0000630:	e1a00004 	mov	r0, r4
f0000634:	e1a01005 	mov	r1, r5
f0000638:	eb00024f 	bl	f0000f7c <__aeabi_idivmod>
f000063c:	e28d3028 	add	r3, sp, #40	; 0x28
f0000640:	e1a00004 	mov	r0, r4
f0000644:	e0831001 	add	r1, r3, r1
f0000648:	e5518024 	ldrb	r8, [r1, #-36]	; 0x24
f000064c:	e1a01005 	mov	r1, r5
f0000650:	e7ca8006 	strb	r8, [sl, r6]
f0000654:	eb00020f 	bl	f0000e98 <__aeabi_idiv>
f0000658:	e2504000 	subs	r4, r0, #0
f000065c:	e2863001 	add	r3, r6, #1
f0000660:	cafffff1 	bgt	f000062c <itoa+0x58>
f0000664:	e3590000 	cmp	r9, #0
f0000668:	e1a02006 	mov	r2, r6
f000066c:	13a0302d 	movne	r3, #45	; 0x2d
f0000670:	13a09001 	movne	r9, #1
f0000674:	15c73000 	strbne	r3, [r7]
f0000678:	e2493001 	sub	r3, r9, #1
f000067c:	e0873003 	add	r3, r7, r3
f0000680:	ea000000 	b	f0000688 <itoa+0xb4>
f0000684:	e7da8006 	ldrb	r8, [sl, r6]
f0000688:	e2466001 	sub	r6, r6, #1
f000068c:	e5e38001 	strb	r8, [r3, #1]!
f0000690:	e3760001 	cmn	r6, #1
f0000694:	1afffffa 	bne	f0000684 <itoa+0xb0>
f0000698:	e2899001 	add	r9, r9, #1
f000069c:	e3a03000 	mov	r3, #0
f00006a0:	e0879009 	add	r9, r7, r9
f00006a4:	e7c93002 	strb	r3, [r9, r2]
f00006a8:	e1a00007 	mov	r0, r7
f00006ac:	e28dd028 	add	sp, sp, #40	; 0x28
f00006b0:	e8bd87f0 	pop	{r4, r5, r6, r7, r8, r9, sl, pc}
f00006b4:	f000304c 			; <UNDEFINED> instruction: 0xf000304c

f00006b8 <utoa>:
f00006b8:	e92d45f0 	push	{r4, r5, r6, r7, r8, sl, lr}
f00006bc:	e3500000 	cmp	r0, #0
f00006c0:	e59f60a8 	ldr	r6, [pc, #168]	; f0000770 <utoa+0xb8>
f00006c4:	e1a07001 	mov	r7, r1
f00006c8:	e1a04000 	mov	r4, r0
f00006cc:	e1a05002 	mov	r5, r2
f00006d0:	e24dd02c 	sub	sp, sp, #44	; 0x2c
f00006d4:	13a08000 	movne	r8, #0
f00006d8:	e28dc004 	add	ip, sp, #4
f00006dc:	128da018 	addne	sl, sp, #24
f00006e0:	e8b6000f 	ldm	r6!, {r0, r1, r2, r3}
f00006e4:	e5966000 	ldr	r6, [r6]
f00006e8:	e8ac000f 	stmia	ip!, {r0, r1, r2, r3}
f00006ec:	03a03030 	moveq	r3, #48	; 0x30
f00006f0:	05c74001 	strbeq	r4, [r7, #1]
f00006f4:	e5cc6000 	strb	r6, [ip]
f00006f8:	05c73000 	strbeq	r3, [r7]
f00006fc:	1a000001 	bne	f0000708 <utoa+0x50>
f0000700:	ea000017 	b	f0000764 <utoa+0xac>
f0000704:	e1a08003 	mov	r8, r3
f0000708:	e1a00004 	mov	r0, r4
f000070c:	e1a01005 	mov	r1, r5
f0000710:	eb000213 	bl	f0000f64 <__aeabi_uidivmod>
f0000714:	e28d3028 	add	r3, sp, #40	; 0x28
f0000718:	e1a00004 	mov	r0, r4
f000071c:	e0831001 	add	r1, r3, r1
f0000720:	e5516024 	ldrb	r6, [r1, #-36]	; 0x24
f0000724:	e1a01005 	mov	r1, r5
f0000728:	e7ca6008 	strb	r6, [sl, r8]
f000072c:	eb0001b2 	bl	f0000dfc <__aeabi_uidiv>
f0000730:	e2504000 	subs	r4, r0, #0
f0000734:	e2883001 	add	r3, r8, #1
f0000738:	1afffff1 	bne	f0000704 <utoa+0x4c>
f000073c:	e2472001 	sub	r2, r7, #1
f0000740:	e08a3008 	add	r3, sl, r8
f0000744:	ea000000 	b	f000074c <utoa+0x94>
f0000748:	e5736001 	ldrb	r6, [r3, #-1]!
f000074c:	e153000a 	cmp	r3, sl
f0000750:	e5e26001 	strb	r6, [r2, #1]!
f0000754:	1afffffb 	bne	f0000748 <utoa+0x90>
f0000758:	e0878008 	add	r8, r7, r8
f000075c:	e3a03000 	mov	r3, #0
f0000760:	e5c83001 	strb	r3, [r8, #1]
f0000764:	e1a00007 	mov	r0, r7
f0000768:	e28dd02c 	add	sp, sp, #44	; 0x2c
f000076c:	e8bd85f0 	pop	{r4, r5, r6, r7, r8, sl, pc}
f0000770:	f000304c 			; <UNDEFINED> instruction: 0xf000304c

f0000774 <print_align>:
f0000774:	e92d40f0 	push	{r4, r5, r6, r7, lr}
f0000778:	e1510002 	cmp	r1, r2
f000077c:	e59f4048 	ldr	r4, [pc, #72]	; f00007cc <print_align+0x58>
f0000780:	e1a05001 	mov	r5, r1
f0000784:	e1a06002 	mov	r6, r2
f0000788:	e1a07000 	mov	r7, r0
f000078c:	e24dd01c 	sub	sp, sp, #28
f0000790:	a3a05000 	movge	r5, #0
f0000794:	e28dc004 	add	ip, sp, #4
f0000798:	e8b4000f 	ldm	r4!, {r0, r1, r2, r3}
f000079c:	e5944000 	ldr	r4, [r4]
f00007a0:	e8ac000f 	stmia	ip!, {r0, r1, r2, r3}
f00007a4:	e5cc4000 	strb	r4, [ip]
f00007a8:	aa000004 	bge	f00007c0 <print_align+0x4c>
f00007ac:	e0655006 	rsb	r5, r5, r6
f00007b0:	e1a00007 	mov	r0, r7
f00007b4:	e28d1004 	add	r1, sp, #4
f00007b8:	e1a02005 	mov	r2, r5
f00007bc:	ebffff40 	bl	f00004c4 <strncat>
f00007c0:	e1a00005 	mov	r0, r5
f00007c4:	e28dd01c 	add	sp, sp, #28
f00007c8:	e8bd80f0 	pop	{r4, r5, r6, r7, pc}
f00007cc:	f0003060 			; <UNDEFINED> instruction: 0xf0003060

f00007d0 <printk>:
f00007d0:	e92d000f 	push	{r0, r1, r2, r3}
f00007d4:	e59f32dc 	ldr	r3, [pc, #732]	; f0000ab8 <printk+0x2e8>
f00007d8:	e92d47f0 	push	{r4, r5, r6, r7, r8, r9, sl, lr}
f00007dc:	e24dd018 	sub	sp, sp, #24
f00007e0:	e5933000 	ldr	r3, [r3]
f00007e4:	e59d4038 	ldr	r4, [sp, #56]	; 0x38
f00007e8:	e3530000 	cmp	r3, #0
f00007ec:	13a00000 	movne	r0, #0
f00007f0:	0a000003 	beq	f0000804 <printk+0x34>
f00007f4:	e28dd018 	add	sp, sp, #24
f00007f8:	e8bd47f0 	pop	{r4, r5, r6, r7, r8, r9, sl, lr}
f00007fc:	e28dd010 	add	sp, sp, #16
f0000800:	e12fff1e 	bx	lr
f0000804:	e5d43000 	ldrb	r3, [r4]
f0000808:	e28d203c 	add	r2, sp, #60	; 0x3c
f000080c:	e59f82a8 	ldr	r8, [pc, #680]	; f0000abc <printk+0x2ec>
f0000810:	e58d2014 	str	r2, [sp, #20]
f0000814:	e3530000 	cmp	r3, #0
f0000818:	01a05008 	moveq	r5, r8
f000081c:	0a00002c 	beq	f00008d4 <printk+0x104>
f0000820:	e3a09025 	mov	r9, #37	; 0x25
f0000824:	e28d6004 	add	r6, sp, #4
f0000828:	e1a05008 	mov	r5, r8
f000082c:	ea000003 	b	f0000840 <printk+0x70>
f0000830:	e5d43001 	ldrb	r3, [r4, #1]
f0000834:	e2844001 	add	r4, r4, #1
f0000838:	e3530000 	cmp	r3, #0
f000083c:	0a000024 	beq	f00008d4 <printk+0x104>
f0000840:	e3530025 	cmp	r3, #37	; 0x25
f0000844:	14c53001 	strbne	r3, [r5], #1
f0000848:	1afffff8 	bne	f0000830 <printk+0x60>
f000084c:	e5d43001 	ldrb	r3, [r4, #1]
f0000850:	e2432031 	sub	r2, r3, #49	; 0x31
f0000854:	e3520008 	cmp	r2, #8
f0000858:	92437030 	subls	r7, r3, #48	; 0x30
f000085c:	95d43002 	ldrbls	r3, [r4, #2]
f0000860:	82844001 	addhi	r4, r4, #1
f0000864:	83a07000 	movhi	r7, #0
f0000868:	92844002 	addls	r4, r4, #2
f000086c:	e2433063 	sub	r3, r3, #99	; 0x63
f0000870:	e3530015 	cmp	r3, #21
f0000874:	979ff103 	ldrls	pc, [pc, r3, lsl #2]
f0000878:	ea00006d 	b	f0000a34 <printk+0x264>
f000087c:	f0000a1c 			; <UNDEFINED> instruction: 0xf0000a1c
f0000880:	f0000a48 			; <UNDEFINED> instruction: 0xf0000a48
f0000884:	f0000a34 			; <UNDEFINED> instruction: 0xf0000a34
f0000888:	f0000a34 			; <UNDEFINED> instruction: 0xf0000a34
f000088c:	f0000a34 			; <UNDEFINED> instruction: 0xf0000a34
f0000890:	f0000a34 			; <UNDEFINED> instruction: 0xf0000a34
f0000894:	f0000a34 			; <UNDEFINED> instruction: 0xf0000a34
f0000898:	f0000a34 			; <UNDEFINED> instruction: 0xf0000a34
f000089c:	f0000a34 			; <UNDEFINED> instruction: 0xf0000a34
f00008a0:	f0000a34 			; <UNDEFINED> instruction: 0xf0000a34
f00008a4:	f0000a34 			; <UNDEFINED> instruction: 0xf0000a34
f00008a8:	f0000a34 			; <UNDEFINED> instruction: 0xf0000a34
f00008ac:	f0000a34 			; <UNDEFINED> instruction: 0xf0000a34
f00008b0:	f00009ac 			; <UNDEFINED> instruction: 0xf00009ac
f00008b4:	f0000a34 			; <UNDEFINED> instruction: 0xf0000a34
f00008b8:	f0000a34 			; <UNDEFINED> instruction: 0xf0000a34
f00008bc:	f000095c 			; <UNDEFINED> instruction: 0xf000095c
f00008c0:	f0000a34 			; <UNDEFINED> instruction: 0xf0000a34
f00008c4:	f00008ec 			; <UNDEFINED> instruction: 0xf00008ec
f00008c8:	f0000a34 			; <UNDEFINED> instruction: 0xf0000a34
f00008cc:	f0000a34 			; <UNDEFINED> instruction: 0xf0000a34
f00008d0:	f00009ac 			; <UNDEFINED> instruction: 0xf00009ac
f00008d4:	e3a03000 	mov	r3, #0
f00008d8:	e59f01dc 	ldr	r0, [pc, #476]	; f0000abc <printk+0x2ec>
f00008dc:	e4c53001 	strb	r3, [r5], #1
f00008e0:	ebfffe9a 	bl	f0000350 <serial_puts>
f00008e4:	e0680005 	rsb	r0, r8, r5
f00008e8:	eaffffc1 	b	f00007f4 <printk+0x24>
f00008ec:	e59d0014 	ldr	r0, [sp, #20]
f00008f0:	e1a01006 	mov	r1, r6
f00008f4:	e3a0200a 	mov	r2, #10
f00008f8:	e2803004 	add	r3, r0, #4
f00008fc:	e5900000 	ldr	r0, [r0]
f0000900:	e58d3014 	str	r3, [sp, #20]
f0000904:	ebffff6b 	bl	f00006b8 <utoa>
f0000908:	e5d6a000 	ldrb	sl, [r6]
f000090c:	e35a0000 	cmp	sl, #0
f0000910:	0a000004 	beq	f0000928 <printk+0x158>
f0000914:	e1a0a006 	mov	sl, r6
f0000918:	e5fa3001 	ldrb	r3, [sl, #1]!
f000091c:	e3530000 	cmp	r3, #0
f0000920:	1afffffc 	bne	f0000918 <printk+0x148>
f0000924:	e066a00a 	rsb	sl, r6, sl
f0000928:	e1a0100a 	mov	r1, sl
f000092c:	e1a00006 	mov	r0, r6
f0000930:	e1a02007 	mov	r2, r7
f0000934:	ebffff8e 	bl	f0000774 <print_align>
f0000938:	e28d3003 	add	r3, sp, #3
f000093c:	e080000a 	add	r0, r0, sl
f0000940:	e1a01005 	mov	r1, r5
f0000944:	e5f32001 	ldrb	r2, [r3, #1]!
f0000948:	e3520000 	cmp	r2, #0
f000094c:	e4c12001 	strb	r2, [r1], #1
f0000950:	1afffffb 	bne	f0000944 <printk+0x174>
f0000954:	e0855000 	add	r5, r5, r0
f0000958:	eaffffb4 	b	f0000830 <printk+0x60>
f000095c:	e59d3014 	ldr	r3, [sp, #20]
f0000960:	e1a01005 	mov	r1, r5
f0000964:	e2832004 	add	r2, r3, #4
f0000968:	e58d2014 	str	r2, [sp, #20]
f000096c:	e5930000 	ldr	r0, [r3]
f0000970:	e2402001 	sub	r2, r0, #1
f0000974:	e5f23001 	ldrb	r3, [r2, #1]!
f0000978:	e3530000 	cmp	r3, #0
f000097c:	e4c13001 	strb	r3, [r1], #1
f0000980:	1afffffb 	bne	f0000974 <printk+0x1a4>
f0000984:	e5d03000 	ldrb	r3, [r0]
f0000988:	e3530000 	cmp	r3, #0
f000098c:	0a000004 	beq	f00009a4 <printk+0x1d4>
f0000990:	e1a03000 	mov	r3, r0
f0000994:	e5f32001 	ldrb	r2, [r3, #1]!
f0000998:	e3520000 	cmp	r2, #0
f000099c:	1afffffc 	bne	f0000994 <printk+0x1c4>
f00009a0:	e0603003 	rsb	r3, r0, r3
f00009a4:	e0855003 	add	r5, r5, r3
f00009a8:	eaffffa0 	b	f0000830 <printk+0x60>
f00009ac:	e59d0014 	ldr	r0, [sp, #20]
f00009b0:	e1a01006 	mov	r1, r6
f00009b4:	e3a02010 	mov	r2, #16
f00009b8:	e2803004 	add	r3, r0, #4
f00009bc:	e5900000 	ldr	r0, [r0]
f00009c0:	e58d3014 	str	r3, [sp, #20]
f00009c4:	ebffff3b 	bl	f00006b8 <utoa>
f00009c8:	e5d6a000 	ldrb	sl, [r6]
f00009cc:	e35a0000 	cmp	sl, #0
f00009d0:	0a000004 	beq	f00009e8 <printk+0x218>
f00009d4:	e1a0a006 	mov	sl, r6
f00009d8:	e5fa3001 	ldrb	r3, [sl, #1]!
f00009dc:	e3530000 	cmp	r3, #0
f00009e0:	1afffffc 	bne	f00009d8 <printk+0x208>
f00009e4:	e066a00a 	rsb	sl, r6, sl
f00009e8:	e1a0100a 	mov	r1, sl
f00009ec:	e1a00006 	mov	r0, r6
f00009f0:	e1a02007 	mov	r2, r7
f00009f4:	ebffff5e 	bl	f0000774 <print_align>
f00009f8:	e28d3003 	add	r3, sp, #3
f00009fc:	e080000a 	add	r0, r0, sl
f0000a00:	e1a01005 	mov	r1, r5
f0000a04:	e5f32001 	ldrb	r2, [r3, #1]!
f0000a08:	e3520000 	cmp	r2, #0
f0000a0c:	e4c12001 	strb	r2, [r1], #1
f0000a10:	1afffffb 	bne	f0000a04 <printk+0x234>
f0000a14:	e0855000 	add	r5, r5, r0
f0000a18:	eaffff84 	b	f0000830 <printk+0x60>
f0000a1c:	e59d3014 	ldr	r3, [sp, #20]
f0000a20:	e5932000 	ldr	r2, [r3]
f0000a24:	e2833004 	add	r3, r3, #4
f0000a28:	e58d3014 	str	r3, [sp, #20]
f0000a2c:	e5c52000 	strb	r2, [r5]
f0000a30:	eaffff7e 	b	f0000830 <printk+0x60>
f0000a34:	e5c59000 	strb	r9, [r5]
f0000a38:	e5d43000 	ldrb	r3, [r4]
f0000a3c:	e5c53001 	strb	r3, [r5, #1]
f0000a40:	e2855002 	add	r5, r5, #2
f0000a44:	eaffff79 	b	f0000830 <printk+0x60>
f0000a48:	e59d0014 	ldr	r0, [sp, #20]
f0000a4c:	e1a01006 	mov	r1, r6
f0000a50:	e3a0200a 	mov	r2, #10
f0000a54:	e2803004 	add	r3, r0, #4
f0000a58:	e5900000 	ldr	r0, [r0]
f0000a5c:	e58d3014 	str	r3, [sp, #20]
f0000a60:	ebfffedb 	bl	f00005d4 <itoa>
f0000a64:	e5d6a000 	ldrb	sl, [r6]
f0000a68:	e35a0000 	cmp	sl, #0
f0000a6c:	0a000004 	beq	f0000a84 <printk+0x2b4>
f0000a70:	e1a0a006 	mov	sl, r6
f0000a74:	e5fa3001 	ldrb	r3, [sl, #1]!
f0000a78:	e3530000 	cmp	r3, #0
f0000a7c:	1afffffc 	bne	f0000a74 <printk+0x2a4>
f0000a80:	e066a00a 	rsb	sl, r6, sl
f0000a84:	e1a0100a 	mov	r1, sl
f0000a88:	e1a00006 	mov	r0, r6
f0000a8c:	e1a02007 	mov	r2, r7
f0000a90:	ebffff37 	bl	f0000774 <print_align>
f0000a94:	e28d3003 	add	r3, sp, #3
f0000a98:	e080000a 	add	r0, r0, sl
f0000a9c:	e1a01005 	mov	r1, r5
f0000aa0:	e5f32001 	ldrb	r2, [r3, #1]!
f0000aa4:	e3520000 	cmp	r2, #0
f0000aa8:	e4c12001 	strb	r2, [r1], #1
f0000aac:	1afffffb 	bne	f0000aa0 <printk+0x2d0>
f0000ab0:	e0855000 	add	r5, r5, r0
f0000ab4:	eaffff5d 	b	f0000830 <printk+0x60>
f0000ab8:	f0003190 			; <UNDEFINED> instruction: 0xf0003190
f0000abc:	f0003238 			; <UNDEFINED> instruction: 0xf0003238

f0000ac0 <printk_nommu>:
f0000ac0:	e92d000f 	push	{r0, r1, r2, r3}
f0000ac4:	e92d47f0 	push	{r4, r5, r6, r7, r8, r9, sl, lr}
f0000ac8:	e24dd018 	sub	sp, sp, #24
f0000acc:	e28d303c 	add	r3, sp, #60	; 0x3c
f0000ad0:	e59d4038 	ldr	r4, [sp, #56]	; 0x38
f0000ad4:	e58d3014 	str	r3, [sp, #20]
f0000ad8:	e59f82b0 	ldr	r8, [pc, #688]	; f0000d90 <printk_nommu+0x2d0>
f0000adc:	e5d43000 	ldrb	r3, [r4]
f0000ae0:	e3530000 	cmp	r3, #0
f0000ae4:	01a05008 	moveq	r5, r8
f0000ae8:	0a00002c 	beq	f0000ba0 <printk_nommu+0xe0>
f0000aec:	e3a09025 	mov	r9, #37	; 0x25
f0000af0:	e28d6004 	add	r6, sp, #4
f0000af4:	e1a05008 	mov	r5, r8
f0000af8:	ea000003 	b	f0000b0c <printk_nommu+0x4c>
f0000afc:	e5d43001 	ldrb	r3, [r4, #1]
f0000b00:	e2844001 	add	r4, r4, #1
f0000b04:	e3530000 	cmp	r3, #0
f0000b08:	0a000024 	beq	f0000ba0 <printk_nommu+0xe0>
f0000b0c:	e3530025 	cmp	r3, #37	; 0x25
f0000b10:	14c53001 	strbne	r3, [r5], #1
f0000b14:	1afffff8 	bne	f0000afc <printk_nommu+0x3c>
f0000b18:	e5d43001 	ldrb	r3, [r4, #1]
f0000b1c:	e2432031 	sub	r2, r3, #49	; 0x31
f0000b20:	e3520008 	cmp	r2, #8
f0000b24:	92437030 	subls	r7, r3, #48	; 0x30
f0000b28:	95d43002 	ldrbls	r3, [r4, #2]
f0000b2c:	82844001 	addhi	r4, r4, #1
f0000b30:	83a07000 	movhi	r7, #0
f0000b34:	92844002 	addls	r4, r4, #2
f0000b38:	e2433063 	sub	r3, r3, #99	; 0x63
f0000b3c:	e3530015 	cmp	r3, #21
f0000b40:	979ff103 	ldrls	pc, [pc, r3, lsl #2]
f0000b44:	ea000070 	b	f0000d0c <printk_nommu+0x24c>
f0000b48:	f0000cf4 			; <UNDEFINED> instruction: 0xf0000cf4
f0000b4c:	f0000d20 			; <UNDEFINED> instruction: 0xf0000d20
f0000b50:	f0000d0c 			; <UNDEFINED> instruction: 0xf0000d0c
f0000b54:	f0000d0c 			; <UNDEFINED> instruction: 0xf0000d0c
f0000b58:	f0000d0c 			; <UNDEFINED> instruction: 0xf0000d0c
f0000b5c:	f0000d0c 			; <UNDEFINED> instruction: 0xf0000d0c
f0000b60:	f0000d0c 			; <UNDEFINED> instruction: 0xf0000d0c
f0000b64:	f0000d0c 			; <UNDEFINED> instruction: 0xf0000d0c
f0000b68:	f0000d0c 			; <UNDEFINED> instruction: 0xf0000d0c
f0000b6c:	f0000d0c 			; <UNDEFINED> instruction: 0xf0000d0c
f0000b70:	f0000d0c 			; <UNDEFINED> instruction: 0xf0000d0c
f0000b74:	f0000d0c 			; <UNDEFINED> instruction: 0xf0000d0c
f0000b78:	f0000d0c 			; <UNDEFINED> instruction: 0xf0000d0c
f0000b7c:	f0000c84 			; <UNDEFINED> instruction: 0xf0000c84
f0000b80:	f0000d0c 			; <UNDEFINED> instruction: 0xf0000d0c
f0000b84:	f0000d0c 			; <UNDEFINED> instruction: 0xf0000d0c
f0000b88:	f0000c34 			; <UNDEFINED> instruction: 0xf0000c34
f0000b8c:	f0000d0c 			; <UNDEFINED> instruction: 0xf0000d0c
f0000b90:	f0000bc4 			; <UNDEFINED> instruction: 0xf0000bc4
f0000b94:	f0000d0c 			; <UNDEFINED> instruction: 0xf0000d0c
f0000b98:	f0000d0c 			; <UNDEFINED> instruction: 0xf0000d0c
f0000b9c:	f0000c84 			; <UNDEFINED> instruction: 0xf0000c84
f0000ba0:	e3a03000 	mov	r3, #0
f0000ba4:	e59f01e4 	ldr	r0, [pc, #484]	; f0000d90 <printk_nommu+0x2d0>
f0000ba8:	e4c53001 	strb	r3, [r5], #1
f0000bac:	ebfffdb7 	bl	f0000290 <serial_puts_nommu>
f0000bb0:	e0680005 	rsb	r0, r8, r5
f0000bb4:	e28dd018 	add	sp, sp, #24
f0000bb8:	e8bd47f0 	pop	{r4, r5, r6, r7, r8, r9, sl, lr}
f0000bbc:	e28dd010 	add	sp, sp, #16
f0000bc0:	e12fff1e 	bx	lr
f0000bc4:	e59d0014 	ldr	r0, [sp, #20]
f0000bc8:	e1a01006 	mov	r1, r6
f0000bcc:	e3a0200a 	mov	r2, #10
f0000bd0:	e2803004 	add	r3, r0, #4
f0000bd4:	e5900000 	ldr	r0, [r0]
f0000bd8:	e58d3014 	str	r3, [sp, #20]
f0000bdc:	ebfffeb5 	bl	f00006b8 <utoa>
f0000be0:	e5d6a000 	ldrb	sl, [r6]
f0000be4:	e35a0000 	cmp	sl, #0
f0000be8:	0a000004 	beq	f0000c00 <printk_nommu+0x140>
f0000bec:	e1a0a006 	mov	sl, r6
f0000bf0:	e5fa3001 	ldrb	r3, [sl, #1]!
f0000bf4:	e3530000 	cmp	r3, #0
f0000bf8:	1afffffc 	bne	f0000bf0 <printk_nommu+0x130>
f0000bfc:	e066a00a 	rsb	sl, r6, sl
f0000c00:	e1a0100a 	mov	r1, sl
f0000c04:	e1a00006 	mov	r0, r6
f0000c08:	e1a02007 	mov	r2, r7
f0000c0c:	ebfffed8 	bl	f0000774 <print_align>
f0000c10:	e28d3003 	add	r3, sp, #3
f0000c14:	e080000a 	add	r0, r0, sl
f0000c18:	e1a01005 	mov	r1, r5
f0000c1c:	e5f32001 	ldrb	r2, [r3, #1]!
f0000c20:	e3520000 	cmp	r2, #0
f0000c24:	e4c12001 	strb	r2, [r1], #1
f0000c28:	1afffffb 	bne	f0000c1c <printk_nommu+0x15c>
f0000c2c:	e0855000 	add	r5, r5, r0
f0000c30:	eaffffb1 	b	f0000afc <printk_nommu+0x3c>
f0000c34:	e59d3014 	ldr	r3, [sp, #20]
f0000c38:	e1a01005 	mov	r1, r5
f0000c3c:	e2832004 	add	r2, r3, #4
f0000c40:	e58d2014 	str	r2, [sp, #20]
f0000c44:	e5930000 	ldr	r0, [r3]
f0000c48:	e2402001 	sub	r2, r0, #1
f0000c4c:	e5f23001 	ldrb	r3, [r2, #1]!
f0000c50:	e3530000 	cmp	r3, #0
f0000c54:	e4c13001 	strb	r3, [r1], #1
f0000c58:	1afffffb 	bne	f0000c4c <printk_nommu+0x18c>
f0000c5c:	e5d03000 	ldrb	r3, [r0]
f0000c60:	e3530000 	cmp	r3, #0
f0000c64:	0a000004 	beq	f0000c7c <printk_nommu+0x1bc>
f0000c68:	e1a03000 	mov	r3, r0
f0000c6c:	e5f32001 	ldrb	r2, [r3, #1]!
f0000c70:	e3520000 	cmp	r2, #0
f0000c74:	1afffffc 	bne	f0000c6c <printk_nommu+0x1ac>
f0000c78:	e0603003 	rsb	r3, r0, r3
f0000c7c:	e0855003 	add	r5, r5, r3
f0000c80:	eaffff9d 	b	f0000afc <printk_nommu+0x3c>
f0000c84:	e59d0014 	ldr	r0, [sp, #20]
f0000c88:	e1a01006 	mov	r1, r6
f0000c8c:	e3a02010 	mov	r2, #16
f0000c90:	e2803004 	add	r3, r0, #4
f0000c94:	e5900000 	ldr	r0, [r0]
f0000c98:	e58d3014 	str	r3, [sp, #20]
f0000c9c:	ebfffe85 	bl	f00006b8 <utoa>
f0000ca0:	e5d6a000 	ldrb	sl, [r6]
f0000ca4:	e35a0000 	cmp	sl, #0
f0000ca8:	0a000004 	beq	f0000cc0 <printk_nommu+0x200>
f0000cac:	e1a0a006 	mov	sl, r6
f0000cb0:	e5fa3001 	ldrb	r3, [sl, #1]!
f0000cb4:	e3530000 	cmp	r3, #0
f0000cb8:	1afffffc 	bne	f0000cb0 <printk_nommu+0x1f0>
f0000cbc:	e066a00a 	rsb	sl, r6, sl
f0000cc0:	e1a0100a 	mov	r1, sl
f0000cc4:	e1a00006 	mov	r0, r6
f0000cc8:	e1a02007 	mov	r2, r7
f0000ccc:	ebfffea8 	bl	f0000774 <print_align>
f0000cd0:	e28d3003 	add	r3, sp, #3
f0000cd4:	e080000a 	add	r0, r0, sl
f0000cd8:	e1a01005 	mov	r1, r5
f0000cdc:	e5f32001 	ldrb	r2, [r3, #1]!
f0000ce0:	e3520000 	cmp	r2, #0
f0000ce4:	e4c12001 	strb	r2, [r1], #1
f0000ce8:	1afffffb 	bne	f0000cdc <printk_nommu+0x21c>
f0000cec:	e0855000 	add	r5, r5, r0
f0000cf0:	eaffff81 	b	f0000afc <printk_nommu+0x3c>
f0000cf4:	e59d3014 	ldr	r3, [sp, #20]
f0000cf8:	e5932000 	ldr	r2, [r3]
f0000cfc:	e2833004 	add	r3, r3, #4
f0000d00:	e58d3014 	str	r3, [sp, #20]
f0000d04:	e5c52000 	strb	r2, [r5]
f0000d08:	eaffff7b 	b	f0000afc <printk_nommu+0x3c>
f0000d0c:	e5c59000 	strb	r9, [r5]
f0000d10:	e5d43000 	ldrb	r3, [r4]
f0000d14:	e5c53001 	strb	r3, [r5, #1]
f0000d18:	e2855002 	add	r5, r5, #2
f0000d1c:	eaffff76 	b	f0000afc <printk_nommu+0x3c>
f0000d20:	e59d0014 	ldr	r0, [sp, #20]
f0000d24:	e1a01006 	mov	r1, r6
f0000d28:	e3a0200a 	mov	r2, #10
f0000d2c:	e2803004 	add	r3, r0, #4
f0000d30:	e5900000 	ldr	r0, [r0]
f0000d34:	e58d3014 	str	r3, [sp, #20]
f0000d38:	ebfffe25 	bl	f00005d4 <itoa>
f0000d3c:	e5d6a000 	ldrb	sl, [r6]
f0000d40:	e35a0000 	cmp	sl, #0
f0000d44:	0a000004 	beq	f0000d5c <printk_nommu+0x29c>
f0000d48:	e1a0a006 	mov	sl, r6
f0000d4c:	e5fa3001 	ldrb	r3, [sl, #1]!
f0000d50:	e3530000 	cmp	r3, #0
f0000d54:	1afffffc 	bne	f0000d4c <printk_nommu+0x28c>
f0000d58:	e066a00a 	rsb	sl, r6, sl
f0000d5c:	e1a0100a 	mov	r1, sl
f0000d60:	e1a00006 	mov	r0, r6
f0000d64:	e1a02007 	mov	r2, r7
f0000d68:	ebfffe81 	bl	f0000774 <print_align>
f0000d6c:	e28d3003 	add	r3, sp, #3
f0000d70:	e080000a 	add	r0, r0, sl
f0000d74:	e1a01005 	mov	r1, r5
f0000d78:	e5f32001 	ldrb	r2, [r3, #1]!
f0000d7c:	e3520000 	cmp	r2, #0
f0000d80:	e4c12001 	strb	r2, [r1], #1
f0000d84:	1afffffb 	bne	f0000d78 <printk_nommu+0x2b8>
f0000d88:	e0855000 	add	r5, r5, r0
f0000d8c:	eaffff5a 	b	f0000afc <printk_nommu+0x3c>
f0000d90:	f0003238 			; <UNDEFINED> instruction: 0xf0003238

f0000d94 <__div0>:
f0000d94:	e3030074 	movw	r0, #12404	; 0x3074
f0000d98:	e34f0000 	movt	r0, #61440	; 0xf000
f0000d9c:	eafffe8b 	b	f00007d0 <printk>

f0000da0 <raw_lib_udiv>:
f0000da0:	e3510000 	cmp	r1, #0
f0000da4:	01a02001 	moveq	r2, r1
f0000da8:	0a00000d 	beq	f0000de4 <raw_lib_udiv+0x44>
f0000dac:	e3a03000 	mov	r3, #0
f0000db0:	ba000002 	blt	f0000dc0 <raw_lib_udiv+0x20>
f0000db4:	e1b01081 	lsls	r1, r1, #1
f0000db8:	e2833001 	add	r3, r3, #1
f0000dbc:	5afffffc 	bpl	f0000db4 <raw_lib_udiv+0x14>
f0000dc0:	e3a02000 	mov	r2, #0
f0000dc4:	e1a0c082 	lsl	ip, r2, #1
f0000dc8:	e1500001 	cmp	r0, r1
f0000dcc:	20610000 	rsbcs	r0, r1, r0
f0000dd0:	31a02082 	lslcc	r2, r2, #1
f0000dd4:	238c2001 	orrcs	r2, ip, #1
f0000dd8:	e1a010a1 	lsr	r1, r1, #1
f0000ddc:	e2533001 	subs	r3, r3, #1
f0000de0:	5afffff7 	bpl	f0000dc4 <raw_lib_udiv+0x24>
f0000de4:	e1a00002 	mov	r0, r2
f0000de8:	e12fff1e 	bx	lr

f0000dec <Ldiv0>:
f0000dec:	e52de008 	str	lr, [sp, #-8]!
f0000df0:	ebffffe7 	bl	f0000d94 <__div0>
f0000df4:	e3a00000 	mov	r0, #0
f0000df8:	e49df008 	ldr	pc, [sp], #8

f0000dfc <__aeabi_uidiv>:
f0000dfc:	e2512001 	subs	r2, r1, #1
f0000e00:	01a0f00e 	moveq	pc, lr
f0000e04:	3afffff8 	bcc	f0000dec <Ldiv0>
f0000e08:	e1500001 	cmp	r0, r1
f0000e0c:	9a00001a 	bls	f0000e7c <__aeabi_uidiv+0x80>
f0000e10:	e1110002 	tst	r1, r2
f0000e14:	0a00001b 	beq	f0000e88 <__aeabi_uidiv+0x8c>
f0000e18:	e16f3f11 	clz	r3, r1
f0000e1c:	e16f2f10 	clz	r2, r0
f0000e20:	e0432002 	sub	r2, r3, r2
f0000e24:	e3a03001 	mov	r3, #1
f0000e28:	e1a01211 	lsl	r1, r1, r2
f0000e2c:	e1a03213 	lsl	r3, r3, r2
f0000e30:	e3a02000 	mov	r2, #0
f0000e34:	e1500001 	cmp	r0, r1
f0000e38:	20400001 	subcs	r0, r0, r1
f0000e3c:	21822003 	orrcs	r2, r2, r3
f0000e40:	e15000a1 	cmp	r0, r1, lsr #1
f0000e44:	204000a1 	subcs	r0, r0, r1, lsr #1
f0000e48:	218220a3 	orrcs	r2, r2, r3, lsr #1
f0000e4c:	e1500121 	cmp	r0, r1, lsr #2
f0000e50:	20400121 	subcs	r0, r0, r1, lsr #2
f0000e54:	21822123 	orrcs	r2, r2, r3, lsr #2
f0000e58:	e15001a1 	cmp	r0, r1, lsr #3
f0000e5c:	204001a1 	subcs	r0, r0, r1, lsr #3
f0000e60:	218221a3 	orrcs	r2, r2, r3, lsr #3
f0000e64:	e3500000 	cmp	r0, #0
f0000e68:	11b03223 	lsrsne	r3, r3, #4
f0000e6c:	11a01221 	lsrne	r1, r1, #4
f0000e70:	1affffef 	bne	f0000e34 <__aeabi_uidiv+0x38>
f0000e74:	e1a00002 	mov	r0, r2
f0000e78:	e1a0f00e 	mov	pc, lr
f0000e7c:	03a00001 	moveq	r0, #1
f0000e80:	13a00000 	movne	r0, #0
f0000e84:	e1a0f00e 	mov	pc, lr
f0000e88:	e16f2f11 	clz	r2, r1
f0000e8c:	e262201f 	rsb	r2, r2, #31
f0000e90:	e1a00230 	lsr	r0, r0, r2
f0000e94:	e1a0f00e 	mov	pc, lr

f0000e98 <__aeabi_idiv>:
f0000e98:	e3510000 	cmp	r1, #0
f0000e9c:	e020c001 	eor	ip, r0, r1
f0000ea0:	0affffd1 	beq	f0000dec <Ldiv0>
f0000ea4:	42611000 	rsbmi	r1, r1, #0
f0000ea8:	e2512001 	subs	r2, r1, #1
f0000eac:	0a00001f 	beq	f0000f30 <__aeabi_idiv+0x98>
f0000eb0:	e1b03000 	movs	r3, r0
f0000eb4:	42603000 	rsbmi	r3, r0, #0
f0000eb8:	e1530001 	cmp	r3, r1
f0000ebc:	9a00001e 	bls	f0000f3c <__aeabi_idiv+0xa4>
f0000ec0:	e1110002 	tst	r1, r2
f0000ec4:	0a000020 	beq	f0000f4c <__aeabi_idiv+0xb4>
f0000ec8:	e16f2f11 	clz	r2, r1
f0000ecc:	e16f0f13 	clz	r0, r3
f0000ed0:	e0420000 	sub	r0, r2, r0
f0000ed4:	e3a02001 	mov	r2, #1
f0000ed8:	e1a01011 	lsl	r1, r1, r0
f0000edc:	e1a02012 	lsl	r2, r2, r0
f0000ee0:	e3a00000 	mov	r0, #0
f0000ee4:	e1530001 	cmp	r3, r1
f0000ee8:	20433001 	subcs	r3, r3, r1
f0000eec:	21800002 	orrcs	r0, r0, r2
f0000ef0:	e15300a1 	cmp	r3, r1, lsr #1
f0000ef4:	204330a1 	subcs	r3, r3, r1, lsr #1
f0000ef8:	218000a2 	orrcs	r0, r0, r2, lsr #1
f0000efc:	e1530121 	cmp	r3, r1, lsr #2
f0000f00:	20433121 	subcs	r3, r3, r1, lsr #2
f0000f04:	21800122 	orrcs	r0, r0, r2, lsr #2
f0000f08:	e15301a1 	cmp	r3, r1, lsr #3
f0000f0c:	204331a1 	subcs	r3, r3, r1, lsr #3
f0000f10:	218001a2 	orrcs	r0, r0, r2, lsr #3
f0000f14:	e3530000 	cmp	r3, #0
f0000f18:	11b02222 	lsrsne	r2, r2, #4
f0000f1c:	11a01221 	lsrne	r1, r1, #4
f0000f20:	1affffef 	bne	f0000ee4 <__aeabi_idiv+0x4c>
f0000f24:	e35c0000 	cmp	ip, #0
f0000f28:	42600000 	rsbmi	r0, r0, #0
f0000f2c:	e1a0f00e 	mov	pc, lr
f0000f30:	e13c0000 	teq	ip, r0
f0000f34:	42600000 	rsbmi	r0, r0, #0
f0000f38:	e1a0f00e 	mov	pc, lr
f0000f3c:	33a00000 	movcc	r0, #0
f0000f40:	01a00fcc 	asreq	r0, ip, #31
f0000f44:	03800001 	orreq	r0, r0, #1
f0000f48:	e1a0f00e 	mov	pc, lr
f0000f4c:	e16f2f11 	clz	r2, r1
f0000f50:	e262201f 	rsb	r2, r2, #31
f0000f54:	e35c0000 	cmp	ip, #0
f0000f58:	e1a00233 	lsr	r0, r3, r2
f0000f5c:	42600000 	rsbmi	r0, r0, #0
f0000f60:	e1a0f00e 	mov	pc, lr

f0000f64 <__aeabi_uidivmod>:
f0000f64:	e92d5003 	push	{r0, r1, ip, lr}
f0000f68:	ebffffa3 	bl	f0000dfc <__aeabi_uidiv>
f0000f6c:	e8bd5006 	pop	{r1, r2, ip, lr}
f0000f70:	e0030290 	mul	r3, r0, r2
f0000f74:	e0411003 	sub	r1, r1, r3
f0000f78:	e1a0f00e 	mov	pc, lr

f0000f7c <__aeabi_idivmod>:
f0000f7c:	e92d5003 	push	{r0, r1, ip, lr}
f0000f80:	ebffffc4 	bl	f0000e98 <__aeabi_idiv>
f0000f84:	e8bd5006 	pop	{r1, r2, ip, lr}
f0000f88:	e0030290 	mul	r3, r0, r2
f0000f8c:	e0411003 	sub	r1, r1, r3
f0000f90:	e1a0f00e 	mov	pc, lr

f0000f94 <mem_delay>:
f0000f94:	e92d000f 	push	{r0, r1, r2, r3}
f0000f98:	e3a01011 	mov	r1, #17
f0000f9c:	e1a03000 	mov	r3, r0

f0000fa0 <loop2>:
f0000fa0:	e2500001 	subs	r0, r0, #1
f0000fa4:	8afffffd 	bhi	f0000fa0 <loop2>
f0000fa8:	e1a00003 	mov	r0, r3
f0000fac:	e2511001 	subs	r1, r1, #1
f0000fb0:	8afffffa 	bhi	f0000fa0 <loop2>
f0000fb4:	e8bd000f 	pop	{r0, r1, r2, r3}
f0000fb8:	e1a0f00e 	mov	pc, lr

f0000fbc <init_perfcounters>:
f0000fbc:	e3500000 	cmp	r0, #0
f0000fc0:	13a00007 	movne	r0, #7
f0000fc4:	03a00001 	moveq	r0, #1
f0000fc8:	e3510000 	cmp	r1, #0
f0000fcc:	13800008 	orrne	r0, r0, #8
f0000fd0:	e3800010 	orr	r0, r0, #16
f0000fd4:	ee090f1c 	mcr	15, 0, r0, cr9, cr12, {0}
f0000fd8:	e3a0313e 	mov	r3, #-2147483633	; 0x8000000f
f0000fdc:	ee093f3c 	mcr	15, 0, r3, cr9, cr12, {1}
f0000fe0:	ee093f7c 	mcr	15, 0, r3, cr9, cr12, {3}
f0000fe4:	e12fff1e 	bx	lr

f0000fe8 <backup_perfcounter>:
f0000fe8:	ee192f1c 	mrc	15, 0, r2, cr9, cr12, {0}
f0000fec:	e3033194 	movw	r3, #12692	; 0x3194
f0000ff0:	e34f3000 	movt	r3, #61440	; 0xf000
f0000ff4:	e5832000 	str	r2, [r3]
f0000ff8:	ee192f3c 	mrc	15, 0, r2, cr9, cr12, {1}
f0000ffc:	e5832004 	str	r2, [r3, #4]
f0001000:	e12fff1e 	bx	lr

f0001004 <restore_perfcounter>:
f0001004:	e3033194 	movw	r3, #12692	; 0x3194
f0001008:	e34f3000 	movt	r3, #61440	; 0xf000
f000100c:	e5933000 	ldr	r3, [r3]
f0001010:	ee093f1c 	mcr	15, 0, r3, cr9, cr12, {0}
f0001014:	e3033194 	movw	r3, #12692	; 0x3194
f0001018:	e34f3000 	movt	r3, #61440	; 0xf000
f000101c:	e5933004 	ldr	r3, [r3, #4]
f0001020:	ee093f3c 	mcr	15, 0, r3, cr9, cr12, {1}
f0001024:	e12fff1e 	bx	lr

f0001028 <get_cyclecount>:
f0001028:	ee190f1d 	mrc	15, 0, r0, cr9, cr13, {0}
f000102c:	e12fff1e 	bx	lr

f0001030 <reset_counter>:
f0001030:	e3a03000 	mov	r3, #0
f0001034:	ee193f1c 	mrc	15, 0, r3, cr9, cr12, {0}
f0001038:	e3a03004 	mov	r3, #4
f000103c:	ee093f1c 	mcr	15, 0, r3, cr9, cr12, {0}
f0001040:	e12fff1e 	bx	lr

f0001044 <change_runtime_env>:
f0001044:	e3a02000 	mov	r2, #0
f0001048:	e3500000 	cmp	r0, #0
f000104c:	e1a03002 	mov	r3, r2
f0001050:	e34021c2 	movt	r2, #450	; 0x1c2
f0001054:	e92d4010 	push	{r4, lr}
f0001058:	e34f31c2 	movt	r3, #61890	; 0xf1c2
f000105c:	01a03002 	moveq	r3, r2
f0001060:	ee192f1d 	mrc	15, 0, r2, cr9, cr13, {0}
f0001064:	ee191f1d 	mrc	15, 0, r1, cr9, cr13, {0}
f0001068:	e59f406c 	ldr	r4, [pc, #108]	; f00010dc <change_runtime_env+0x98>
f000106c:	e0622001 	rsb	r2, r2, r1
f0001070:	e5842008 	str	r2, [r4, #8]
f0001074:	e5931054 	ldr	r1, [r3, #84]	; 0x54
f0001078:	e7e11851 	ubfx	r1, r1, #16, #2
f000107c:	e3510000 	cmp	r1, #0
f0001080:	03a03020 	moveq	r3, #32
f0001084:	0584300c 	streq	r3, [r4, #12]
f0001088:	08bd8010 	popeq	{r4, pc}
f000108c:	e3510001 	cmp	r1, #1
f0001090:	03053dc0 	movweq	r3, #24000	; 0x5dc0
f0001094:	0584300c 	streq	r3, [r4, #12]
f0001098:	08bd8010 	popeq	{r4, pc}
f000109c:	e3510002 	cmp	r1, #2
f00010a0:	18bd8010 	popne	{r4, pc}
f00010a4:	e5932000 	ldr	r2, [r3]
f00010a8:	e3050dc0 	movw	r0, #24000	; 0x5dc0
f00010ac:	e7e41452 	ubfx	r1, r2, #8, #5
f00010b0:	e7e13852 	ubfx	r3, r2, #16, #2
f00010b4:	e0000190 	mul	r0, r0, r1
f00010b8:	e3a01001 	mov	r1, #1
f00010bc:	e1a01311 	lsl	r1, r1, r3
f00010c0:	e7e13252 	ubfx	r3, r2, #4, #2
f00010c4:	e2022003 	and	r2, r2, #3
f00010c8:	e0211192 	mla	r1, r2, r1, r1
f00010cc:	e0200093 	mla	r0, r3, r0, r0
f00010d0:	ebffff32 	bl	f0000da0 <raw_lib_udiv>
f00010d4:	e584000c 	str	r0, [r4, #12]
f00010d8:	e8bd8010 	pop	{r4, pc}
f00010dc:	f0003194 			; <UNDEFINED> instruction: 0xf0003194

f00010e0 <delay_us>:
f00010e0:	e92d4038 	push	{r3, r4, r5, lr}
f00010e4:	e1a05000 	mov	r5, r0
f00010e8:	e59f4044 	ldr	r4, [pc, #68]	; f0001134 <delay_us+0x54>
f00010ec:	e594000c 	ldr	r0, [r4, #12]
f00010f0:	e3500ffa 	cmp	r0, #1000	; 0x3e8
f00010f4:	98bd8038 	popls	{r3, r4, r5, pc}
f00010f8:	e3a01ffa 	mov	r1, #1000	; 0x3e8
f00010fc:	ebffff27 	bl	f0000da0 <raw_lib_udiv>
f0001100:	ee193f1d 	mrc	15, 0, r3, cr9, cr13, {0}
f0001104:	e5942008 	ldr	r2, [r4, #8]
f0001108:	e0255590 	mla	r5, r0, r5, r5
f000110c:	e0622003 	rsb	r2, r2, r3
f0001110:	e0825005 	add	r5, r2, r5
f0001114:	e0653003 	rsb	r3, r5, r3
f0001118:	e3530000 	cmp	r3, #0
f000111c:	a8bd8038 	popge	{r3, r4, r5, pc}
f0001120:	ee193f1d 	mrc	15, 0, r3, cr9, cr13, {0}
f0001124:	e0653003 	rsb	r3, r5, r3
f0001128:	e3530000 	cmp	r3, #0
f000112c:	bafffffb 	blt	f0001120 <delay_us+0x40>
f0001130:	e8bd8038 	pop	{r3, r4, r5, pc}
f0001134:	f0003194 			; <UNDEFINED> instruction: 0xf0003194

f0001138 <delay_ms>:
f0001138:	e3a03ffa 	mov	r3, #1000	; 0x3e8
f000113c:	e0000093 	mul	r0, r3, r0
f0001140:	eaffffe6 	b	f00010e0 <delay_us>

f0001144 <init_event_counter>:
f0001144:	e3500000 	cmp	r0, #0
f0001148:	13a00007 	movne	r0, #7
f000114c:	03a00001 	moveq	r0, #1
f0001150:	e3510000 	cmp	r1, #0
f0001154:	13800008 	orrne	r0, r0, #8
f0001158:	e3800010 	orr	r0, r0, #16
f000115c:	ee090f1c 	mcr	15, 0, r0, cr9, cr12, {0}
f0001160:	e3a0313e 	mov	r3, #-2147483633	; 0x8000000f
f0001164:	ee093f3c 	mcr	15, 0, r3, cr9, cr12, {1}
f0001168:	ee093f7c 	mcr	15, 0, r3, cr9, cr12, {3}
f000116c:	e12fff1e 	bx	lr

f0001170 <set_event_counter>:
f0001170:	e2403002 	sub	r3, r0, #2
f0001174:	e3530003 	cmp	r3, #3
f0001178:	959f2018 	ldrls	r2, [pc, #24]	; f0001198 <set_event_counter+0x28>
f000117c:	83a03000 	movhi	r3, #0
f0001180:	97923103 	ldrls	r3, [r2, r3, lsl #2]
f0001184:	ee093fbc 	mcr	15, 0, r3, cr9, cr12, {5}
f0001188:	ee090f3d 	mcr	15, 0, r0, cr9, cr13, {1}
f000118c:	f57ff04f 	dsb	sy
f0001190:	f57ff06f 	isb	sy
f0001194:	e12fff1e 	bx	lr
f0001198:	f000303c 			; <UNDEFINED> instruction: 0xf000303c

f000119c <get_event_counter>:
f000119c:	e2400002 	sub	r0, r0, #2
f00011a0:	e3500003 	cmp	r0, #3
f00011a4:	959f3018 	ldrls	r3, [pc, #24]	; f00011c4 <get_event_counter+0x28>
f00011a8:	83a03000 	movhi	r3, #0
f00011ac:	97933100 	ldrls	r3, [r3, r0, lsl #2]
f00011b0:	ee093fbc 	mcr	15, 0, r3, cr9, cr12, {5}
f00011b4:	ee190f5d 	mrc	15, 0, r0, cr9, cr13, {2}
f00011b8:	f57ff04f 	dsb	sy
f00011bc:	f57ff06f 	isb	sy
f00011c0:	e12fff1e 	bx	lr
f00011c4:	f000303c 			; <UNDEFINED> instruction: 0xf000303c
	...

f00011e0 <save_sp>:
f00011e0:	e1a0000d 	mov	r0, sp
f00011e4:	e59fd400 	ldr	sp, [pc, #1024]	; f00015ec <mem_preload_tlb_nommu+0xc>
f00011e8:	e1a0f00e 	mov	pc, lr

f00011ec <save_sp_nommu>:
f00011ec:	e1a0000d 	mov	r0, sp
f00011f0:	e59fd3f8 	ldr	sp, [pc, #1016]	; f00015f0 <mem_preload_tlb_nommu+0x10>
f00011f4:	e1a0f00e 	mov	pc, lr

f00011f8 <restore_sp>:
f00011f8:	e1a0d000 	mov	sp, r0
f00011fc:	e1a0f00e 	mov	pc, lr

f0001200 <get_sp>:
f0001200:	e1a0000d 	mov	r0, sp
f0001204:	e1a0f00e 	mov	pc, lr
f0001208:	e320f000 	nop	{0}
f000120c:	e320f000 	nop	{0}

f0001210 <invalidate_dcache>:
f0001210:	f57ff05f 	dmb	sy
f0001214:	ee300f30 	mrc	15, 1, r0, cr0, cr0, {1}
f0001218:	e2103407 	ands	r3, r0, #117440512	; 0x7000000
f000121c:	e1a03ba3 	lsr	r3, r3, #23
f0001220:	0a00001a 	beq	f0001290 <inv_finished>
f0001224:	e3a0a000 	mov	sl, #0

f0001228 <inv_loop1>:
f0001228:	e08a20aa 	add	r2, sl, sl, lsr #1
f000122c:	e1a01230 	lsr	r1, r0, r2
f0001230:	e2011007 	and	r1, r1, #7
f0001234:	e3510002 	cmp	r1, #2
f0001238:	ba000011 	blt	f0001284 <inv_skip>
f000123c:	ee40af10 	mcr	15, 2, sl, cr0, cr0, {0}
f0001240:	f57ff06f 	isb	sy
f0001244:	ee301f10 	mrc	15, 1, r1, cr0, cr0, {0}
f0001248:	e2012007 	and	r2, r1, #7
f000124c:	e2822004 	add	r2, r2, #4
f0001250:	e59f439c 	ldr	r4, [pc, #924]	; f00015f4 <mem_preload_tlb_nommu+0x14>
f0001254:	e01441a1 	ands	r4, r4, r1, lsr #3
f0001258:	e16f5f14 	clz	r5, r4
f000125c:	e59f7394 	ldr	r7, [pc, #916]	; f00015f8 <mem_preload_tlb_nommu+0x18>
f0001260:	e01776a1 	ands	r7, r7, r1, lsr #13

f0001264 <inv_loop2>:
f0001264:	e1a09004 	mov	r9, r4

f0001268 <inv_loop3>:
f0001268:	e18ab519 	orr	fp, sl, r9, lsl r5
f000126c:	e18bb217 	orr	fp, fp, r7, lsl r2
f0001270:	ee07bf56 	mcr	15, 0, fp, cr7, cr6, {2}
f0001274:	e2599001 	subs	r9, r9, #1
f0001278:	aafffffa 	bge	f0001268 <inv_loop3>
f000127c:	e2577001 	subs	r7, r7, #1
f0001280:	aafffff7 	bge	f0001264 <inv_loop2>

f0001284 <inv_skip>:
f0001284:	e28aa002 	add	sl, sl, #2
f0001288:	e153000a 	cmp	r3, sl
f000128c:	caffffe5 	bgt	f0001228 <inv_loop1>

f0001290 <inv_finished>:
f0001290:	e3a0a000 	mov	sl, #0
f0001294:	ee40af10 	mcr	15, 2, sl, cr0, cr0, {0}
f0001298:	f57ff04f 	dsb	sy
f000129c:	f57ff06f 	isb	sy
f00012a0:	e1a0f00e 	mov	pc, lr

f00012a4 <invalidate_icache>:
f00012a4:	e3a00000 	mov	r0, #0
f00012a8:	ee070f11 	mcr	15, 0, r0, cr7, cr1, {0}
f00012ac:	ee070f15 	mcr	15, 0, r0, cr7, cr5, {0}
f00012b0:	f57ff04f 	dsb	sy
f00012b4:	f57ff06f 	isb	sy
f00012b8:	e1a0f00e 	mov	pc, lr

f00012bc <flush_dcache>:
f00012bc:	e92d1fff 	push	{r0, r1, r2, r3, r4, r5, r6, r7, r8, r9, sl, fp, ip}
f00012c0:	f57ff05f 	dmb	sy
f00012c4:	ee300f30 	mrc	15, 1, r0, cr0, cr0, {1}
f00012c8:	e2103407 	ands	r3, r0, #117440512	; 0x7000000
f00012cc:	e1a03ba3 	lsr	r3, r3, #23
f00012d0:	0a00001a 	beq	f0001340 <finished>
f00012d4:	e3a0a000 	mov	sl, #0

f00012d8 <loop1>:
f00012d8:	e08a20aa 	add	r2, sl, sl, lsr #1
f00012dc:	e1a01230 	lsr	r1, r0, r2
f00012e0:	e2011007 	and	r1, r1, #7
f00012e4:	e3510002 	cmp	r1, #2
f00012e8:	ba000011 	blt	f0001334 <skip>
f00012ec:	ee40af10 	mcr	15, 2, sl, cr0, cr0, {0}
f00012f0:	f57ff06f 	isb	sy
f00012f4:	ee301f10 	mrc	15, 1, r1, cr0, cr0, {0}
f00012f8:	e2012007 	and	r2, r1, #7
f00012fc:	e2822004 	add	r2, r2, #4
f0001300:	e59f42ec 	ldr	r4, [pc, #748]	; f00015f4 <mem_preload_tlb_nommu+0x14>
f0001304:	e01441a1 	ands	r4, r4, r1, lsr #3
f0001308:	e16f5f14 	clz	r5, r4
f000130c:	e59f72e4 	ldr	r7, [pc, #740]	; f00015f8 <mem_preload_tlb_nommu+0x18>
f0001310:	e01776a1 	ands	r7, r7, r1, lsr #13

f0001314 <loop2>:
f0001314:	e1a09004 	mov	r9, r4

f0001318 <loop3>:
f0001318:	e18ab519 	orr	fp, sl, r9, lsl r5
f000131c:	e18bb217 	orr	fp, fp, r7, lsl r2
f0001320:	ee07bf5e 	mcr	15, 0, fp, cr7, cr14, {2}
f0001324:	e2599001 	subs	r9, r9, #1
f0001328:	aafffffa 	bge	f0001318 <loop3>
f000132c:	e2577001 	subs	r7, r7, #1
f0001330:	aafffff7 	bge	f0001314 <loop2>

f0001334 <skip>:
f0001334:	e28aa002 	add	sl, sl, #2
f0001338:	e153000a 	cmp	r3, sl
f000133c:	caffffe5 	bgt	f00012d8 <loop1>

f0001340 <finished>:
f0001340:	e3a0a000 	mov	sl, #0
f0001344:	ee40af10 	mcr	15, 2, sl, cr0, cr0, {0}
f0001348:	f57ff04f 	dsb	sy
f000134c:	f57ff06f 	isb	sy
f0001350:	e8bd1fff 	pop	{r0, r1, r2, r3, r4, r5, r6, r7, r8, r9, sl, fp, ip}
f0001354:	e1a0f00e 	mov	pc, lr

f0001358 <flush_icache>:
f0001358:	e92d000f 	push	{r0, r1, r2, r3}
f000135c:	e3a00000 	mov	r0, #0
f0001360:	ee070f15 	mcr	15, 0, r0, cr7, cr5, {0}
f0001364:	ee070f11 	mcr	15, 0, r0, cr7, cr1, {0}
f0001368:	ee070fd1 	mcr	15, 0, r0, cr7, cr1, {6}
f000136c:	f57ff06f 	isb	sy
f0001370:	f57ff04f 	dsb	sy
f0001374:	e8bd000f 	pop	{r0, r1, r2, r3}
f0001378:	e1a0f00e 	mov	pc, lr

f000137c <disable_cache>:
f000137c:	e92d000f 	push	{r0, r1, r2, r3}
f0001380:	ee110f10 	mrc	15, 0, r0, cr1, cr0, {0}
f0001384:	e3c00a01 	bic	r0, r0, #4096	; 0x1000
f0001388:	e3c00004 	bic	r0, r0, #4
f000138c:	ee010f10 	mcr	15, 0, r0, cr1, cr0, {0}
f0001390:	f57ff06f 	isb	sy
f0001394:	e8bd000f 	pop	{r0, r1, r2, r3}
f0001398:	e1a0f00e 	mov	pc, lr

f000139c <disable_dcache>:
f000139c:	e92d000f 	push	{r0, r1, r2, r3}
f00013a0:	ee110f10 	mrc	15, 0, r0, cr1, cr0, {0}
f00013a4:	e3c00004 	bic	r0, r0, #4
f00013a8:	ee010f10 	mcr	15, 0, r0, cr1, cr0, {0}
f00013ac:	f57ff06f 	isb	sy
f00013b0:	e8bd000f 	pop	{r0, r1, r2, r3}
f00013b4:	e1a0f00e 	mov	pc, lr

f00013b8 <disable_icache>:
f00013b8:	e92d000f 	push	{r0, r1, r2, r3}
f00013bc:	ee110f10 	mrc	15, 0, r0, cr1, cr0, {0}
f00013c0:	e3c00a01 	bic	r0, r0, #4096	; 0x1000
f00013c4:	ee010f10 	mcr	15, 0, r0, cr1, cr0, {0}
f00013c8:	f57ff06f 	isb	sy
f00013cc:	e8bd000f 	pop	{r0, r1, r2, r3}
f00013d0:	e1a0f00e 	mov	pc, lr

f00013d4 <disable_l2cache>:
f00013d4:	e92d000f 	push	{r0, r1, r2, r3}
f00013d8:	ee110f30 	mrc	15, 0, r0, cr1, cr0, {1}
f00013dc:	e3c00002 	bic	r0, r0, #2
f00013e0:	ee010f30 	mcr	15, 0, r0, cr1, cr0, {1}
f00013e4:	f57ff06f 	isb	sy
f00013e8:	e8bd000f 	pop	{r0, r1, r2, r3}
f00013ec:	e1a0f00e 	mov	pc, lr

f00013f0 <enable_cache>:
f00013f0:	e92d000f 	push	{r0, r1, r2, r3}
f00013f4:	ee110f10 	mrc	15, 0, r0, cr1, cr0, {0}
f00013f8:	e3800a01 	orr	r0, r0, #4096	; 0x1000
f00013fc:	e3800004 	orr	r0, r0, #4
f0001400:	ee010f10 	mcr	15, 0, r0, cr1, cr0, {0}
f0001404:	f57ff06f 	isb	sy
f0001408:	e8bd000f 	pop	{r0, r1, r2, r3}
f000140c:	e1a0f00e 	mov	pc, lr

f0001410 <enable_icache>:
f0001410:	e92d000f 	push	{r0, r1, r2, r3}
f0001414:	ee110f10 	mrc	15, 0, r0, cr1, cr0, {0}
f0001418:	e3800a01 	orr	r0, r0, #4096	; 0x1000
f000141c:	ee010f10 	mcr	15, 0, r0, cr1, cr0, {0}
f0001420:	f57ff06f 	isb	sy
f0001424:	e8bd000f 	pop	{r0, r1, r2, r3}
f0001428:	e1a0f00e 	mov	pc, lr

f000142c <invalidate_branch_predictor>:
f000142c:	e92d000f 	push	{r0, r1, r2, r3}
f0001430:	e3a00000 	mov	r0, #0
f0001434:	ee070fd5 	mcr	15, 0, r0, cr7, cr5, {6}
f0001438:	f57ff06f 	isb	sy
f000143c:	e8bd000f 	pop	{r0, r1, r2, r3}
f0001440:	e1a0f00e 	mov	pc, lr

f0001444 <disable_program_flow_prediction>:
f0001444:	e92d000f 	push	{r0, r1, r2, r3}
f0001448:	ee110f10 	mrc	15, 0, r0, cr1, cr0, {0}
f000144c:	e3c00b02 	bic	r0, r0, #2048	; 0x800
f0001450:	ee010f10 	mcr	15, 0, r0, cr1, cr0, {0}
f0001454:	f57ff06f 	isb	sy
f0001458:	e8bd000f 	pop	{r0, r1, r2, r3}
f000145c:	e1a0f00e 	mov	pc, lr

f0001460 <enable_program_flow_prediction>:
f0001460:	e92d000f 	push	{r0, r1, r2, r3}
f0001464:	ee110f10 	mrc	15, 0, r0, cr1, cr0, {0}
f0001468:	e3800b02 	orr	r0, r0, #2048	; 0x800
f000146c:	ee010f10 	mcr	15, 0, r0, cr1, cr0, {0}
f0001470:	f57ff06f 	isb	sy
f0001474:	e8bd000f 	pop	{r0, r1, r2, r3}
f0001478:	e1a0f00e 	mov	pc, lr

f000147c <mem_flush_tlb>:
f000147c:	e92d000f 	push	{r0, r1, r2, r3}
f0001480:	e3a00000 	mov	r0, #0
f0001484:	ee080f15 	mcr	15, 0, r0, cr8, cr5, {0}
f0001488:	ee080f16 	mcr	15, 0, r0, cr8, cr6, {0}
f000148c:	ee080f17 	mcr	15, 0, r0, cr8, cr7, {0}
f0001490:	f57ff04f 	dsb	sy
f0001494:	f57ff06f 	isb	sy
f0001498:	e8bd000f 	pop	{r0, r1, r2, r3}
f000149c:	e1a0f00e 	mov	pc, lr

f00014a0 <mem_preload_tlb>:
f00014a0:	e92d000f 	push	{r0, r1, r2, r3}
f00014a4:	e3a0020f 	mov	r0, #-268435456	; 0xf0000000
f00014a8:	e5901000 	ldr	r1, [r0]
f00014ac:	e59f0148 	ldr	r0, [pc, #328]	; f00015fc <mem_preload_tlb_nommu+0x1c>
f00014b0:	e5901000 	ldr	r1, [r0]
f00014b4:	e59f0144 	ldr	r0, [pc, #324]	; f0001600 <mem_preload_tlb_nommu+0x20>
f00014b8:	e5901000 	ldr	r1, [r0]
f00014bc:	e59f0140 	ldr	r0, [pc, #320]	; f0001604 <mem_preload_tlb_nommu+0x24>
f00014c0:	e5901000 	ldr	r1, [r0]
f00014c4:	e59f013c 	ldr	r0, [pc, #316]	; f0001608 <mem_preload_tlb_nommu+0x28>
f00014c8:	e5901000 	ldr	r1, [r0]
f00014cc:	e59f0138 	ldr	r0, [pc, #312]	; f000160c <mem_preload_tlb_nommu+0x2c>
f00014d0:	e5901000 	ldr	r1, [r0]
f00014d4:	e59f0134 	ldr	r0, [pc, #308]	; f0001610 <mem_preload_tlb_nommu+0x30>
f00014d8:	e5901000 	ldr	r1, [r0]
f00014dc:	e59f0130 	ldr	r0, [pc, #304]	; f0001614 <mem_preload_tlb_nommu+0x34>
f00014e0:	e5901000 	ldr	r1, [r0]
f00014e4:	e59f012c 	ldr	r0, [pc, #300]	; f0001618 <mem_preload_tlb_nommu+0x38>
f00014e8:	e5901000 	ldr	r1, [r0]
f00014ec:	e59f0128 	ldr	r0, [pc, #296]	; f000161c <mem_preload_tlb_nommu+0x3c>
f00014f0:	e5901000 	ldr	r1, [r0]
f00014f4:	e59f0124 	ldr	r0, [pc, #292]	; f0001620 <mem_preload_tlb_nommu+0x40>
f00014f8:	e5901000 	ldr	r1, [r0]
f00014fc:	e59f0120 	ldr	r0, [pc, #288]	; f0001624 <mem_preload_tlb_nommu+0x44>
f0001500:	e5901000 	ldr	r1, [r0]
f0001504:	e59f011c 	ldr	r0, [pc, #284]	; f0001628 <mem_preload_tlb_nommu+0x48>
f0001508:	e5901000 	ldr	r1, [r0]
f000150c:	e59f0118 	ldr	r0, [pc, #280]	; f000162c <mem_preload_tlb_nommu+0x4c>
f0001510:	e5901000 	ldr	r1, [r0]
f0001514:	e59f0114 	ldr	r0, [pc, #276]	; f0001630 <mem_preload_tlb_nommu+0x50>
f0001518:	e5901000 	ldr	r1, [r0]
f000151c:	f57ff04f 	dsb	sy
f0001520:	f57ff06f 	isb	sy
f0001524:	e8bd000f 	pop	{r0, r1, r2, r3}
f0001528:	e1a0f00e 	mov	pc, lr

f000152c <disable_mmu>:
f000152c:	ee111f10 	mrc	15, 0, r1, cr1, cr0, {0}
f0001530:	e3c11a01 	bic	r1, r1, #4096	; 0x1000
f0001534:	e3c11005 	bic	r1, r1, #5
f0001538:	ea000000 	b	f0001540 <__turn_mmu_off>
f000153c:	e320f000 	nop	{0}

f0001540 <__turn_mmu_off>:
f0001540:	ee011f10 	mcr	15, 0, r1, cr1, cr0, {0}
f0001544:	ee103f10 	mrc	15, 0, r3, cr0, cr0, {0}
f0001548:	e1a03003 	mov	r3, r3
f000154c:	e1a03003 	mov	r3, r3
f0001550:	e1a0f00e 	mov	pc, lr

f0001554 <enable_mmu>:
f0001554:	ee111f10 	mrc	15, 0, r1, cr1, cr0, {0}
f0001558:	e3811a01 	orr	r1, r1, #4096	; 0x1000
f000155c:	e3811005 	orr	r1, r1, #5
f0001560:	ea000006 	b	f0001580 <__turn_mmu_on>
f0001564:	e320f000 	nop	{0}
f0001568:	e320f000 	nop	{0}
f000156c:	e320f000 	nop	{0}
f0001570:	e320f000 	nop	{0}
f0001574:	e320f000 	nop	{0}
f0001578:	e320f000 	nop	{0}
f000157c:	e320f000 	nop	{0}

f0001580 <__turn_mmu_on>:
f0001580:	ee011f10 	mcr	15, 0, r1, cr1, cr0, {0}
f0001584:	ee103f10 	mrc	15, 0, r3, cr0, cr0, {0}
f0001588:	e1a03003 	mov	r3, r3
f000158c:	e1a03003 	mov	r3, r3
f0001590:	e1a0f00e 	mov	pc, lr

f0001594 <jump_to_suspend>:
f0001594:	ee020f10 	mcr	15, 0, r0, cr2, cr0, {0}
f0001598:	ebffffb7 	bl	f000147c <mem_flush_tlb>
f000159c:	f57ff04f 	dsb	sy
f00015a0:	f57ff06f 	isb	sy
f00015a4:	e1a0f001 	mov	pc, r1
f00015a8:	e320f000 	nop	{0}
f00015ac:	e320f000 	nop	{0}

f00015b0 <jump_to_resume>:
f00015b0:	e1a0c000 	mov	ip, r0
f00015b4:	e1a08001 	mov	r8, r1
f00015b8:	ebffff14 	bl	f0001210 <invalidate_dcache>
f00015bc:	e1a01008 	mov	r1, r8
f00015c0:	e1a0e00c 	mov	lr, ip
f00015c4:	e8913fff 	ldm	r1, {r0, r1, r2, r3, r4, r5, r6, r7, r8, r9, sl, fp, ip, sp}
f00015c8:	e1a0f00e 	mov	pc, lr
f00015cc:	e320f000 	nop	{0}

f00015d0 <jump_to_resume0>:
f00015d0:	e1a0e000 	mov	lr, r0
f00015d4:	e1a0f00e 	mov	pc, lr
f00015d8:	e320f000 	nop	{0}
f00015dc:	e320f000 	nop	{0}

f00015e0 <mem_preload_tlb_nommu>:
f00015e0:	e92d000f 	push	{r0, r1, r2, r3}
f00015e4:	e8bd000f 	pop	{r0, r1, r2, r3}
f00015e8:	e1a0f00e 	mov	pc, lr
f00015ec:	f000b3fc 			; <UNDEFINED> instruction: 0xf000b3fc
f00015f0:	0000b3fc 	strdeq	fp, [r0], -ip
f00015f4:	000003ff 	strdeq	r0, [r0], -pc	; <UNPREDICTABLE>
f00015f8:	00007fff 	strdeq	r7, [r0], -pc	; <UNPREDICTABLE>
f00015fc:	f0001000 			; <UNDEFINED> instruction: 0xf0001000
f0001600:	f0002000 			; <UNDEFINED> instruction: 0xf0002000
f0001604:	f0003000 			; <UNDEFINED> instruction: 0xf0003000
f0001608:	f0004000 			; <UNDEFINED> instruction: 0xf0004000
f000160c:	f0005000 			; <UNDEFINED> instruction: 0xf0005000
f0001610:	f0006000 			; <UNDEFINED> instruction: 0xf0006000
f0001614:	f0007000 			; <UNDEFINED> instruction: 0xf0007000
f0001618:	f0008000 			; <UNDEFINED> instruction: 0xf0008000
f000161c:	f0009000 			; <UNDEFINED> instruction: 0xf0009000
f0001620:	f000a000 			; <UNDEFINED> instruction: 0xf000a000
f0001624:	f000b000 			; <UNDEFINED> instruction: 0xf000b000
f0001628:	f1c20800 			; <UNDEFINED> instruction: 0xf1c20800
f000162c:	f1c28000 			; <UNDEFINED> instruction: 0xf1c28000
f0001630:	f1c20c00 			; <UNDEFINED> instruction: 0xf1c20c00
f0001634:	e320f000 	nop	{0}
f0001638:	e320f000 	nop	{0}
f000163c:	e320f000 	nop	{0}

f0001640 <mctl_ddr3_reset>:
f0001640:	e92d4800 	push	{fp, lr}
f0001644:	e28db004 	add	fp, sp, #4
f0001648:	e24dd008 	sub	sp, sp, #8
f000164c:	e3013230 	movw	r3, #4656	; 0x1230
f0001650:	e34f31c0 	movt	r3, #61888	; 0xf1c0
f0001654:	e5933000 	ldr	r3, [r3]
f0001658:	e50b3008 	str	r3, [fp, #-8]
f000165c:	e51b3008 	ldr	r3, [fp, #-8]
f0001660:	e3c33a01 	bic	r3, r3, #4096	; 0x1000
f0001664:	e50b3008 	str	r3, [fp, #-8]
f0001668:	e3013230 	movw	r3, #4656	; 0x1230
f000166c:	e34f31c0 	movt	r3, #61888	; 0xf1c0
f0001670:	e51b2008 	ldr	r2, [fp, #-8]
f0001674:	e5832000 	str	r2, [r3]
f0001678:	e3a00c01 	mov	r0, #256	; 0x100
f000167c:	ebfffe44 	bl	f0000f94 <mem_delay>
f0001680:	e3013230 	movw	r3, #4656	; 0x1230
f0001684:	e34f31c0 	movt	r3, #61888	; 0xf1c0
f0001688:	e5933000 	ldr	r3, [r3]
f000168c:	e50b3008 	str	r3, [fp, #-8]
f0001690:	e51b3008 	ldr	r3, [fp, #-8]
f0001694:	e3833a01 	orr	r3, r3, #4096	; 0x1000
f0001698:	e50b3008 	str	r3, [fp, #-8]
f000169c:	e3013230 	movw	r3, #4656	; 0x1230
f00016a0:	e34f31c0 	movt	r3, #61888	; 0xf1c0
f00016a4:	e51b2008 	ldr	r2, [fp, #-8]
f00016a8:	e5832000 	str	r2, [r3]
f00016ac:	e24bd004 	sub	sp, fp, #4
f00016b0:	e8bd8800 	pop	{fp, pc}

f00016b4 <mctl_set_drive>:
f00016b4:	e52db004 	push	{fp}		; (str fp, [sp, #-4]!)
f00016b8:	e28db000 	add	fp, sp, #0
f00016bc:	e24dd00c 	sub	sp, sp, #12
f00016c0:	e3013230 	movw	r3, #4656	; 0x1230
f00016c4:	e34f31c0 	movt	r3, #61888	; 0xf1c0
f00016c8:	e5933000 	ldr	r3, [r3]
f00016cc:	e50b3008 	str	r3, [fp, #-8]
f00016d0:	e51b3008 	ldr	r3, [fp, #-8]
f00016d4:	e3833a06 	orr	r3, r3, #24576	; 0x6000
f00016d8:	e50b3008 	str	r3, [fp, #-8]
f00016dc:	e51b3008 	ldr	r3, [fp, #-8]
f00016e0:	e3833eff 	orr	r3, r3, #4080	; 0xff0
f00016e4:	e383300c 	orr	r3, r3, #12
f00016e8:	e50b3008 	str	r3, [fp, #-8]
f00016ec:	e51b3008 	ldr	r3, [fp, #-8]
f00016f0:	e3c33003 	bic	r3, r3, #3
f00016f4:	e50b3008 	str	r3, [fp, #-8]
f00016f8:	e51b3008 	ldr	r3, [fp, #-8]
f00016fc:	e3c33203 	bic	r3, r3, #805306368	; 0x30000000
f0001700:	e50b3008 	str	r3, [fp, #-8]
f0001704:	e3013230 	movw	r3, #4656	; 0x1230
f0001708:	e34f31c0 	movt	r3, #61888	; 0xf1c0
f000170c:	e51b2008 	ldr	r2, [fp, #-8]
f0001710:	e5832000 	str	r2, [r3]
f0001714:	e28bd000 	add	sp, fp, #0
f0001718:	e8bd0800 	pop	{fp}
f000171c:	e12fff1e 	bx	lr

f0001720 <mctl_itm_disable>:
f0001720:	e52db004 	push	{fp}		; (str fp, [sp, #-4]!)
f0001724:	e28db000 	add	fp, sp, #0
f0001728:	e24dd00c 	sub	sp, sp, #12
f000172c:	e3a03000 	mov	r3, #0
f0001730:	e50b3008 	str	r3, [fp, #-8]
f0001734:	e3a03a01 	mov	r3, #4096	; 0x1000
f0001738:	e34f31c0 	movt	r3, #61888	; 0xf1c0
f000173c:	e5933000 	ldr	r3, [r3]
f0001740:	e50b3008 	str	r3, [fp, #-8]
f0001744:	e51b3008 	ldr	r3, [fp, #-8]
f0001748:	e3833201 	orr	r3, r3, #268435456	; 0x10000000
f000174c:	e50b3008 	str	r3, [fp, #-8]
f0001750:	e51b3008 	ldr	r3, [fp, #-8]
f0001754:	e3c33102 	bic	r3, r3, #-2147483648	; 0x80000000
f0001758:	e50b3008 	str	r3, [fp, #-8]
f000175c:	e3a03a01 	mov	r3, #4096	; 0x1000
f0001760:	e34f31c0 	movt	r3, #61888	; 0xf1c0
f0001764:	e51b2008 	ldr	r2, [fp, #-8]
f0001768:	e5832000 	str	r2, [r3]
f000176c:	e28bd000 	add	sp, fp, #0
f0001770:	e8bd0800 	pop	{fp}
f0001774:	e12fff1e 	bx	lr

f0001778 <mctl_itm_enable>:
f0001778:	e52db004 	push	{fp}		; (str fp, [sp, #-4]!)
f000177c:	e28db000 	add	fp, sp, #0
f0001780:	e24dd00c 	sub	sp, sp, #12
f0001784:	e3a03000 	mov	r3, #0
f0001788:	e50b3008 	str	r3, [fp, #-8]
f000178c:	e3a03a01 	mov	r3, #4096	; 0x1000
f0001790:	e34f31c0 	movt	r3, #61888	; 0xf1c0
f0001794:	e5933000 	ldr	r3, [r3]
f0001798:	e50b3008 	str	r3, [fp, #-8]
f000179c:	e51b3008 	ldr	r3, [fp, #-8]
f00017a0:	e3c33201 	bic	r3, r3, #268435456	; 0x10000000
f00017a4:	e50b3008 	str	r3, [fp, #-8]
f00017a8:	e3a03a01 	mov	r3, #4096	; 0x1000
f00017ac:	e34f31c0 	movt	r3, #61888	; 0xf1c0
f00017b0:	e51b2008 	ldr	r2, [fp, #-8]
f00017b4:	e5832000 	str	r2, [r3]
f00017b8:	e28bd000 	add	sp, fp, #0
f00017bc:	e8bd0800 	pop	{fp}
f00017c0:	e12fff1e 	bx	lr

f00017c4 <mctl_enable_dll0>:
f00017c4:	e92d4800 	push	{fp, lr}
f00017c8:	e28db004 	add	fp, sp, #4
f00017cc:	e24dd008 	sub	sp, sp, #8
f00017d0:	e50b0008 	str	r0, [fp, #-8]
f00017d4:	e3013204 	movw	r3, #4612	; 0x1204
f00017d8:	e34f31c0 	movt	r3, #61888	; 0xf1c0
f00017dc:	e3012204 	movw	r2, #4612	; 0x1204
f00017e0:	e34f21c0 	movt	r2, #61888	; 0xf1c0
f00017e4:	e5922000 	ldr	r2, [r2]
f00017e8:	e3c21d3f 	bic	r1, r2, #4032	; 0xfc0
f00017ec:	e51b2008 	ldr	r2, [fp, #-8]
f00017f0:	e1a02822 	lsr	r2, r2, #16
f00017f4:	e202203f 	and	r2, r2, #63	; 0x3f
f00017f8:	e1a02302 	lsl	r2, r2, #6
f00017fc:	e1812002 	orr	r2, r1, r2
f0001800:	e5832000 	str	r2, [r3]
f0001804:	e3013204 	movw	r3, #4612	; 0x1204
f0001808:	e34f31c0 	movt	r3, #61888	; 0xf1c0
f000180c:	e3012204 	movw	r2, #4612	; 0x1204
f0001810:	e34f21c0 	movt	r2, #61888	; 0xf1c0
f0001814:	e5922000 	ldr	r2, [r2]
f0001818:	e3c22103 	bic	r2, r2, #-1073741824	; 0xc0000000
f000181c:	e3822102 	orr	r2, r2, #-2147483648	; 0x80000000
f0001820:	e5832000 	str	r2, [r3]
f0001824:	e3a0000a 	mov	r0, #10
f0001828:	ebfffe2c 	bl	f00010e0 <delay_us>
f000182c:	e3013204 	movw	r3, #4612	; 0x1204
f0001830:	e34f31c0 	movt	r3, #61888	; 0xf1c0
f0001834:	e3012204 	movw	r2, #4612	; 0x1204
f0001838:	e34f21c0 	movt	r2, #61888	; 0xf1c0
f000183c:	e5922000 	ldr	r2, [r2]
f0001840:	e3c22103 	bic	r2, r2, #-1073741824	; 0xc0000000
f0001844:	e5832000 	str	r2, [r3]
f0001848:	e3a0000a 	mov	r0, #10
f000184c:	ebfffe23 	bl	f00010e0 <delay_us>
f0001850:	e3013204 	movw	r3, #4612	; 0x1204
f0001854:	e34f31c0 	movt	r3, #61888	; 0xf1c0
f0001858:	e3012204 	movw	r2, #4612	; 0x1204
f000185c:	e34f21c0 	movt	r2, #61888	; 0xf1c0
f0001860:	e5922000 	ldr	r2, [r2]
f0001864:	e3c22103 	bic	r2, r2, #-1073741824	; 0xc0000000
f0001868:	e3822101 	orr	r2, r2, #1073741824	; 0x40000000
f000186c:	e5832000 	str	r2, [r3]
f0001870:	e3a00064 	mov	r0, #100	; 0x64
f0001874:	ebfffe19 	bl	f00010e0 <delay_us>
f0001878:	e24bd004 	sub	sp, fp, #4
f000187c:	e8bd8800 	pop	{fp, pc}

f0001880 <mctl_enable_dllx>:
f0001880:	e92d4800 	push	{fp, lr}
f0001884:	e28db004 	add	fp, sp, #4
f0001888:	e24dd018 	sub	sp, sp, #24
f000188c:	e50b0018 	str	r0, [fp, #-24]
f0001890:	e3a03000 	mov	r3, #0
f0001894:	e50b3008 	str	r3, [fp, #-8]
f0001898:	e51b3018 	ldr	r3, [fp, #-24]
f000189c:	e50b3010 	str	r3, [fp, #-16]
f00018a0:	e3013004 	movw	r3, #4100	; 0x1004
f00018a4:	e34f31c0 	movt	r3, #61888	; 0xf1c0
f00018a8:	e5933000 	ldr	r3, [r3]
f00018ac:	e50b3014 	str	r3, [fp, #-20]
f00018b0:	e51b3014 	ldr	r3, [fp, #-20]
f00018b4:	e1a03323 	lsr	r3, r3, #6
f00018b8:	e50b3014 	str	r3, [fp, #-20]
f00018bc:	e51b3014 	ldr	r3, [fp, #-20]
f00018c0:	e2033007 	and	r3, r3, #7
f00018c4:	e50b3014 	str	r3, [fp, #-20]
f00018c8:	e51b3014 	ldr	r3, [fp, #-20]
f00018cc:	e3530003 	cmp	r3, #3
f00018d0:	1a000002 	bne	f00018e0 <mctl_enable_dllx+0x60>
f00018d4:	e3a03005 	mov	r3, #5
f00018d8:	e50b300c 	str	r3, [fp, #-12]
f00018dc:	ea000001 	b	f00018e8 <mctl_enable_dllx+0x68>
f00018e0:	e3a03003 	mov	r3, #3
f00018e4:	e50b300c 	str	r3, [fp, #-12]
f00018e8:	e3a03001 	mov	r3, #1
f00018ec:	e50b3008 	str	r3, [fp, #-8]
f00018f0:	ea000026 	b	f0001990 <mctl_enable_dllx+0x110>
f00018f4:	e51b3008 	ldr	r3, [fp, #-8]
f00018f8:	e1a02103 	lsl	r2, r3, #2
f00018fc:	e3013204 	movw	r3, #4612	; 0x1204
f0001900:	e34f31c0 	movt	r3, #61888	; 0xf1c0
f0001904:	e0823003 	add	r3, r2, r3
f0001908:	e1a02003 	mov	r2, r3
f000190c:	e51b3008 	ldr	r3, [fp, #-8]
f0001910:	e1a01103 	lsl	r1, r3, #2
f0001914:	e3013204 	movw	r3, #4612	; 0x1204
f0001918:	e34f31c0 	movt	r3, #61888	; 0xf1c0
f000191c:	e0813003 	add	r3, r1, r3
f0001920:	e5933000 	ldr	r3, [r3]
f0001924:	e3c3190f 	bic	r1, r3, #245760	; 0x3c000
f0001928:	e51b3010 	ldr	r3, [fp, #-16]
f000192c:	e203300f 	and	r3, r3, #15
f0001930:	e1a03703 	lsl	r3, r3, #14
f0001934:	e1813003 	orr	r3, r1, r3
f0001938:	e5823000 	str	r3, [r2]
f000193c:	e51b3008 	ldr	r3, [fp, #-8]
f0001940:	e1a02103 	lsl	r2, r3, #2
f0001944:	e3013204 	movw	r3, #4612	; 0x1204
f0001948:	e34f31c0 	movt	r3, #61888	; 0xf1c0
f000194c:	e0823003 	add	r3, r2, r3
f0001950:	e1a02003 	mov	r2, r3
f0001954:	e51b3008 	ldr	r3, [fp, #-8]
f0001958:	e1a01103 	lsl	r1, r3, #2
f000195c:	e3013204 	movw	r3, #4612	; 0x1204
f0001960:	e34f31c0 	movt	r3, #61888	; 0xf1c0
f0001964:	e0813003 	add	r3, r1, r3
f0001968:	e5933000 	ldr	r3, [r3]
f000196c:	e3c33103 	bic	r3, r3, #-1073741824	; 0xc0000000
f0001970:	e3833102 	orr	r3, r3, #-2147483648	; 0x80000000
f0001974:	e5823000 	str	r3, [r2]
f0001978:	e51b3010 	ldr	r3, [fp, #-16]
f000197c:	e1a03223 	lsr	r3, r3, #4
f0001980:	e50b3010 	str	r3, [fp, #-16]
f0001984:	e51b3008 	ldr	r3, [fp, #-8]
f0001988:	e2833001 	add	r3, r3, #1
f000198c:	e50b3008 	str	r3, [fp, #-8]
f0001990:	e51b2008 	ldr	r2, [fp, #-8]
f0001994:	e51b300c 	ldr	r3, [fp, #-12]
f0001998:	e1520003 	cmp	r2, r3
f000199c:	3affffd4 	bcc	f00018f4 <mctl_enable_dllx+0x74>
f00019a0:	e3a0000a 	mov	r0, #10
f00019a4:	ebfffdcd 	bl	f00010e0 <delay_us>
f00019a8:	e3a03001 	mov	r3, #1
f00019ac:	e50b3008 	str	r3, [fp, #-8]
f00019b0:	ea000010 	b	f00019f8 <mctl_enable_dllx+0x178>
f00019b4:	e51b3008 	ldr	r3, [fp, #-8]
f00019b8:	e1a02103 	lsl	r2, r3, #2
f00019bc:	e3013204 	movw	r3, #4612	; 0x1204
f00019c0:	e34f31c0 	movt	r3, #61888	; 0xf1c0
f00019c4:	e0823003 	add	r3, r2, r3
f00019c8:	e1a02003 	mov	r2, r3
f00019cc:	e51b3008 	ldr	r3, [fp, #-8]
f00019d0:	e1a01103 	lsl	r1, r3, #2
f00019d4:	e3013204 	movw	r3, #4612	; 0x1204
f00019d8:	e34f31c0 	movt	r3, #61888	; 0xf1c0
f00019dc:	e0813003 	add	r3, r1, r3
f00019e0:	e5933000 	ldr	r3, [r3]
f00019e4:	e3c33103 	bic	r3, r3, #-1073741824	; 0xc0000000
f00019e8:	e5823000 	str	r3, [r2]
f00019ec:	e51b3008 	ldr	r3, [fp, #-8]
f00019f0:	e2833001 	add	r3, r3, #1
f00019f4:	e50b3008 	str	r3, [fp, #-8]
f00019f8:	e51b2008 	ldr	r2, [fp, #-8]
f00019fc:	e51b300c 	ldr	r3, [fp, #-12]
f0001a00:	e1520003 	cmp	r2, r3
f0001a04:	3affffea 	bcc	f00019b4 <mctl_enable_dllx+0x134>
f0001a08:	e3a0000a 	mov	r0, #10
f0001a0c:	ebfffdb3 	bl	f00010e0 <delay_us>
f0001a10:	e3a03001 	mov	r3, #1
f0001a14:	e50b3008 	str	r3, [fp, #-8]
f0001a18:	ea000011 	b	f0001a64 <mctl_enable_dllx+0x1e4>
f0001a1c:	e51b3008 	ldr	r3, [fp, #-8]
f0001a20:	e1a02103 	lsl	r2, r3, #2
f0001a24:	e3013204 	movw	r3, #4612	; 0x1204
f0001a28:	e34f31c0 	movt	r3, #61888	; 0xf1c0
f0001a2c:	e0823003 	add	r3, r2, r3
f0001a30:	e1a02003 	mov	r2, r3
f0001a34:	e51b3008 	ldr	r3, [fp, #-8]
f0001a38:	e1a01103 	lsl	r1, r3, #2
f0001a3c:	e3013204 	movw	r3, #4612	; 0x1204
f0001a40:	e34f31c0 	movt	r3, #61888	; 0xf1c0
f0001a44:	e0813003 	add	r3, r1, r3
f0001a48:	e5933000 	ldr	r3, [r3]
f0001a4c:	e3c33103 	bic	r3, r3, #-1073741824	; 0xc0000000
f0001a50:	e3833101 	orr	r3, r3, #1073741824	; 0x40000000
f0001a54:	e5823000 	str	r3, [r2]
f0001a58:	e51b3008 	ldr	r3, [fp, #-8]
f0001a5c:	e2833001 	add	r3, r3, #1
f0001a60:	e50b3008 	str	r3, [fp, #-8]
f0001a64:	e51b2008 	ldr	r2, [fp, #-8]
f0001a68:	e51b300c 	ldr	r3, [fp, #-12]
f0001a6c:	e1520003 	cmp	r2, r3
f0001a70:	3affffe9 	bcc	f0001a1c <mctl_enable_dllx+0x19c>
f0001a74:	e3a00064 	mov	r0, #100	; 0x64
f0001a78:	ebfffd98 	bl	f00010e0 <delay_us>
f0001a7c:	e24bd004 	sub	sp, fp, #4
f0001a80:	e8bd8800 	pop	{fp, pc}

f0001a84 <mctl_disable_dll>:
f0001a84:	e52db004 	push	{fp}		; (str fp, [sp, #-4]!)
f0001a88:	e28db000 	add	fp, sp, #0
f0001a8c:	e24dd00c 	sub	sp, sp, #12
f0001a90:	e3013204 	movw	r3, #4612	; 0x1204
f0001a94:	e34f31c0 	movt	r3, #61888	; 0xf1c0
f0001a98:	e5933000 	ldr	r3, [r3]
f0001a9c:	e50b3008 	str	r3, [fp, #-8]
f0001aa0:	e51b3008 	ldr	r3, [fp, #-8]
f0001aa4:	e3c33101 	bic	r3, r3, #1073741824	; 0x40000000
f0001aa8:	e50b3008 	str	r3, [fp, #-8]
f0001aac:	e51b3008 	ldr	r3, [fp, #-8]
f0001ab0:	e3833102 	orr	r3, r3, #-2147483648	; 0x80000000
f0001ab4:	e50b3008 	str	r3, [fp, #-8]
f0001ab8:	e3013204 	movw	r3, #4612	; 0x1204
f0001abc:	e34f31c0 	movt	r3, #61888	; 0xf1c0
f0001ac0:	e51b2008 	ldr	r2, [fp, #-8]
f0001ac4:	e5832000 	str	r2, [r3]
f0001ac8:	e3013208 	movw	r3, #4616	; 0x1208
f0001acc:	e34f31c0 	movt	r3, #61888	; 0xf1c0
f0001ad0:	e5933000 	ldr	r3, [r3]
f0001ad4:	e50b3008 	str	r3, [fp, #-8]
f0001ad8:	e51b3008 	ldr	r3, [fp, #-8]
f0001adc:	e3c33101 	bic	r3, r3, #1073741824	; 0x40000000
f0001ae0:	e50b3008 	str	r3, [fp, #-8]
f0001ae4:	e51b3008 	ldr	r3, [fp, #-8]
f0001ae8:	e3833102 	orr	r3, r3, #-2147483648	; 0x80000000
f0001aec:	e50b3008 	str	r3, [fp, #-8]
f0001af0:	e3013208 	movw	r3, #4616	; 0x1208
f0001af4:	e34f31c0 	movt	r3, #61888	; 0xf1c0
f0001af8:	e51b2008 	ldr	r2, [fp, #-8]
f0001afc:	e5832000 	str	r2, [r3]
f0001b00:	e301320c 	movw	r3, #4620	; 0x120c
f0001b04:	e34f31c0 	movt	r3, #61888	; 0xf1c0
f0001b08:	e5933000 	ldr	r3, [r3]
f0001b0c:	e50b3008 	str	r3, [fp, #-8]
f0001b10:	e51b3008 	ldr	r3, [fp, #-8]
f0001b14:	e3c33101 	bic	r3, r3, #1073741824	; 0x40000000
f0001b18:	e50b3008 	str	r3, [fp, #-8]
f0001b1c:	e51b3008 	ldr	r3, [fp, #-8]
f0001b20:	e3833102 	orr	r3, r3, #-2147483648	; 0x80000000
f0001b24:	e50b3008 	str	r3, [fp, #-8]
f0001b28:	e301320c 	movw	r3, #4620	; 0x120c
f0001b2c:	e34f31c0 	movt	r3, #61888	; 0xf1c0
f0001b30:	e51b2008 	ldr	r2, [fp, #-8]
f0001b34:	e5832000 	str	r2, [r3]
f0001b38:	e3013210 	movw	r3, #4624	; 0x1210
f0001b3c:	e34f31c0 	movt	r3, #61888	; 0xf1c0
f0001b40:	e5933000 	ldr	r3, [r3]
f0001b44:	e50b3008 	str	r3, [fp, #-8]
f0001b48:	e51b3008 	ldr	r3, [fp, #-8]
f0001b4c:	e3c33101 	bic	r3, r3, #1073741824	; 0x40000000
f0001b50:	e50b3008 	str	r3, [fp, #-8]
f0001b54:	e51b3008 	ldr	r3, [fp, #-8]
f0001b58:	e3833102 	orr	r3, r3, #-2147483648	; 0x80000000
f0001b5c:	e50b3008 	str	r3, [fp, #-8]
f0001b60:	e3013210 	movw	r3, #4624	; 0x1210
f0001b64:	e34f31c0 	movt	r3, #61888	; 0xf1c0
f0001b68:	e51b2008 	ldr	r2, [fp, #-8]
f0001b6c:	e5832000 	str	r2, [r3]
f0001b70:	e3013214 	movw	r3, #4628	; 0x1214
f0001b74:	e34f31c0 	movt	r3, #61888	; 0xf1c0
f0001b78:	e5933000 	ldr	r3, [r3]
f0001b7c:	e50b3008 	str	r3, [fp, #-8]
f0001b80:	e51b3008 	ldr	r3, [fp, #-8]
f0001b84:	e3c33101 	bic	r3, r3, #1073741824	; 0x40000000
f0001b88:	e50b3008 	str	r3, [fp, #-8]
f0001b8c:	e51b3008 	ldr	r3, [fp, #-8]
f0001b90:	e3833102 	orr	r3, r3, #-2147483648	; 0x80000000
f0001b94:	e50b3008 	str	r3, [fp, #-8]
f0001b98:	e3013214 	movw	r3, #4628	; 0x1214
f0001b9c:	e34f31c0 	movt	r3, #61888	; 0xf1c0
f0001ba0:	e51b2008 	ldr	r2, [fp, #-8]
f0001ba4:	e5832000 	str	r2, [r3]
f0001ba8:	e28bd000 	add	sp, fp, #0
f0001bac:	e8bd0800 	pop	{fp}
f0001bb0:	e12fff1e 	bx	lr

f0001bb4 <mctl_configure_hostport>:
f0001bb4:	e52db004 	push	{fp}		; (str fp, [sp, #-4]!)
f0001bb8:	e28db000 	add	fp, sp, #0
f0001bbc:	e24dd00c 	sub	sp, sp, #12
f0001bc0:	e3a03000 	mov	r3, #0
f0001bc4:	e50b3008 	str	r3, [fp, #-8]
f0001bc8:	ea00000d 	b	f0001c04 <mctl_configure_hostport+0x50>
f0001bcc:	e51b3008 	ldr	r3, [fp, #-8]
f0001bd0:	e1a02103 	lsl	r2, r3, #2
f0001bd4:	e3013250 	movw	r3, #4688	; 0x1250
f0001bd8:	e34f31c0 	movt	r3, #61888	; 0xf1c0
f0001bdc:	e0823003 	add	r3, r2, r3
f0001be0:	e1a02003 	mov	r2, r3
f0001be4:	e3033090 	movw	r3, #12432	; 0x3090
f0001be8:	e34f3000 	movt	r3, #61440	; 0xf000
f0001bec:	e51b1008 	ldr	r1, [fp, #-8]
f0001bf0:	e7933101 	ldr	r3, [r3, r1, lsl #2]
f0001bf4:	e5823000 	str	r3, [r2]
f0001bf8:	e51b3008 	ldr	r3, [fp, #-8]
f0001bfc:	e2833001 	add	r3, r3, #1
f0001c00:	e50b3008 	str	r3, [fp, #-8]
f0001c04:	e51b3008 	ldr	r3, [fp, #-8]
f0001c08:	e3530007 	cmp	r3, #7
f0001c0c:	9affffee 	bls	f0001bcc <mctl_configure_hostport+0x18>
f0001c10:	e3a03010 	mov	r3, #16
f0001c14:	e50b3008 	str	r3, [fp, #-8]
f0001c18:	ea00000d 	b	f0001c54 <mctl_configure_hostport+0xa0>
f0001c1c:	e51b3008 	ldr	r3, [fp, #-8]
f0001c20:	e1a02103 	lsl	r2, r3, #2
f0001c24:	e3013250 	movw	r3, #4688	; 0x1250
f0001c28:	e34f31c0 	movt	r3, #61888	; 0xf1c0
f0001c2c:	e0823003 	add	r3, r2, r3
f0001c30:	e1a02003 	mov	r2, r3
f0001c34:	e3033090 	movw	r3, #12432	; 0x3090
f0001c38:	e34f3000 	movt	r3, #61440	; 0xf000
f0001c3c:	e51b1008 	ldr	r1, [fp, #-8]
f0001c40:	e7933101 	ldr	r3, [r3, r1, lsl #2]
f0001c44:	e5823000 	str	r3, [r2]
f0001c48:	e51b3008 	ldr	r3, [fp, #-8]
f0001c4c:	e2833001 	add	r3, r3, #1
f0001c50:	e50b3008 	str	r3, [fp, #-8]
f0001c54:	e51b3008 	ldr	r3, [fp, #-8]
f0001c58:	e353001b 	cmp	r3, #27
f0001c5c:	9affffee 	bls	f0001c1c <mctl_configure_hostport+0x68>
f0001c60:	e30132c4 	movw	r3, #4804	; 0x12c4
f0001c64:	e34f31c0 	movt	r3, #61888	; 0xf1c0
f0001c68:	e3032090 	movw	r2, #12432	; 0x3090
f0001c6c:	e34f2000 	movt	r2, #61440	; 0xf000
f0001c70:	e51b1008 	ldr	r1, [fp, #-8]
f0001c74:	e7922101 	ldr	r2, [r2, r1, lsl #2]
f0001c78:	e5832000 	str	r2, [r3]
f0001c7c:	e30132cc 	movw	r3, #4812	; 0x12cc
f0001c80:	e34f31c0 	movt	r3, #61888	; 0xf1c0
f0001c84:	e3032090 	movw	r2, #12432	; 0x3090
f0001c88:	e34f2000 	movt	r2, #61440	; 0xf000
f0001c8c:	e51b1008 	ldr	r1, [fp, #-8]
f0001c90:	e7922101 	ldr	r2, [r2, r1, lsl #2]
f0001c94:	e5832000 	str	r2, [r3]
f0001c98:	e28bd000 	add	sp, fp, #0
f0001c9c:	e8bd0800 	pop	{fp}
f0001ca0:	e12fff1e 	bx	lr

f0001ca4 <mctl_setup_dram_clock>:
f0001ca4:	e92d4800 	push	{fp, lr}
f0001ca8:	e28db004 	add	fp, sp, #4
f0001cac:	e24dd010 	sub	sp, sp, #16
f0001cb0:	e50b0010 	str	r0, [fp, #-16]
f0001cb4:	e50b1014 	str	r1, [fp, #-20]
f0001cb8:	e51b3014 	ldr	r3, [fp, #-20]
f0001cbc:	e3530000 	cmp	r3, #0
f0001cc0:	0a000018 	beq	f0001d28 <mctl_setup_dram_clock+0x84>
f0001cc4:	e3a03000 	mov	r3, #0
f0001cc8:	e50b3008 	str	r3, [fp, #-8]
f0001ccc:	e51b3008 	ldr	r3, [fp, #-8]
f0001cd0:	e3833c33 	orr	r3, r3, #13056	; 0x3300
f0001cd4:	e3833033 	orr	r3, r3, #51	; 0x33
f0001cd8:	e50b3008 	str	r3, [fp, #-8]
f0001cdc:	e51b3008 	ldr	r3, [fp, #-8]
f0001ce0:	e3833411 	orr	r3, r3, #285212672	; 0x11000000
f0001ce4:	e3833603 	orr	r3, r3, #3145728	; 0x300000
f0001ce8:	e50b3008 	str	r3, [fp, #-8]
f0001cec:	e51b3008 	ldr	r3, [fp, #-8]
f0001cf0:	e3833101 	orr	r3, r3, #1073741824	; 0x40000000
f0001cf4:	e50b3008 	str	r3, [fp, #-8]
f0001cf8:	e3a0303c 	mov	r3, #60	; 0x3c
f0001cfc:	e34f31c2 	movt	r3, #61890	; 0xf1c2
f0001d00:	e51b2008 	ldr	r2, [fp, #-8]
f0001d04:	e5832000 	str	r2, [r3]
f0001d08:	e51b3008 	ldr	r3, [fp, #-8]
f0001d0c:	e3833102 	orr	r3, r3, #-2147483648	; 0x80000000
f0001d10:	e50b3008 	str	r3, [fp, #-8]
f0001d14:	e3a0303c 	mov	r3, #60	; 0x3c
f0001d18:	e34f31c2 	movt	r3, #61890	; 0xf1c2
f0001d1c:	e51b2008 	ldr	r2, [fp, #-8]
f0001d20:	e5832000 	str	r2, [r3]
f0001d24:	ea000003 	b	f0001d38 <mctl_setup_dram_clock+0x94>
f0001d28:	e3a0303c 	mov	r3, #60	; 0x3c
f0001d2c:	e34f31c2 	movt	r3, #61890	; 0xf1c2
f0001d30:	e3a02000 	mov	r2, #0
f0001d34:	e5832000 	str	r2, [r3]
f0001d38:	e3a03020 	mov	r3, #32
f0001d3c:	e34f31c2 	movt	r3, #61890	; 0xf1c2
f0001d40:	e5933000 	ldr	r3, [r3]
f0001d44:	e50b3008 	str	r3, [fp, #-8]
f0001d48:	e51b3008 	ldr	r3, [fp, #-8]
f0001d4c:	e3c33102 	bic	r3, r3, #-2147483648	; 0x80000000
f0001d50:	e50b3008 	str	r3, [fp, #-8]
f0001d54:	e3a03020 	mov	r3, #32
f0001d58:	e34f31c2 	movt	r3, #61890	; 0xf1c2
f0001d5c:	e51b2008 	ldr	r2, [fp, #-8]
f0001d60:	e5832000 	str	r2, [r3]
f0001d64:	e3a00014 	mov	r0, #20
f0001d68:	ebfffcdc 	bl	f00010e0 <delay_us>
f0001d6c:	e51b3008 	ldr	r3, [fp, #-8]
f0001d70:	e3c33003 	bic	r3, r3, #3
f0001d74:	e50b3008 	str	r3, [fp, #-8]
f0001d78:	e51b3008 	ldr	r3, [fp, #-8]
f0001d7c:	e3833001 	orr	r3, r3, #1
f0001d80:	e50b3008 	str	r3, [fp, #-8]
f0001d84:	e51b3008 	ldr	r3, [fp, #-8]
f0001d88:	e3c33030 	bic	r3, r3, #48	; 0x30
f0001d8c:	e50b3008 	str	r3, [fp, #-8]
f0001d90:	e51b3008 	ldr	r3, [fp, #-8]
f0001d94:	e3833010 	orr	r3, r3, #16
f0001d98:	e50b3008 	str	r3, [fp, #-8]
f0001d9c:	e51b3008 	ldr	r3, [fp, #-8]
f0001da0:	e3c33c1f 	bic	r3, r3, #7936	; 0x1f00
f0001da4:	e50b3008 	str	r3, [fp, #-8]
f0001da8:	e51b2010 	ldr	r2, [fp, #-16]
f0001dac:	e30a3aab 	movw	r3, #43691	; 0xaaab
f0001db0:	e34a3aaa 	movt	r3, #43690	; 0xaaaa
f0001db4:	e0831293 	umull	r1, r3, r3, r2
f0001db8:	e1a03223 	lsr	r3, r3, #4
f0001dbc:	e203301f 	and	r3, r3, #31
f0001dc0:	e1a03403 	lsl	r3, r3, #8
f0001dc4:	e51b2008 	ldr	r2, [fp, #-8]
f0001dc8:	e1823003 	orr	r3, r2, r3
f0001dcc:	e50b3008 	str	r3, [fp, #-8]
f0001dd0:	e51b3008 	ldr	r3, [fp, #-8]
f0001dd4:	e3c33803 	bic	r3, r3, #196608	; 0x30000
f0001dd8:	e50b3008 	str	r3, [fp, #-8]
f0001ddc:	e51b3008 	ldr	r3, [fp, #-8]
f0001de0:	e3833801 	orr	r3, r3, #65536	; 0x10000
f0001de4:	e50b3008 	str	r3, [fp, #-8]
f0001de8:	e51b3008 	ldr	r3, [fp, #-8]
f0001dec:	e3c33202 	bic	r3, r3, #536870912	; 0x20000000
f0001df0:	e50b3008 	str	r3, [fp, #-8]
f0001df4:	e51b3008 	ldr	r3, [fp, #-8]
f0001df8:	e3833102 	orr	r3, r3, #-2147483648	; 0x80000000
f0001dfc:	e50b3008 	str	r3, [fp, #-8]
f0001e00:	e3a03020 	mov	r3, #32
f0001e04:	e34f31c2 	movt	r3, #61890	; 0xf1c2
f0001e08:	e51b2008 	ldr	r2, [fp, #-8]
f0001e0c:	e5832000 	str	r2, [r3]
f0001e10:	e3020710 	movw	r0, #10000	; 0x2710
f0001e14:	ebfffcb1 	bl	f00010e0 <delay_us>
f0001e18:	e3a03020 	mov	r3, #32
f0001e1c:	e34f31c2 	movt	r3, #61890	; 0xf1c2
f0001e20:	e5933000 	ldr	r3, [r3]
f0001e24:	e50b3008 	str	r3, [fp, #-8]
f0001e28:	e51b3008 	ldr	r3, [fp, #-8]
f0001e2c:	e3833202 	orr	r3, r3, #536870912	; 0x20000000
f0001e30:	e50b3008 	str	r3, [fp, #-8]
f0001e34:	e3a03020 	mov	r3, #32
f0001e38:	e34f31c2 	movt	r3, #61890	; 0xf1c2
f0001e3c:	e51b2008 	ldr	r2, [fp, #-8]
f0001e40:	e5832000 	str	r2, [r3]
f0001e44:	e3a03001 	mov	r3, #1
f0001e48:	e3483101 	movt	r3, #33025	; 0x8101
f0001e4c:	e50b3008 	str	r3, [fp, #-8]
f0001e50:	e3a03f57 	mov	r3, #348	; 0x15c
f0001e54:	e34f31c2 	movt	r3, #61890	; 0xf1c2
f0001e58:	e51b2008 	ldr	r2, [fp, #-8]
f0001e5c:	e5832000 	str	r2, [r3]
f0001e60:	e3a03060 	mov	r3, #96	; 0x60
f0001e64:	e34f31c2 	movt	r3, #61890	; 0xf1c2
f0001e68:	e5933000 	ldr	r3, [r3]
f0001e6c:	e50b3008 	str	r3, [fp, #-8]
f0001e70:	e51b3008 	ldr	r3, [fp, #-8]
f0001e74:	e3c33903 	bic	r3, r3, #49152	; 0xc000
f0001e78:	e50b3008 	str	r3, [fp, #-8]
f0001e7c:	e3a03060 	mov	r3, #96	; 0x60
f0001e80:	e34f31c2 	movt	r3, #61890	; 0xf1c2
f0001e84:	e51b2008 	ldr	r2, [fp, #-8]
f0001e88:	e5832000 	str	r2, [r3]
f0001e8c:	e3a0000a 	mov	r0, #10
f0001e90:	ebfffc92 	bl	f00010e0 <delay_us>
f0001e94:	e51b3008 	ldr	r3, [fp, #-8]
f0001e98:	e3833903 	orr	r3, r3, #49152	; 0xc000
f0001e9c:	e50b3008 	str	r3, [fp, #-8]
f0001ea0:	e3a03060 	mov	r3, #96	; 0x60
f0001ea4:	e34f31c2 	movt	r3, #61890	; 0xf1c2
f0001ea8:	e51b2008 	ldr	r2, [fp, #-8]
f0001eac:	e5832000 	str	r2, [r3]
f0001eb0:	e3a0000a 	mov	r0, #10
f0001eb4:	ebfffc89 	bl	f00010e0 <delay_us>
f0001eb8:	e24bd004 	sub	sp, fp, #4
f0001ebc:	e8bd8800 	pop	{fp, pc}

f0001ec0 <DRAMC_init>:
f0001ec0:	e92d4800 	push	{fp, lr}
f0001ec4:	e28db004 	add	fp, sp, #4
f0001ec8:	e24dd018 	sub	sp, sp, #24
f0001ecc:	e50b0018 	str	r0, [fp, #-24]
f0001ed0:	e3a03000 	mov	r3, #0
f0001ed4:	e50b300c 	str	r3, [fp, #-12]
f0001ed8:	e51b3018 	ldr	r3, [fp, #-24]
f0001edc:	e3530000 	cmp	r3, #0
f0001ee0:	1a000001 	bne	f0001eec <DRAMC_init+0x2c>
f0001ee4:	e3a03000 	mov	r3, #0
f0001ee8:	ea0001df 	b	f000266c <DRAMC_init+0x7ac>
f0001eec:	e3a03060 	mov	r3, #96	; 0x60
f0001ef0:	e34f31c2 	movt	r3, #61890	; 0xf1c2
f0001ef4:	e5933000 	ldr	r3, [r3]
f0001ef8:	e50b3008 	str	r3, [fp, #-8]
f0001efc:	e51b3008 	ldr	r3, [fp, #-8]
f0001f00:	e3c33903 	bic	r3, r3, #49152	; 0xc000
f0001f04:	e50b3008 	str	r3, [fp, #-8]
f0001f08:	e3a03060 	mov	r3, #96	; 0x60
f0001f0c:	e34f31c2 	movt	r3, #61890	; 0xf1c2
f0001f10:	e51b2008 	ldr	r2, [fp, #-8]
f0001f14:	e5832000 	str	r2, [r3]
f0001f18:	e3a0000a 	mov	r0, #10
f0001f1c:	ebfffc6f 	bl	f00010e0 <delay_us>
f0001f20:	e51b3018 	ldr	r3, [fp, #-24]
f0001f24:	e593303c 	ldr	r3, [r3, #60]	; 0x3c
f0001f28:	e2033004 	and	r3, r3, #4
f0001f2c:	e3530000 	cmp	r3, #0
f0001f30:	0a000005 	beq	f0001f4c <DRAMC_init+0x8c>
f0001f34:	e51b3018 	ldr	r3, [fp, #-24]
f0001f38:	e5933004 	ldr	r3, [r3, #4]
f0001f3c:	e1a00003 	mov	r0, r3
f0001f40:	e3a01001 	mov	r1, #1
f0001f44:	ebffff56 	bl	f0001ca4 <mctl_setup_dram_clock>
f0001f48:	ea000004 	b	f0001f60 <DRAMC_init+0xa0>
f0001f4c:	e51b3018 	ldr	r3, [fp, #-24]
f0001f50:	e5933004 	ldr	r3, [r3, #4]
f0001f54:	e1a00003 	mov	r0, r3
f0001f58:	e3a01000 	mov	r1, #0
f0001f5c:	ebffff50 	bl	f0001ca4 <mctl_setup_dram_clock>
f0001f60:	ebfffdd3 	bl	f00016b4 <mctl_set_drive>
f0001f64:	e3a00000 	mov	r0, #0
f0001f68:	eb0001f1 	bl	f0002734 <DRAMC_clock_output_en>
f0001f6c:	ebfffdeb 	bl	f0001720 <mctl_itm_disable>
f0001f70:	e51b3018 	ldr	r3, [fp, #-24]
f0001f74:	e5933004 	ldr	r3, [r3, #4]
f0001f78:	e3530f4b 	cmp	r3, #300	; 0x12c
f0001f7c:	9a000004 	bls	f0001f94 <DRAMC_init+0xd4>
f0001f80:	e51b3018 	ldr	r3, [fp, #-24]
f0001f84:	e5933038 	ldr	r3, [r3, #56]	; 0x38
f0001f88:	e1a00003 	mov	r0, r3
f0001f8c:	ebfffe0c 	bl	f00017c4 <mctl_enable_dll0>
f0001f90:	ea000000 	b	f0001f98 <DRAMC_init+0xd8>
f0001f94:	ebfffeba 	bl	f0001a84 <mctl_disable_dll>
f0001f98:	e3a03000 	mov	r3, #0
f0001f9c:	e50b3008 	str	r3, [fp, #-8]
f0001fa0:	e51b3018 	ldr	r3, [fp, #-24]
f0001fa4:	e5933008 	ldr	r3, [r3, #8]
f0001fa8:	e3530003 	cmp	r3, #3
f0001fac:	1a000002 	bne	f0001fbc <DRAMC_init+0xfc>
f0001fb0:	e51b3008 	ldr	r3, [fp, #-8]
f0001fb4:	e3833001 	orr	r3, r3, #1
f0001fb8:	e50b3008 	str	r3, [fp, #-8]
f0001fbc:	e51b3018 	ldr	r3, [fp, #-24]
f0001fc0:	e5933014 	ldr	r3, [r3, #20]
f0001fc4:	e1a031a3 	lsr	r3, r3, #3
f0001fc8:	e1a03083 	lsl	r3, r3, #1
f0001fcc:	e51b2008 	ldr	r2, [fp, #-8]
f0001fd0:	e1823003 	orr	r3, r2, r3
f0001fd4:	e50b3008 	str	r3, [fp, #-8]
f0001fd8:	e51b3018 	ldr	r3, [fp, #-24]
f0001fdc:	e5933010 	ldr	r3, [r3, #16]
f0001fe0:	e3530c01 	cmp	r3, #256	; 0x100
f0001fe4:	0a000027 	beq	f0002088 <DRAMC_init+0x1c8>
f0001fe8:	e51b3018 	ldr	r3, [fp, #-24]
f0001fec:	e5933010 	ldr	r3, [r3, #16]
f0001ff0:	e3530c02 	cmp	r3, #512	; 0x200
f0001ff4:	1a000003 	bne	f0002008 <DRAMC_init+0x148>
f0001ff8:	e51b3008 	ldr	r3, [fp, #-8]
f0001ffc:	e3833008 	orr	r3, r3, #8
f0002000:	e50b3008 	str	r3, [fp, #-8]
f0002004:	ea000020 	b	f000208c <DRAMC_init+0x1cc>
f0002008:	e51b3018 	ldr	r3, [fp, #-24]
f000200c:	e5933010 	ldr	r3, [r3, #16]
f0002010:	e3530b01 	cmp	r3, #1024	; 0x400
f0002014:	1a000003 	bne	f0002028 <DRAMC_init+0x168>
f0002018:	e51b3008 	ldr	r3, [fp, #-8]
f000201c:	e3833010 	orr	r3, r3, #16
f0002020:	e50b3008 	str	r3, [fp, #-8]
f0002024:	ea000018 	b	f000208c <DRAMC_init+0x1cc>
f0002028:	e51b3018 	ldr	r3, [fp, #-24]
f000202c:	e5933010 	ldr	r3, [r3, #16]
f0002030:	e3530b02 	cmp	r3, #2048	; 0x800
f0002034:	1a000003 	bne	f0002048 <DRAMC_init+0x188>
f0002038:	e51b3008 	ldr	r3, [fp, #-8]
f000203c:	e3833018 	orr	r3, r3, #24
f0002040:	e50b3008 	str	r3, [fp, #-8]
f0002044:	ea000010 	b	f000208c <DRAMC_init+0x1cc>
f0002048:	e51b3018 	ldr	r3, [fp, #-24]
f000204c:	e5933010 	ldr	r3, [r3, #16]
f0002050:	e3530a01 	cmp	r3, #4096	; 0x1000
f0002054:	1a000003 	bne	f0002068 <DRAMC_init+0x1a8>
f0002058:	e51b3008 	ldr	r3, [fp, #-8]
f000205c:	e3833020 	orr	r3, r3, #32
f0002060:	e50b3008 	str	r3, [fp, #-8]
f0002064:	ea000008 	b	f000208c <DRAMC_init+0x1cc>
f0002068:	e51b3018 	ldr	r3, [fp, #-24]
f000206c:	e5933010 	ldr	r3, [r3, #16]
f0002070:	e3530a02 	cmp	r3, #8192	; 0x2000
f0002074:	1a000004 	bne	f000208c <DRAMC_init+0x1cc>
f0002078:	e51b3008 	ldr	r3, [fp, #-8]
f000207c:	e3833028 	orr	r3, r3, #40	; 0x28
f0002080:	e50b3008 	str	r3, [fp, #-8]
f0002084:	ea000000 	b	f000208c <DRAMC_init+0x1cc>
f0002088:	e1a00000 	nop			; (mov r0, r0)
f000208c:	e51b3018 	ldr	r3, [fp, #-24]
f0002090:	e5933018 	ldr	r3, [r3, #24]
f0002094:	e1a031a3 	lsr	r3, r3, #3
f0002098:	e2433001 	sub	r3, r3, #1
f000209c:	e1a03303 	lsl	r3, r3, #6
f00020a0:	e51b2008 	ldr	r2, [fp, #-8]
f00020a4:	e1823003 	orr	r3, r2, r3
f00020a8:	e50b3008 	str	r3, [fp, #-8]
f00020ac:	e51b3018 	ldr	r3, [fp, #-24]
f00020b0:	e593300c 	ldr	r3, [r3, #12]
f00020b4:	e2433001 	sub	r3, r3, #1
f00020b8:	e1a03503 	lsl	r3, r3, #10
f00020bc:	e51b2008 	ldr	r2, [fp, #-8]
f00020c0:	e1823003 	orr	r3, r2, r3
f00020c4:	e50b3008 	str	r3, [fp, #-8]
f00020c8:	e51b3008 	ldr	r3, [fp, #-8]
f00020cc:	e3833a01 	orr	r3, r3, #4096	; 0x1000
f00020d0:	e50b3008 	str	r3, [fp, #-8]
f00020d4:	e51b3008 	ldr	r3, [fp, #-8]
f00020d8:	e3833a02 	orr	r3, r3, #8192	; 0x2000
f00020dc:	e50b3008 	str	r3, [fp, #-8]
f00020e0:	e3013004 	movw	r3, #4100	; 0x1004
f00020e4:	e34f31c0 	movt	r3, #61888	; 0xf1c0
f00020e8:	e51b2008 	ldr	r2, [fp, #-8]
f00020ec:	e5832000 	str	r2, [r3]
f00020f0:	e30130ac 	movw	r3, #4268	; 0x10ac
f00020f4:	e34f31c0 	movt	r3, #61888	; 0xf1c0
f00020f8:	e5933000 	ldr	r3, [r3]
f00020fc:	e50b3008 	str	r3, [fp, #-8]
f0002100:	e51b3008 	ldr	r3, [fp, #-8]
f0002104:	e3833401 	orr	r3, r3, #16777216	; 0x1000000
f0002108:	e3833002 	orr	r3, r3, #2
f000210c:	e50b3008 	str	r3, [fp, #-8]
f0002110:	e51b3018 	ldr	r3, [fp, #-24]
f0002114:	e593303c 	ldr	r3, [r3, #60]	; 0x3c
f0002118:	e2033002 	and	r3, r3, #2
f000211c:	e3530000 	cmp	r3, #0
f0002120:	0a000003 	beq	f0002134 <DRAMC_init+0x274>
f0002124:	e51b3008 	ldr	r3, [fp, #-8]
f0002128:	e3c33401 	bic	r3, r3, #16777216	; 0x1000000
f000212c:	e3c33002 	bic	r3, r3, #2
f0002130:	e50b3008 	str	r3, [fp, #-8]
f0002134:	e30130ac 	movw	r3, #4268	; 0x10ac
f0002138:	e34f31c0 	movt	r3, #61888	; 0xf1c0
f000213c:	e51b2008 	ldr	r2, [fp, #-8]
f0002140:	e5832000 	str	r2, [r3]
f0002144:	e3a00001 	mov	r0, #1
f0002148:	eb000179 	bl	f0002734 <DRAMC_clock_output_en>
f000214c:	e301323c 	movw	r3, #4668	; 0x123c
f0002150:	e34f31c0 	movt	r3, #61888	; 0xf1c0
f0002154:	e5933000 	ldr	r3, [r3]
f0002158:	e50b300c 	str	r3, [fp, #-12]
f000215c:	e51b300c 	ldr	r3, [fp, #-12]
f0002160:	e3530000 	cmp	r3, #0
f0002164:	1a00001f 	bne	f00021e8 <DRAMC_init+0x328>
f0002168:	e51b3018 	ldr	r3, [fp, #-24]
f000216c:	e5933020 	ldr	r3, [r3, #32]
f0002170:	e1a03423 	lsr	r3, r3, #8
f0002174:	e3c334ff 	bic	r3, r3, #-16777216	; 0xff000000
f0002178:	e3c3360f 	bic	r3, r3, #15728640	; 0xf00000
f000217c:	e50b3008 	str	r3, [fp, #-8]
f0002180:	e51b3018 	ldr	r3, [fp, #-24]
f0002184:	e5933020 	ldr	r3, [r3, #32]
f0002188:	e6ef3073 	uxtb	r3, r3
f000218c:	e1a03a03 	lsl	r3, r3, #20
f0002190:	e51b2008 	ldr	r2, [fp, #-8]
f0002194:	e1823003 	orr	r3, r2, r3
f0002198:	e50b3008 	str	r3, [fp, #-8]
f000219c:	e51b3018 	ldr	r3, [fp, #-24]
f00021a0:	e5933020 	ldr	r3, [r3, #32]
f00021a4:	e203320f 	and	r3, r3, #-268435456	; 0xf0000000
f00021a8:	e51b2008 	ldr	r2, [fp, #-8]
f00021ac:	e1823003 	orr	r3, r2, r3
f00021b0:	e50b3008 	str	r3, [fp, #-8]
f00021b4:	e51b3008 	ldr	r3, [fp, #-8]
f00021b8:	e3833102 	orr	r3, r3, #-2147483648	; 0x80000000
f00021bc:	e50b3008 	str	r3, [fp, #-8]
f00021c0:	e30130a8 	movw	r3, #4264	; 0x10a8
f00021c4:	e34f31c0 	movt	r3, #61888	; 0xf1c0
f00021c8:	e51b2008 	ldr	r2, [fp, #-8]
f00021cc:	e5832000 	str	r2, [r3]
f00021d0:	e1a00000 	nop			; (mov r0, r0)
f00021d4:	e30130b0 	movw	r3, #4272	; 0x10b0
f00021d8:	e34f31c0 	movt	r3, #61888	; 0xf1c0
f00021dc:	e5933000 	ldr	r3, [r3]
f00021e0:	e3530000 	cmp	r3, #0
f00021e4:	aafffffa 	bge	f00021d4 <DRAMC_init+0x314>
f00021e8:	e30130b4 	movw	r3, #4276	; 0x10b4
f00021ec:	e34f31c0 	movt	r3, #61888	; 0xf1c0
f00021f0:	e5933000 	ldr	r3, [r3]
f00021f4:	e50b3008 	str	r3, [fp, #-8]
f00021f8:	e51b3008 	ldr	r3, [fp, #-8]
f00021fc:	e1e038a3 	mvn	r3, r3, lsr #17
f0002200:	e1e03883 	mvn	r3, r3, lsl #17
f0002204:	e50b3008 	str	r3, [fp, #-8]
f0002208:	e30130b4 	movw	r3, #4276	; 0x10b4
f000220c:	e34f31c0 	movt	r3, #61888	; 0xf1c0
f0002210:	e51b2008 	ldr	r2, [fp, #-8]
f0002214:	e5832000 	str	r2, [r3]
f0002218:	e51b300c 	ldr	r3, [fp, #-12]
f000221c:	e3530000 	cmp	r3, #0
f0002220:	1a000001 	bne	f000222c <DRAMC_init+0x36c>
f0002224:	ebfffd05 	bl	f0001640 <mctl_ddr3_reset>
f0002228:	ea00000a 	b	f0002258 <DRAMC_init+0x398>
f000222c:	e3013230 	movw	r3, #4656	; 0x1230
f0002230:	e34f31c0 	movt	r3, #61888	; 0xf1c0
f0002234:	e5933000 	ldr	r3, [r3]
f0002238:	e50b3008 	str	r3, [fp, #-8]
f000223c:	e51b3008 	ldr	r3, [fp, #-8]
f0002240:	e3833a01 	orr	r3, r3, #4096	; 0x1000
f0002244:	e50b3008 	str	r3, [fp, #-8]
f0002248:	e3013230 	movw	r3, #4656	; 0x1230
f000224c:	e34f31c0 	movt	r3, #61888	; 0xf1c0
f0002250:	e51b2008 	ldr	r2, [fp, #-8]
f0002254:	e5832000 	str	r2, [r3]
f0002258:	e3a00010 	mov	r0, #16
f000225c:	ebfffb4c 	bl	f0000f94 <mem_delay>
f0002260:	e1a00000 	nop			; (mov r0, r0)
f0002264:	e3a03a01 	mov	r3, #4096	; 0x1000
f0002268:	e34f31c0 	movt	r3, #61888	; 0xf1c0
f000226c:	e5933000 	ldr	r3, [r3]
f0002270:	e3530000 	cmp	r3, #0
f0002274:	bafffffa 	blt	f0002264 <DRAMC_init+0x3a4>
f0002278:	e51b3018 	ldr	r3, [fp, #-24]
f000227c:	e5933004 	ldr	r3, [r3, #4]
f0002280:	e3530f4b 	cmp	r3, #300	; 0x12c
f0002284:	9a000003 	bls	f0002298 <DRAMC_init+0x3d8>
f0002288:	e51b3018 	ldr	r3, [fp, #-24]
f000228c:	e5933038 	ldr	r3, [r3, #56]	; 0x38
f0002290:	e1a00003 	mov	r0, r3
f0002294:	ebfffd79 	bl	f0001880 <mctl_enable_dllx>
f0002298:	e51b3018 	ldr	r3, [fp, #-24]
f000229c:	e5933004 	ldr	r3, [r3, #4]
f00022a0:	e1a00003 	mov	r0, r3
f00022a4:	eb00013b 	bl	f0002798 <DRAMC_set_autorefresh_cycle>
f00022a8:	e3013014 	movw	r3, #4116	; 0x1014
f00022ac:	e34f31c0 	movt	r3, #61888	; 0xf1c0
f00022b0:	e51b2018 	ldr	r2, [fp, #-24]
f00022b4:	e592202c 	ldr	r2, [r2, #44]	; 0x2c
f00022b8:	e5832000 	str	r2, [r3]
f00022bc:	e3013018 	movw	r3, #4120	; 0x1018
f00022c0:	e34f31c0 	movt	r3, #61888	; 0xf1c0
f00022c4:	e51b2018 	ldr	r2, [fp, #-24]
f00022c8:	e5922030 	ldr	r2, [r2, #48]	; 0x30
f00022cc:	e5832000 	str	r2, [r3]
f00022d0:	e301301c 	movw	r3, #4124	; 0x101c
f00022d4:	e34f31c0 	movt	r3, #61888	; 0xf1c0
f00022d8:	e51b2018 	ldr	r2, [fp, #-24]
f00022dc:	e5922034 	ldr	r2, [r2, #52]	; 0x34
f00022e0:	e5832000 	str	r2, [r3]
f00022e4:	e51b3018 	ldr	r3, [fp, #-24]
f00022e8:	e5933008 	ldr	r3, [r3, #8]
f00022ec:	e3530003 	cmp	r3, #3
f00022f0:	1a00000c 	bne	f0002328 <DRAMC_init+0x468>
f00022f4:	e3a03a01 	mov	r3, #4096	; 0x1000
f00022f8:	e50b3008 	str	r3, [fp, #-8]
f00022fc:	e51b3018 	ldr	r3, [fp, #-24]
f0002300:	e593301c 	ldr	r3, [r3, #28]
f0002304:	e2433004 	sub	r3, r3, #4
f0002308:	e1a03203 	lsl	r3, r3, #4
f000230c:	e51b2008 	ldr	r2, [fp, #-8]
f0002310:	e1823003 	orr	r3, r2, r3
f0002314:	e50b3008 	str	r3, [fp, #-8]
f0002318:	e51b3008 	ldr	r3, [fp, #-8]
f000231c:	e3833c0a 	orr	r3, r3, #2560	; 0xa00
f0002320:	e50b3008 	str	r3, [fp, #-8]
f0002324:	ea00000e 	b	f0002364 <DRAMC_init+0x4a4>
f0002328:	e51b3018 	ldr	r3, [fp, #-24]
f000232c:	e5933008 	ldr	r3, [r3, #8]
f0002330:	e3530002 	cmp	r3, #2
f0002334:	1a00000a 	bne	f0002364 <DRAMC_init+0x4a4>
f0002338:	e3a03002 	mov	r3, #2
f000233c:	e50b3008 	str	r3, [fp, #-8]
f0002340:	e51b3018 	ldr	r3, [fp, #-24]
f0002344:	e593301c 	ldr	r3, [r3, #28]
f0002348:	e1a03203 	lsl	r3, r3, #4
f000234c:	e51b2008 	ldr	r2, [fp, #-8]
f0002350:	e1823003 	orr	r3, r2, r3
f0002354:	e50b3008 	str	r3, [fp, #-8]
f0002358:	e51b3008 	ldr	r3, [fp, #-8]
f000235c:	e3833c0a 	orr	r3, r3, #2560	; 0xa00
f0002360:	e50b3008 	str	r3, [fp, #-8]
f0002364:	e30131f0 	movw	r3, #4592	; 0x11f0
f0002368:	e34f31c0 	movt	r3, #61888	; 0xf1c0
f000236c:	e51b2008 	ldr	r2, [fp, #-8]
f0002370:	e5832000 	str	r2, [r3]
f0002374:	e30131f4 	movw	r3, #4596	; 0x11f4
f0002378:	e34f31c0 	movt	r3, #61888	; 0xf1c0
f000237c:	e51b2018 	ldr	r2, [fp, #-24]
f0002380:	e5922044 	ldr	r2, [r2, #68]	; 0x44
f0002384:	e5832000 	str	r2, [r3]
f0002388:	e30131f8 	movw	r3, #4600	; 0x11f8
f000238c:	e34f31c0 	movt	r3, #61888	; 0xf1c0
f0002390:	e51b2018 	ldr	r2, [fp, #-24]
f0002394:	e5922048 	ldr	r2, [r2, #72]	; 0x48
f0002398:	e5832000 	str	r2, [r3]
f000239c:	e30131fc 	movw	r3, #4604	; 0x11fc
f00023a0:	e34f31c0 	movt	r3, #61888	; 0xf1c0
f00023a4:	e51b2018 	ldr	r2, [fp, #-24]
f00023a8:	e592204c 	ldr	r2, [r2, #76]	; 0x4c
f00023ac:	e5832000 	str	r2, [r3]
f00023b0:	e3a03a01 	mov	r3, #4096	; 0x1000
f00023b4:	e34f31c0 	movt	r3, #61888	; 0xf1c0
f00023b8:	e5933000 	ldr	r3, [r3]
f00023bc:	e50b3008 	str	r3, [fp, #-8]
f00023c0:	e51b3008 	ldr	r3, [fp, #-8]
f00023c4:	e3833901 	orr	r3, r3, #16384	; 0x4000
f00023c8:	e50b3008 	str	r3, [fp, #-8]
f00023cc:	e51b3008 	ldr	r3, [fp, #-8]
f00023d0:	e3c33802 	bic	r3, r3, #131072	; 0x20000
f00023d4:	e50b3008 	str	r3, [fp, #-8]
f00023d8:	e51b3018 	ldr	r3, [fp, #-24]
f00023dc:	e593303c 	ldr	r3, [r3, #60]	; 0x3c
f00023e0:	e2033001 	and	r3, r3, #1
f00023e4:	e6ef3073 	uxtb	r3, r3
f00023e8:	e3530000 	cmp	r3, #0
f00023ec:	0a000002 	beq	f00023fc <DRAMC_init+0x53c>
f00023f0:	e51b3008 	ldr	r3, [fp, #-8]
f00023f4:	e3833020 	orr	r3, r3, #32
f00023f8:	e50b3008 	str	r3, [fp, #-8]
f00023fc:	e3a03a01 	mov	r3, #4096	; 0x1000
f0002400:	e34f31c0 	movt	r3, #61888	; 0xf1c0
f0002404:	e51b2008 	ldr	r2, [fp, #-8]
f0002408:	e5832000 	str	r2, [r3]
f000240c:	e3a03a01 	mov	r3, #4096	; 0x1000
f0002410:	e34f31c0 	movt	r3, #61888	; 0xf1c0
f0002414:	e5933000 	ldr	r3, [r3]
f0002418:	e50b3008 	str	r3, [fp, #-8]
f000241c:	e51b3008 	ldr	r3, [fp, #-8]
f0002420:	e3833102 	orr	r3, r3, #-2147483648	; 0x80000000
f0002424:	e50b3008 	str	r3, [fp, #-8]
f0002428:	e3a03a01 	mov	r3, #4096	; 0x1000
f000242c:	e34f31c0 	movt	r3, #61888	; 0xf1c0
f0002430:	e51b2008 	ldr	r2, [fp, #-8]
f0002434:	e5832000 	str	r2, [r3]
f0002438:	e1a00000 	nop			; (mov r0, r0)
f000243c:	e3a03a01 	mov	r3, #4096	; 0x1000
f0002440:	e34f31c0 	movt	r3, #61888	; 0xf1c0
f0002444:	e5933000 	ldr	r3, [r3]
f0002448:	e3530000 	cmp	r3, #0
f000244c:	bafffffa 	blt	f000243c <DRAMC_init+0x57c>
f0002450:	e51b300c 	ldr	r3, [fp, #-12]
f0002454:	e3530001 	cmp	r3, #1
f0002458:	1a000065 	bne	f00025f4 <DRAMC_init+0x734>
f000245c:	e3013010 	movw	r3, #4112	; 0x1010
f0002460:	e34f31c0 	movt	r3, #61888	; 0xf1c0
f0002464:	e5933000 	ldr	r3, [r3]
f0002468:	e50b3008 	str	r3, [fp, #-8]
f000246c:	e51b3008 	ldr	r3, [fp, #-8]
f0002470:	e3833102 	orr	r3, r3, #-2147483648	; 0x80000000
f0002474:	e50b3008 	str	r3, [fp, #-8]
f0002478:	e3013010 	movw	r3, #4112	; 0x1010
f000247c:	e34f31c0 	movt	r3, #61888	; 0xf1c0
f0002480:	e51b2008 	ldr	r2, [fp, #-8]
f0002484:	e5832000 	str	r2, [r3]
f0002488:	e3a03ed2 	mov	r3, #3360	; 0xd20
f000248c:	e34f31c2 	movt	r3, #61890	; 0xf1c2
f0002490:	e5933000 	ldr	r3, [r3]
f0002494:	e50b3008 	str	r3, [fp, #-8]
f0002498:	e51b3008 	ldr	r3, [fp, #-8]
f000249c:	e3c334ff 	bic	r3, r3, #-16777216	; 0xff000000
f00024a0:	e3c3360f 	bic	r3, r3, #15728640	; 0xf00000
f00024a4:	e50b3008 	str	r3, [fp, #-8]
f00024a8:	e3a03ed2 	mov	r3, #3360	; 0xd20
f00024ac:	e34f31c2 	movt	r3, #61890	; 0xf1c2
f00024b0:	e51b2008 	ldr	r2, [fp, #-8]
f00024b4:	e5832000 	str	r2, [r3]
f00024b8:	e51b3018 	ldr	r3, [fp, #-24]
f00024bc:	e5933020 	ldr	r3, [r3, #32]
f00024c0:	e1a02a03 	lsl	r2, r3, #20
f00024c4:	e51b3008 	ldr	r3, [fp, #-8]
f00024c8:	e1823003 	orr	r3, r2, r3
f00024cc:	e3833201 	orr	r3, r3, #268435456	; 0x10000000
f00024d0:	e50b3008 	str	r3, [fp, #-8]
f00024d4:	e30130a8 	movw	r3, #4264	; 0x10a8
f00024d8:	e34f31c0 	movt	r3, #61888	; 0xf1c0
f00024dc:	e51b2008 	ldr	r2, [fp, #-8]
f00024e0:	e5832000 	str	r2, [r3]
f00024e4:	e3013004 	movw	r3, #4100	; 0x1004
f00024e8:	e34f31c0 	movt	r3, #61888	; 0xf1c0
f00024ec:	e5933000 	ldr	r3, [r3]
f00024f0:	e50b3008 	str	r3, [fp, #-8]
f00024f4:	e51b3008 	ldr	r3, [fp, #-8]
f00024f8:	e3c3333e 	bic	r3, r3, #-134217728	; 0xf8000000
f00024fc:	e50b3008 	str	r3, [fp, #-8]
f0002500:	e51b3008 	ldr	r3, [fp, #-8]
f0002504:	e3833209 	orr	r3, r3, #-1879048192	; 0x90000000
f0002508:	e50b3008 	str	r3, [fp, #-8]
f000250c:	e3013004 	movw	r3, #4100	; 0x1004
f0002510:	e34f31c0 	movt	r3, #61888	; 0xf1c0
f0002514:	e51b2008 	ldr	r2, [fp, #-8]
f0002518:	e5832000 	str	r2, [r3]
f000251c:	e1a00000 	nop			; (mov r0, r0)
f0002520:	e3013004 	movw	r3, #4100	; 0x1004
f0002524:	e34f31c0 	movt	r3, #61888	; 0xf1c0
f0002528:	e5933000 	ldr	r3, [r3]
f000252c:	e3530000 	cmp	r3, #0
f0002530:	bafffffa 	blt	f0002520 <DRAMC_init+0x660>
f0002534:	e3a00c01 	mov	r0, #256	; 0x100
f0002538:	ebfffa95 	bl	f0000f94 <mem_delay>
f000253c:	e301323c 	movw	r3, #4668	; 0x123c
f0002540:	e34f31c0 	movt	r3, #61888	; 0xf1c0
f0002544:	e3a02000 	mov	r2, #0
f0002548:	e3412651 	movt	r2, #5713	; 0x1651
f000254c:	e5832000 	str	r2, [r3]
f0002550:	e1a00000 	nop			; (mov r0, r0)
f0002554:	e301323c 	movw	r3, #4668	; 0x123c
f0002558:	e34f31c0 	movt	r3, #61888	; 0xf1c0
f000255c:	e5933000 	ldr	r3, [r3]
f0002560:	e2033001 	and	r3, r3, #1
f0002564:	e6ef3073 	uxtb	r3, r3
f0002568:	e3530000 	cmp	r3, #0
f000256c:	1afffff8 	bne	f0002554 <DRAMC_init+0x694>
f0002570:	e3013004 	movw	r3, #4100	; 0x1004
f0002574:	e34f31c0 	movt	r3, #61888	; 0xf1c0
f0002578:	e5933000 	ldr	r3, [r3]
f000257c:	e50b3008 	str	r3, [fp, #-8]
f0002580:	e51b3008 	ldr	r3, [fp, #-8]
f0002584:	e3c3333e 	bic	r3, r3, #-134217728	; 0xf8000000
f0002588:	e50b3008 	str	r3, [fp, #-8]
f000258c:	e51b3008 	ldr	r3, [fp, #-8]
f0002590:	e383332e 	orr	r3, r3, #-1207959552	; 0xb8000000
f0002594:	e50b3008 	str	r3, [fp, #-8]
f0002598:	e3013004 	movw	r3, #4100	; 0x1004
f000259c:	e34f31c0 	movt	r3, #61888	; 0xf1c0
f00025a0:	e51b2008 	ldr	r2, [fp, #-8]
f00025a4:	e5832000 	str	r2, [r3]
f00025a8:	e1a00000 	nop			; (mov r0, r0)
f00025ac:	e3013004 	movw	r3, #4100	; 0x1004
f00025b0:	e34f31c0 	movt	r3, #61888	; 0xf1c0
f00025b4:	e5933000 	ldr	r3, [r3]
f00025b8:	e3530000 	cmp	r3, #0
f00025bc:	bafffffa 	blt	f00025ac <DRAMC_init+0x6ec>
f00025c0:	e3013010 	movw	r3, #4112	; 0x1010
f00025c4:	e34f31c0 	movt	r3, #61888	; 0xf1c0
f00025c8:	e5933000 	ldr	r3, [r3]
f00025cc:	e50b3008 	str	r3, [fp, #-8]
f00025d0:	e51b3008 	ldr	r3, [fp, #-8]
f00025d4:	e3c33102 	bic	r3, r3, #-2147483648	; 0x80000000
f00025d8:	e50b3008 	str	r3, [fp, #-8]
f00025dc:	e3013010 	movw	r3, #4112	; 0x1010
f00025e0:	e34f31c0 	movt	r3, #61888	; 0xf1c0
f00025e4:	e51b2008 	ldr	r2, [fp, #-8]
f00025e8:	e5832000 	str	r2, [r3]
f00025ec:	e3a00c01 	mov	r0, #256	; 0x100
f00025f0:	ebfffa67 	bl	f0000f94 <mem_delay>
f00025f4:	ebfffc5f 	bl	f0001778 <mctl_itm_enable>
f00025f8:	e51b300c 	ldr	r3, [fp, #-12]
f00025fc:	e3530000 	cmp	r3, #0
f0002600:	1a000006 	bne	f0002620 <DRAMC_init+0x760>
f0002604:	eb00001b 	bl	f0002678 <DRAMC_scan_readpipe>
f0002608:	e50b0010 	str	r0, [fp, #-16]
f000260c:	e51b3010 	ldr	r3, [fp, #-16]
f0002610:	e3530000 	cmp	r3, #0
f0002614:	aa000011 	bge	f0002660 <DRAMC_init+0x7a0>
f0002618:	e3a03000 	mov	r3, #0
f000261c:	ea000012 	b	f000266c <DRAMC_init+0x7ac>
f0002620:	e3003d24 	movw	r3, #3364	; 0xd24
f0002624:	e34f31c2 	movt	r3, #61890	; 0xf1c2
f0002628:	e5933000 	ldr	r3, [r3]
f000262c:	e50b3008 	str	r3, [fp, #-8]
f0002630:	e301304c 	movw	r3, #4172	; 0x104c
f0002634:	e34f31c0 	movt	r3, #61888	; 0xf1c0
f0002638:	e51b2008 	ldr	r2, [fp, #-8]
f000263c:	e5832000 	str	r2, [r3]
f0002640:	e3003d28 	movw	r3, #3368	; 0xd28
f0002644:	e34f31c2 	movt	r3, #61890	; 0xf1c2
f0002648:	e5933000 	ldr	r3, [r3]
f000264c:	e50b3008 	str	r3, [fp, #-8]
f0002650:	e301305c 	movw	r3, #4188	; 0x105c
f0002654:	e34f31c0 	movt	r3, #61888	; 0xf1c0
f0002658:	e51b2008 	ldr	r2, [fp, #-8]
f000265c:	e5832000 	str	r2, [r3]
f0002660:	ebfffd53 	bl	f0001bb4 <mctl_configure_hostport>
f0002664:	eb00006b 	bl	f0002818 <DRAMC_get_dram_size>
f0002668:	e1a03000 	mov	r3, r0
f000266c:	e1a00003 	mov	r0, r3
f0002670:	e24bd004 	sub	sp, fp, #4
f0002674:	e8bd8800 	pop	{fp, pc}

f0002678 <DRAMC_scan_readpipe>:
f0002678:	e52db004 	push	{fp}		; (str fp, [sp, #-4]!)
f000267c:	e28db000 	add	fp, sp, #0
f0002680:	e24dd00c 	sub	sp, sp, #12
f0002684:	e301300c 	movw	r3, #4108	; 0x100c
f0002688:	e34f31c0 	movt	r3, #61888	; 0xf1c0
f000268c:	e5933000 	ldr	r3, [r3]
f0002690:	e50b3008 	str	r3, [fp, #-8]
f0002694:	e51b3008 	ldr	r3, [fp, #-8]
f0002698:	e3c33601 	bic	r3, r3, #1048576	; 0x100000
f000269c:	e50b3008 	str	r3, [fp, #-8]
f00026a0:	e301300c 	movw	r3, #4108	; 0x100c
f00026a4:	e34f31c0 	movt	r3, #61888	; 0xf1c0
f00026a8:	e51b2008 	ldr	r2, [fp, #-8]
f00026ac:	e5832000 	str	r2, [r3]
f00026b0:	e3a03a01 	mov	r3, #4096	; 0x1000
f00026b4:	e34f31c0 	movt	r3, #61888	; 0xf1c0
f00026b8:	e5933000 	ldr	r3, [r3]
f00026bc:	e50b3008 	str	r3, [fp, #-8]
f00026c0:	e51b3008 	ldr	r3, [fp, #-8]
f00026c4:	e3833101 	orr	r3, r3, #1073741824	; 0x40000000
f00026c8:	e50b3008 	str	r3, [fp, #-8]
f00026cc:	e3a03a01 	mov	r3, #4096	; 0x1000
f00026d0:	e34f31c0 	movt	r3, #61888	; 0xf1c0
f00026d4:	e51b2008 	ldr	r2, [fp, #-8]
f00026d8:	e5832000 	str	r2, [r3]
f00026dc:	e1a00000 	nop			; (mov r0, r0)
f00026e0:	e3a03a01 	mov	r3, #4096	; 0x1000
f00026e4:	e34f31c0 	movt	r3, #61888	; 0xf1c0
f00026e8:	e5933000 	ldr	r3, [r3]
f00026ec:	e2033101 	and	r3, r3, #1073741824	; 0x40000000
f00026f0:	e3530000 	cmp	r3, #0
f00026f4:	1afffff9 	bne	f00026e0 <DRAMC_scan_readpipe+0x68>
f00026f8:	e301300c 	movw	r3, #4108	; 0x100c
f00026fc:	e34f31c0 	movt	r3, #61888	; 0xf1c0
f0002700:	e5933000 	ldr	r3, [r3]
f0002704:	e50b3008 	str	r3, [fp, #-8]
f0002708:	e51b3008 	ldr	r3, [fp, #-8]
f000270c:	e2033601 	and	r3, r3, #1048576	; 0x100000
f0002710:	e3530000 	cmp	r3, #0
f0002714:	0a000001 	beq	f0002720 <DRAMC_scan_readpipe+0xa8>
f0002718:	e3e03000 	mvn	r3, #0
f000271c:	ea000000 	b	f0002724 <DRAMC_scan_readpipe+0xac>
f0002720:	e3a03000 	mov	r3, #0
f0002724:	e1a00003 	mov	r0, r3
f0002728:	e28bd000 	add	sp, fp, #0
f000272c:	e8bd0800 	pop	{fp}
f0002730:	e12fff1e 	bx	lr

f0002734 <DRAMC_clock_output_en>:
f0002734:	e52db004 	push	{fp}		; (str fp, [sp, #-4]!)
f0002738:	e28db000 	add	fp, sp, #0
f000273c:	e24dd014 	sub	sp, sp, #20
f0002740:	e50b0010 	str	r0, [fp, #-16]
f0002744:	e3013230 	movw	r3, #4656	; 0x1230
f0002748:	e34f31c0 	movt	r3, #61888	; 0xf1c0
f000274c:	e5933000 	ldr	r3, [r3]
f0002750:	e50b3008 	str	r3, [fp, #-8]
f0002754:	e51b3010 	ldr	r3, [fp, #-16]
f0002758:	e3530000 	cmp	r3, #0
f000275c:	0a000003 	beq	f0002770 <DRAMC_clock_output_en+0x3c>
f0002760:	e51b3008 	ldr	r3, [fp, #-8]
f0002764:	e3833801 	orr	r3, r3, #65536	; 0x10000
f0002768:	e50b3008 	str	r3, [fp, #-8]
f000276c:	ea000002 	b	f000277c <DRAMC_clock_output_en+0x48>
f0002770:	e51b3008 	ldr	r3, [fp, #-8]
f0002774:	e3c33801 	bic	r3, r3, #65536	; 0x10000
f0002778:	e50b3008 	str	r3, [fp, #-8]
f000277c:	e3013230 	movw	r3, #4656	; 0x1230
f0002780:	e34f31c0 	movt	r3, #61888	; 0xf1c0
f0002784:	e51b2008 	ldr	r2, [fp, #-8]
f0002788:	e5832000 	str	r2, [r3]
f000278c:	e28bd000 	add	sp, fp, #0
f0002790:	e8bd0800 	pop	{fp}
f0002794:	e12fff1e 	bx	lr

f0002798 <DRAMC_set_autorefresh_cycle>:
f0002798:	e52db004 	push	{fp}		; (str fp, [sp, #-4]!)
f000279c:	e28db000 	add	fp, sp, #0
f00027a0:	e24dd014 	sub	sp, sp, #20
f00027a4:	e50b0010 	str	r0, [fp, #-16]
f00027a8:	e3a03083 	mov	r3, #131	; 0x83
f00027ac:	e50b3008 	str	r3, [fp, #-8]
f00027b0:	e51b3010 	ldr	r3, [fp, #-16]
f00027b4:	e3012f33 	movw	r2, #7987	; 0x1f33
f00027b8:	e0030392 	mul	r3, r2, r3
f00027bc:	e1a03523 	lsr	r3, r3, #10
f00027c0:	e50b300c 	str	r3, [fp, #-12]
f00027c4:	e51b200c 	ldr	r2, [fp, #-12]
f00027c8:	e1a03002 	mov	r3, r2
f00027cc:	e1a03183 	lsl	r3, r3, #3
f00027d0:	e0833002 	add	r3, r3, r2
f00027d4:	e24330c8 	sub	r3, r3, #200	; 0xc8
f00027d8:	e50b300c 	str	r3, [fp, #-12]
f00027dc:	e51b300c 	ldr	r3, [fp, #-12]
f00027e0:	e1a03403 	lsl	r3, r3, #8
f00027e4:	e51b2008 	ldr	r2, [fp, #-8]
f00027e8:	e1823003 	orr	r3, r2, r3
f00027ec:	e50b3008 	str	r3, [fp, #-8]
f00027f0:	e51b3008 	ldr	r3, [fp, #-8]
f00027f4:	e3833302 	orr	r3, r3, #134217728	; 0x8000000
f00027f8:	e50b3008 	str	r3, [fp, #-8]
f00027fc:	e3013010 	movw	r3, #4112	; 0x1010
f0002800:	e34f31c0 	movt	r3, #61888	; 0xf1c0
f0002804:	e51b2008 	ldr	r2, [fp, #-8]
f0002808:	e5832000 	str	r2, [r3]
f000280c:	e28bd000 	add	sp, fp, #0
f0002810:	e8bd0800 	pop	{fp}
f0002814:	e12fff1e 	bx	lr

f0002818 <DRAMC_get_dram_size>:
f0002818:	e52db004 	push	{fp}		; (str fp, [sp, #-4]!)
f000281c:	e28db000 	add	fp, sp, #0
f0002820:	e24dd014 	sub	sp, sp, #20
f0002824:	e3013004 	movw	r3, #4100	; 0x1004
f0002828:	e34f31c0 	movt	r3, #61888	; 0xf1c0
f000282c:	e5933000 	ldr	r3, [r3]
f0002830:	e50b300c 	str	r3, [fp, #-12]
f0002834:	e51b300c 	ldr	r3, [fp, #-12]
f0002838:	e1a031a3 	lsr	r3, r3, #3
f000283c:	e2033007 	and	r3, r3, #7
f0002840:	e50b3010 	str	r3, [fp, #-16]
f0002844:	e51b3010 	ldr	r3, [fp, #-16]
f0002848:	e3530000 	cmp	r3, #0
f000284c:	1a000002 	bne	f000285c <DRAMC_get_dram_size+0x44>
f0002850:	e3a03020 	mov	r3, #32
f0002854:	e50b3008 	str	r3, [fp, #-8]
f0002858:	ea000019 	b	f00028c4 <DRAMC_get_dram_size+0xac>
f000285c:	e51b3010 	ldr	r3, [fp, #-16]
f0002860:	e3530001 	cmp	r3, #1
f0002864:	1a000002 	bne	f0002874 <DRAMC_get_dram_size+0x5c>
f0002868:	e3a03040 	mov	r3, #64	; 0x40
f000286c:	e50b3008 	str	r3, [fp, #-8]
f0002870:	ea000013 	b	f00028c4 <DRAMC_get_dram_size+0xac>
f0002874:	e51b3010 	ldr	r3, [fp, #-16]
f0002878:	e3530002 	cmp	r3, #2
f000287c:	1a000002 	bne	f000288c <DRAMC_get_dram_size+0x74>
f0002880:	e3a03080 	mov	r3, #128	; 0x80
f0002884:	e50b3008 	str	r3, [fp, #-8]
f0002888:	ea00000d 	b	f00028c4 <DRAMC_get_dram_size+0xac>
f000288c:	e51b3010 	ldr	r3, [fp, #-16]
f0002890:	e3530003 	cmp	r3, #3
f0002894:	1a000002 	bne	f00028a4 <DRAMC_get_dram_size+0x8c>
f0002898:	e3a03c01 	mov	r3, #256	; 0x100
f000289c:	e50b3008 	str	r3, [fp, #-8]
f00028a0:	ea000007 	b	f00028c4 <DRAMC_get_dram_size+0xac>
f00028a4:	e51b3010 	ldr	r3, [fp, #-16]
f00028a8:	e3530004 	cmp	r3, #4
f00028ac:	1a000002 	bne	f00028bc <DRAMC_get_dram_size+0xa4>
f00028b0:	e3a03c02 	mov	r3, #512	; 0x200
f00028b4:	e50b3008 	str	r3, [fp, #-8]
f00028b8:	ea000001 	b	f00028c4 <DRAMC_get_dram_size+0xac>
f00028bc:	e3a03b01 	mov	r3, #1024	; 0x400
f00028c0:	e50b3008 	str	r3, [fp, #-8]
f00028c4:	e51b300c 	ldr	r3, [fp, #-12]
f00028c8:	e1a030a3 	lsr	r3, r3, #1
f00028cc:	e2033003 	and	r3, r3, #3
f00028d0:	e3530001 	cmp	r3, #1
f00028d4:	1a000002 	bne	f00028e4 <DRAMC_get_dram_size+0xcc>
f00028d8:	e51b3008 	ldr	r3, [fp, #-8]
f00028dc:	e1a03083 	lsl	r3, r3, #1
f00028e0:	e50b3008 	str	r3, [fp, #-8]
f00028e4:	e51b300c 	ldr	r3, [fp, #-12]
f00028e8:	e1a03323 	lsr	r3, r3, #6
f00028ec:	e2033007 	and	r3, r3, #7
f00028f0:	e3530003 	cmp	r3, #3
f00028f4:	1a000002 	bne	f0002904 <DRAMC_get_dram_size+0xec>
f00028f8:	e51b3008 	ldr	r3, [fp, #-8]
f00028fc:	e1a03083 	lsl	r3, r3, #1
f0002900:	e50b3008 	str	r3, [fp, #-8]
f0002904:	e51b300c 	ldr	r3, [fp, #-12]
f0002908:	e1a03523 	lsr	r3, r3, #10
f000290c:	e2033003 	and	r3, r3, #3
f0002910:	e3530001 	cmp	r3, #1
f0002914:	1a000002 	bne	f0002924 <DRAMC_get_dram_size+0x10c>
f0002918:	e51b3008 	ldr	r3, [fp, #-8]
f000291c:	e1a03083 	lsl	r3, r3, #1
f0002920:	e50b3008 	str	r3, [fp, #-8]
f0002924:	e51b3008 	ldr	r3, [fp, #-8]
f0002928:	e1a00003 	mov	r0, r3
f000292c:	e28bd000 	add	sp, fp, #0
f0002930:	e8bd0800 	pop	{fp}
f0002934:	e12fff1e 	bx	lr

f0002938 <dram_init>:
f0002938:	e52db004 	push	{fp}		; (str fp, [sp, #-4]!)
f000293c:	e28db000 	add	fp, sp, #0
f0002940:	e3a03000 	mov	r3, #0
f0002944:	e1a00003 	mov	r0, r3
f0002948:	e28bd000 	add	sp, fp, #0
f000294c:	e8bd0800 	pop	{fp}
f0002950:	e12fff1e 	bx	lr

f0002954 <save_mem_status>:
f0002954:	e52db004 	push	{fp}		; (str fp, [sp, #-4]!)
f0002958:	e28db000 	add	fp, sp, #0
f000295c:	e24dd00c 	sub	sp, sp, #12
f0002960:	e50b0008 	str	r0, [fp, #-8]
f0002964:	e28bd000 	add	sp, fp, #0
f0002968:	e8bd0800 	pop	{fp}
f000296c:	e12fff1e 	bx	lr

f0002970 <mctl_self_refresh_entry>:
f0002970:	e92d4800 	push	{fp, lr}
f0002974:	e28db004 	add	fp, sp, #4
f0002978:	e24dd008 	sub	sp, sp, #8
f000297c:	e3013010 	movw	r3, #4112	; 0x1010
f0002980:	e34f31c0 	movt	r3, #61888	; 0xf1c0
f0002984:	e5933000 	ldr	r3, [r3]
f0002988:	e50b3008 	str	r3, [fp, #-8]
f000298c:	e51b3008 	ldr	r3, [fp, #-8]
f0002990:	e3833102 	orr	r3, r3, #-2147483648	; 0x80000000
f0002994:	e50b3008 	str	r3, [fp, #-8]
f0002998:	e3013010 	movw	r3, #4112	; 0x1010
f000299c:	e34f31c0 	movt	r3, #61888	; 0xf1c0
f00029a0:	e51b2008 	ldr	r2, [fp, #-8]
f00029a4:	e5832000 	str	r2, [r3]
f00029a8:	e3013004 	movw	r3, #4100	; 0x1004
f00029ac:	e34f31c0 	movt	r3, #61888	; 0xf1c0
f00029b0:	e5933000 	ldr	r3, [r3]
f00029b4:	e50b3008 	str	r3, [fp, #-8]
f00029b8:	e51b3008 	ldr	r3, [fp, #-8]
f00029bc:	e3c3333e 	bic	r3, r3, #-134217728	; 0xf8000000
f00029c0:	e50b3008 	str	r3, [fp, #-8]
f00029c4:	e51b3008 	ldr	r3, [fp, #-8]
f00029c8:	e3833209 	orr	r3, r3, #-1879048192	; 0x90000000
f00029cc:	e50b3008 	str	r3, [fp, #-8]
f00029d0:	e3013004 	movw	r3, #4100	; 0x1004
f00029d4:	e34f31c0 	movt	r3, #61888	; 0xf1c0
f00029d8:	e51b2008 	ldr	r2, [fp, #-8]
f00029dc:	e5832000 	str	r2, [r3]
f00029e0:	e1a00000 	nop			; (mov r0, r0)
f00029e4:	e3013004 	movw	r3, #4100	; 0x1004
f00029e8:	e34f31c0 	movt	r3, #61888	; 0xf1c0
f00029ec:	e5933000 	ldr	r3, [r3]
f00029f0:	e3530000 	cmp	r3, #0
f00029f4:	bafffffa 	blt	f00029e4 <mctl_self_refresh_entry+0x74>
f00029f8:	e3a0000a 	mov	r0, #10
f00029fc:	ebfff9b7 	bl	f00010e0 <delay_us>
f0002a00:	e24bd004 	sub	sp, fp, #4
f0002a04:	e8bd8800 	pop	{fp, pc}

f0002a08 <setup_dram_pll>:
f0002a08:	e92d4800 	push	{fp, lr}
f0002a0c:	e28db004 	add	fp, sp, #4
f0002a10:	e24dd010 	sub	sp, sp, #16
f0002a14:	e50b0010 	str	r0, [fp, #-16]
f0002a18:	e3a03020 	mov	r3, #32
f0002a1c:	e34f31c2 	movt	r3, #61890	; 0xf1c2
f0002a20:	e5933000 	ldr	r3, [r3]
f0002a24:	e50b3008 	str	r3, [fp, #-8]
f0002a28:	e51b3008 	ldr	r3, [fp, #-8]
f0002a2c:	e3c33202 	bic	r3, r3, #536870912	; 0x20000000
f0002a30:	e50b3008 	str	r3, [fp, #-8]
f0002a34:	e3a03020 	mov	r3, #32
f0002a38:	e34f31c2 	movt	r3, #61890	; 0xf1c2
f0002a3c:	e51b2008 	ldr	r2, [fp, #-8]
f0002a40:	e5832000 	str	r2, [r3]
f0002a44:	e3a0000a 	mov	r0, #10
f0002a48:	ebfff9a4 	bl	f00010e0 <delay_us>
f0002a4c:	e51b3008 	ldr	r3, [fp, #-8]
f0002a50:	e3c33102 	bic	r3, r3, #-2147483648	; 0x80000000
f0002a54:	e50b3008 	str	r3, [fp, #-8]
f0002a58:	e3a03020 	mov	r3, #32
f0002a5c:	e34f31c2 	movt	r3, #61890	; 0xf1c2
f0002a60:	e51b2008 	ldr	r2, [fp, #-8]
f0002a64:	e5832000 	str	r2, [r3]
f0002a68:	e3a0000a 	mov	r0, #10
f0002a6c:	ebfff99b 	bl	f00010e0 <delay_us>
f0002a70:	e51b3008 	ldr	r3, [fp, #-8]
f0002a74:	e3c33003 	bic	r3, r3, #3
f0002a78:	e50b3008 	str	r3, [fp, #-8]
f0002a7c:	e51b3008 	ldr	r3, [fp, #-8]
f0002a80:	e3833001 	orr	r3, r3, #1
f0002a84:	e50b3008 	str	r3, [fp, #-8]
f0002a88:	e51b3008 	ldr	r3, [fp, #-8]
f0002a8c:	e3c33030 	bic	r3, r3, #48	; 0x30
f0002a90:	e50b3008 	str	r3, [fp, #-8]
f0002a94:	e51b3008 	ldr	r3, [fp, #-8]
f0002a98:	e3833010 	orr	r3, r3, #16
f0002a9c:	e50b3008 	str	r3, [fp, #-8]
f0002aa0:	e51b3008 	ldr	r3, [fp, #-8]
f0002aa4:	e3c33c1f 	bic	r3, r3, #7936	; 0x1f00
f0002aa8:	e50b3008 	str	r3, [fp, #-8]
f0002aac:	e51b2010 	ldr	r2, [fp, #-16]
f0002ab0:	e30a3aab 	movw	r3, #43691	; 0xaaab
f0002ab4:	e34a3aaa 	movt	r3, #43690	; 0xaaaa
f0002ab8:	e0831293 	umull	r1, r3, r3, r2
f0002abc:	e1a03223 	lsr	r3, r3, #4
f0002ac0:	e203301f 	and	r3, r3, #31
f0002ac4:	e1a03403 	lsl	r3, r3, #8
f0002ac8:	e51b2008 	ldr	r2, [fp, #-8]
f0002acc:	e1823003 	orr	r3, r2, r3
f0002ad0:	e50b3008 	str	r3, [fp, #-8]
f0002ad4:	e51b3008 	ldr	r3, [fp, #-8]
f0002ad8:	e3c33803 	bic	r3, r3, #196608	; 0x30000
f0002adc:	e50b3008 	str	r3, [fp, #-8]
f0002ae0:	e51b3008 	ldr	r3, [fp, #-8]
f0002ae4:	e3833801 	orr	r3, r3, #65536	; 0x10000
f0002ae8:	e50b3008 	str	r3, [fp, #-8]
f0002aec:	e51b3008 	ldr	r3, [fp, #-8]
f0002af0:	e3c33202 	bic	r3, r3, #536870912	; 0x20000000
f0002af4:	e50b3008 	str	r3, [fp, #-8]
f0002af8:	e51b3008 	ldr	r3, [fp, #-8]
f0002afc:	e3833102 	orr	r3, r3, #-2147483648	; 0x80000000
f0002b00:	e50b3008 	str	r3, [fp, #-8]
f0002b04:	e3a03020 	mov	r3, #32
f0002b08:	e34f31c2 	movt	r3, #61890	; 0xf1c2
f0002b0c:	e51b2008 	ldr	r2, [fp, #-8]
f0002b10:	e5832000 	str	r2, [r3]
f0002b14:	e3a00e4b 	mov	r0, #1200	; 0x4b0
f0002b18:	ebfff970 	bl	f00010e0 <delay_us>
f0002b1c:	e3a03020 	mov	r3, #32
f0002b20:	e34f31c2 	movt	r3, #61890	; 0xf1c2
f0002b24:	e5933000 	ldr	r3, [r3]
f0002b28:	e50b3008 	str	r3, [fp, #-8]
f0002b2c:	e51b3008 	ldr	r3, [fp, #-8]
f0002b30:	e3833202 	orr	r3, r3, #536870912	; 0x20000000
f0002b34:	e50b3008 	str	r3, [fp, #-8]
f0002b38:	e3a03020 	mov	r3, #32
f0002b3c:	e34f31c2 	movt	r3, #61890	; 0xf1c2
f0002b40:	e51b2008 	ldr	r2, [fp, #-8]
f0002b44:	e5832000 	str	r2, [r3]
f0002b48:	e3a00064 	mov	r0, #100	; 0x64
f0002b4c:	ebfff963 	bl	f00010e0 <delay_us>
f0002b50:	e24bd004 	sub	sp, fp, #4
f0002b54:	e8bd8800 	pop	{fp, pc}

f0002b58 <dram_freq_jum>:
f0002b58:	e92d4800 	push	{fp, lr}
f0002b5c:	e28db004 	add	fp, sp, #4
f0002b60:	e24dd010 	sub	sp, sp, #16
f0002b64:	e1a03000 	mov	r3, r0
f0002b68:	e50b1014 	str	r1, [fp, #-20]
f0002b6c:	e54b300d 	strb	r3, [fp, #-13]
f0002b70:	e3a03000 	mov	r3, #0
f0002b74:	e50b3008 	str	r3, [fp, #-8]
f0002b78:	e51b3014 	ldr	r3, [fp, #-20]
f0002b7c:	e593303c 	ldr	r3, [r3, #60]	; 0x3c
f0002b80:	e2033008 	and	r3, r3, #8
f0002b84:	e3530000 	cmp	r3, #0
f0002b88:	1a000001 	bne	f0002b94 <dram_freq_jum+0x3c>
f0002b8c:	e3a03000 	mov	r3, #0
f0002b90:	ea0000e4 	b	f0002f28 <dram_freq_jum+0x3d0>
f0002b94:	e55b300d 	ldrb	r3, [fp, #-13]
f0002b98:	e3530000 	cmp	r3, #0
f0002b9c:	1a00006c 	bne	f0002d54 <dram_freq_jum+0x1fc>
f0002ba0:	ebffff72 	bl	f0002970 <mctl_self_refresh_entry>
f0002ba4:	ebfffbb6 	bl	f0001a84 <mctl_disable_dll>
f0002ba8:	e3a00000 	mov	r0, #0
f0002bac:	ebfffee0 	bl	f0002734 <DRAMC_clock_output_en>
f0002bb0:	e3a00078 	mov	r0, #120	; 0x78
f0002bb4:	ebffff93 	bl	f0002a08 <setup_dram_pll>
f0002bb8:	e3a0000a 	mov	r0, #10
f0002bbc:	ebfff947 	bl	f00010e0 <delay_us>
f0002bc0:	ebfffad6 	bl	f0001720 <mctl_itm_disable>
f0002bc4:	e51b3014 	ldr	r3, [fp, #-20]
f0002bc8:	e5933038 	ldr	r3, [r3, #56]	; 0x38
f0002bcc:	e1a00003 	mov	r0, r3
f0002bd0:	ebfffafb 	bl	f00017c4 <mctl_enable_dll0>
f0002bd4:	e3a0000a 	mov	r0, #10
f0002bd8:	ebfff940 	bl	f00010e0 <delay_us>
f0002bdc:	e3a00001 	mov	r0, #1
f0002be0:	ebfffed3 	bl	f0002734 <DRAMC_clock_output_en>
f0002be4:	e3a00ffa 	mov	r0, #1000	; 0x3e8
f0002be8:	ebfff93c 	bl	f00010e0 <delay_us>
f0002bec:	e3a00078 	mov	r0, #120	; 0x78
f0002bf0:	ebfffee8 	bl	f0002798 <DRAMC_set_autorefresh_cycle>
f0002bf4:	e51b3014 	ldr	r3, [fp, #-20]
f0002bf8:	e5933038 	ldr	r3, [r3, #56]	; 0x38
f0002bfc:	e1a00003 	mov	r0, r3
f0002c00:	ebfffb1e 	bl	f0001880 <mctl_enable_dllx>
f0002c04:	e3a00064 	mov	r0, #100	; 0x64
f0002c08:	ebfff934 	bl	f00010e0 <delay_us>
f0002c0c:	e3013010 	movw	r3, #4112	; 0x1010
f0002c10:	e34f31c0 	movt	r3, #61888	; 0xf1c0
f0002c14:	e5933000 	ldr	r3, [r3]
f0002c18:	e50b3008 	str	r3, [fp, #-8]
f0002c1c:	e51b3008 	ldr	r3, [fp, #-8]
f0002c20:	e3833102 	orr	r3, r3, #-2147483648	; 0x80000000
f0002c24:	e50b3008 	str	r3, [fp, #-8]
f0002c28:	e3013010 	movw	r3, #4112	; 0x1010
f0002c2c:	e34f31c0 	movt	r3, #61888	; 0xf1c0
f0002c30:	e51b2008 	ldr	r2, [fp, #-8]
f0002c34:	e5832000 	str	r2, [r3]
f0002c38:	e3013004 	movw	r3, #4100	; 0x1004
f0002c3c:	e34f31c0 	movt	r3, #61888	; 0xf1c0
f0002c40:	e5933000 	ldr	r3, [r3]
f0002c44:	e50b3008 	str	r3, [fp, #-8]
f0002c48:	e51b3008 	ldr	r3, [fp, #-8]
f0002c4c:	e3c3333e 	bic	r3, r3, #-134217728	; 0xf8000000
f0002c50:	e50b3008 	str	r3, [fp, #-8]
f0002c54:	e51b3008 	ldr	r3, [fp, #-8]
f0002c58:	e3833209 	orr	r3, r3, #-1879048192	; 0x90000000
f0002c5c:	e50b3008 	str	r3, [fp, #-8]
f0002c60:	e3013004 	movw	r3, #4100	; 0x1004
f0002c64:	e34f31c0 	movt	r3, #61888	; 0xf1c0
f0002c68:	e51b2008 	ldr	r2, [fp, #-8]
f0002c6c:	e5832000 	str	r2, [r3]
f0002c70:	e1a00000 	nop			; (mov r0, r0)
f0002c74:	e3013004 	movw	r3, #4100	; 0x1004
f0002c78:	e34f31c0 	movt	r3, #61888	; 0xf1c0
f0002c7c:	e5933000 	ldr	r3, [r3]
f0002c80:	e3530000 	cmp	r3, #0
f0002c84:	bafffffa 	blt	f0002c74 <dram_freq_jum+0x11c>
f0002c88:	e3a0000a 	mov	r0, #10
f0002c8c:	ebfff913 	bl	f00010e0 <delay_us>
f0002c90:	e3013004 	movw	r3, #4100	; 0x1004
f0002c94:	e34f31c0 	movt	r3, #61888	; 0xf1c0
f0002c98:	e5933000 	ldr	r3, [r3]
f0002c9c:	e50b3008 	str	r3, [fp, #-8]
f0002ca0:	e51b3008 	ldr	r3, [fp, #-8]
f0002ca4:	e3c3333e 	bic	r3, r3, #-134217728	; 0xf8000000
f0002ca8:	e50b3008 	str	r3, [fp, #-8]
f0002cac:	e51b3008 	ldr	r3, [fp, #-8]
f0002cb0:	e383332e 	orr	r3, r3, #-1207959552	; 0xb8000000
f0002cb4:	e50b3008 	str	r3, [fp, #-8]
f0002cb8:	e3013004 	movw	r3, #4100	; 0x1004
f0002cbc:	e34f31c0 	movt	r3, #61888	; 0xf1c0
f0002cc0:	e51b2008 	ldr	r2, [fp, #-8]
f0002cc4:	e5832000 	str	r2, [r3]
f0002cc8:	e1a00000 	nop			; (mov r0, r0)
f0002ccc:	e3013004 	movw	r3, #4100	; 0x1004
f0002cd0:	e34f31c0 	movt	r3, #61888	; 0xf1c0
f0002cd4:	e5933000 	ldr	r3, [r3]
f0002cd8:	e3530000 	cmp	r3, #0
f0002cdc:	bafffffa 	blt	f0002ccc <dram_freq_jum+0x174>
f0002ce0:	e3013010 	movw	r3, #4112	; 0x1010
f0002ce4:	e34f31c0 	movt	r3, #61888	; 0xf1c0
f0002ce8:	e5933000 	ldr	r3, [r3]
f0002cec:	e50b3008 	str	r3, [fp, #-8]
f0002cf0:	e51b3008 	ldr	r3, [fp, #-8]
f0002cf4:	e3c33102 	bic	r3, r3, #-2147483648	; 0x80000000
f0002cf8:	e50b3008 	str	r3, [fp, #-8]
f0002cfc:	e3013010 	movw	r3, #4112	; 0x1010
f0002d00:	e34f31c0 	movt	r3, #61888	; 0xf1c0
f0002d04:	e51b2008 	ldr	r2, [fp, #-8]
f0002d08:	e5832000 	str	r2, [r3]
f0002d0c:	ebfffa99 	bl	f0001778 <mctl_itm_enable>
f0002d10:	e301304c 	movw	r3, #4172	; 0x104c
f0002d14:	e34f31c0 	movt	r3, #61888	; 0xf1c0
f0002d18:	e51b2014 	ldr	r2, [fp, #-20]
f0002d1c:	e5922040 	ldr	r2, [r2, #64]	; 0x40
f0002d20:	e1a02a02 	lsl	r2, r2, #20
f0002d24:	e1a02a22 	lsr	r2, r2, #20
f0002d28:	e5832000 	str	r2, [r3]
f0002d2c:	e301305c 	movw	r3, #4188	; 0x105c
f0002d30:	e34f31c0 	movt	r3, #61888	; 0xf1c0
f0002d34:	e51b2014 	ldr	r2, [fp, #-20]
f0002d38:	e5922040 	ldr	r2, [r2, #64]	; 0x40
f0002d3c:	e1a02822 	lsr	r2, r2, #16
f0002d40:	e6ef2072 	uxtb	r2, r2
f0002d44:	e5832000 	str	r2, [r3]
f0002d48:	e3a0000a 	mov	r0, #10
f0002d4c:	ebfff8e3 	bl	f00010e0 <delay_us>
f0002d50:	ea000074 	b	f0002f28 <dram_freq_jum+0x3d0>
f0002d54:	e55b300d 	ldrb	r3, [fp, #-13]
f0002d58:	e3530001 	cmp	r3, #1
f0002d5c:	1a000071 	bne	f0002f28 <dram_freq_jum+0x3d0>
f0002d60:	ebffff02 	bl	f0002970 <mctl_self_refresh_entry>
f0002d64:	ebfffb46 	bl	f0001a84 <mctl_disable_dll>
f0002d68:	e3a00000 	mov	r0, #0
f0002d6c:	ebfffe70 	bl	f0002734 <DRAMC_clock_output_en>
f0002d70:	e51b3014 	ldr	r3, [fp, #-20]
f0002d74:	e5933004 	ldr	r3, [r3, #4]
f0002d78:	e1a00003 	mov	r0, r3
f0002d7c:	ebffff21 	bl	f0002a08 <setup_dram_pll>
f0002d80:	e3a0000a 	mov	r0, #10
f0002d84:	ebfff8d5 	bl	f00010e0 <delay_us>
f0002d88:	ebfffa64 	bl	f0001720 <mctl_itm_disable>
f0002d8c:	e51b3014 	ldr	r3, [fp, #-20]
f0002d90:	e5933038 	ldr	r3, [r3, #56]	; 0x38
f0002d94:	e1a00003 	mov	r0, r3
f0002d98:	ebfffa89 	bl	f00017c4 <mctl_enable_dll0>
f0002d9c:	e3a0000a 	mov	r0, #10
f0002da0:	ebfff8ce 	bl	f00010e0 <delay_us>
f0002da4:	e3a00001 	mov	r0, #1
f0002da8:	ebfffe61 	bl	f0002734 <DRAMC_clock_output_en>
f0002dac:	e3a00ffa 	mov	r0, #1000	; 0x3e8
f0002db0:	ebfff8ca 	bl	f00010e0 <delay_us>
f0002db4:	e51b3014 	ldr	r3, [fp, #-20]
f0002db8:	e5933004 	ldr	r3, [r3, #4]
f0002dbc:	e1a00003 	mov	r0, r3
f0002dc0:	ebfffe74 	bl	f0002798 <DRAMC_set_autorefresh_cycle>
f0002dc4:	e51b3014 	ldr	r3, [fp, #-20]
f0002dc8:	e5933038 	ldr	r3, [r3, #56]	; 0x38
f0002dcc:	e1a00003 	mov	r0, r3
f0002dd0:	ebfffaaa 	bl	f0001880 <mctl_enable_dllx>
f0002dd4:	e3a00064 	mov	r0, #100	; 0x64
f0002dd8:	ebfff8c0 	bl	f00010e0 <delay_us>
f0002ddc:	e3013010 	movw	r3, #4112	; 0x1010
f0002de0:	e34f31c0 	movt	r3, #61888	; 0xf1c0
f0002de4:	e5933000 	ldr	r3, [r3]
f0002de8:	e50b3008 	str	r3, [fp, #-8]
f0002dec:	e51b3008 	ldr	r3, [fp, #-8]
f0002df0:	e3833102 	orr	r3, r3, #-2147483648	; 0x80000000
f0002df4:	e50b3008 	str	r3, [fp, #-8]
f0002df8:	e3013010 	movw	r3, #4112	; 0x1010
f0002dfc:	e34f31c0 	movt	r3, #61888	; 0xf1c0
f0002e00:	e51b2008 	ldr	r2, [fp, #-8]
f0002e04:	e5832000 	str	r2, [r3]
f0002e08:	e3013004 	movw	r3, #4100	; 0x1004
f0002e0c:	e34f31c0 	movt	r3, #61888	; 0xf1c0
f0002e10:	e5933000 	ldr	r3, [r3]
f0002e14:	e50b3008 	str	r3, [fp, #-8]
f0002e18:	e51b3008 	ldr	r3, [fp, #-8]
f0002e1c:	e3c3333e 	bic	r3, r3, #-134217728	; 0xf8000000
f0002e20:	e50b3008 	str	r3, [fp, #-8]
f0002e24:	e51b3008 	ldr	r3, [fp, #-8]
f0002e28:	e3833209 	orr	r3, r3, #-1879048192	; 0x90000000
f0002e2c:	e50b3008 	str	r3, [fp, #-8]
f0002e30:	e3013004 	movw	r3, #4100	; 0x1004
f0002e34:	e34f31c0 	movt	r3, #61888	; 0xf1c0
f0002e38:	e51b2008 	ldr	r2, [fp, #-8]
f0002e3c:	e5832000 	str	r2, [r3]
f0002e40:	e1a00000 	nop			; (mov r0, r0)
f0002e44:	e3013004 	movw	r3, #4100	; 0x1004
f0002e48:	e34f31c0 	movt	r3, #61888	; 0xf1c0
f0002e4c:	e5933000 	ldr	r3, [r3]
f0002e50:	e3530000 	cmp	r3, #0
f0002e54:	bafffffa 	blt	f0002e44 <dram_freq_jum+0x2ec>
f0002e58:	e3a0000a 	mov	r0, #10
f0002e5c:	ebfff89f 	bl	f00010e0 <delay_us>
f0002e60:	e3013004 	movw	r3, #4100	; 0x1004
f0002e64:	e34f31c0 	movt	r3, #61888	; 0xf1c0
f0002e68:	e5933000 	ldr	r3, [r3]
f0002e6c:	e50b3008 	str	r3, [fp, #-8]
f0002e70:	e51b3008 	ldr	r3, [fp, #-8]
f0002e74:	e3c3333e 	bic	r3, r3, #-134217728	; 0xf8000000
f0002e78:	e50b3008 	str	r3, [fp, #-8]
f0002e7c:	e51b3008 	ldr	r3, [fp, #-8]
f0002e80:	e383332e 	orr	r3, r3, #-1207959552	; 0xb8000000
f0002e84:	e50b3008 	str	r3, [fp, #-8]
f0002e88:	e3013004 	movw	r3, #4100	; 0x1004
f0002e8c:	e34f31c0 	movt	r3, #61888	; 0xf1c0
f0002e90:	e51b2008 	ldr	r2, [fp, #-8]
f0002e94:	e5832000 	str	r2, [r3]
f0002e98:	e1a00000 	nop			; (mov r0, r0)
f0002e9c:	e3013004 	movw	r3, #4100	; 0x1004
f0002ea0:	e34f31c0 	movt	r3, #61888	; 0xf1c0
f0002ea4:	e5933000 	ldr	r3, [r3]
f0002ea8:	e3530000 	cmp	r3, #0
f0002eac:	bafffffa 	blt	f0002e9c <dram_freq_jum+0x344>
f0002eb0:	e3013010 	movw	r3, #4112	; 0x1010
f0002eb4:	e34f31c0 	movt	r3, #61888	; 0xf1c0
f0002eb8:	e5933000 	ldr	r3, [r3]
f0002ebc:	e50b3008 	str	r3, [fp, #-8]
f0002ec0:	e51b3008 	ldr	r3, [fp, #-8]
f0002ec4:	e3c33102 	bic	r3, r3, #-2147483648	; 0x80000000
f0002ec8:	e50b3008 	str	r3, [fp, #-8]
f0002ecc:	e3013010 	movw	r3, #4112	; 0x1010
f0002ed0:	e34f31c0 	movt	r3, #61888	; 0xf1c0
f0002ed4:	e51b2008 	ldr	r2, [fp, #-8]
f0002ed8:	e5832000 	str	r2, [r3]
f0002edc:	ebfffa25 	bl	f0001778 <mctl_itm_enable>
f0002ee0:	e3003d24 	movw	r3, #3364	; 0xd24
f0002ee4:	e34f31c2 	movt	r3, #61890	; 0xf1c2
f0002ee8:	e5933000 	ldr	r3, [r3]
f0002eec:	e50b3008 	str	r3, [fp, #-8]
f0002ef0:	e301304c 	movw	r3, #4172	; 0x104c
f0002ef4:	e34f31c0 	movt	r3, #61888	; 0xf1c0
f0002ef8:	e51b2008 	ldr	r2, [fp, #-8]
f0002efc:	e5832000 	str	r2, [r3]
f0002f00:	e3003d28 	movw	r3, #3368	; 0xd28
f0002f04:	e34f31c2 	movt	r3, #61890	; 0xf1c2
f0002f08:	e5933000 	ldr	r3, [r3]
f0002f0c:	e50b3008 	str	r3, [fp, #-8]
f0002f10:	e301305c 	movw	r3, #4188	; 0x105c
f0002f14:	e34f31c0 	movt	r3, #61888	; 0xf1c0
f0002f18:	e51b2008 	ldr	r2, [fp, #-8]
f0002f1c:	e5832000 	str	r2, [r3]
f0002f20:	e3a0000a 	mov	r0, #10
f0002f24:	ebfff86d 	bl	f00010e0 <delay_us>
f0002f28:	e1a00003 	mov	r0, r3
f0002f2c:	e24bd004 	sub	sp, fp, #4
f0002f30:	e8bd8800 	pop	{fp, pc}

f0002f34 <init_DRAM>:
f0002f34:	e92d4800 	push	{fp, lr}
f0002f38:	e28db004 	add	fp, sp, #4
f0002f3c:	e24dd010 	sub	sp, sp, #16
f0002f40:	e50b0010 	str	r0, [fp, #-16]
f0002f44:	e3a03000 	mov	r3, #0
f0002f48:	e50b300c 	str	r3, [fp, #-12]
f0002f4c:	e3a03000 	mov	r3, #0
f0002f50:	e50b3008 	str	r3, [fp, #-8]
f0002f54:	ea000005 	b	f0002f70 <init_DRAM+0x3c>
f0002f58:	e51b0010 	ldr	r0, [fp, #-16]
f0002f5c:	ebfffbd7 	bl	f0001ec0 <DRAMC_init>
f0002f60:	e50b000c 	str	r0, [fp, #-12]
f0002f64:	e51b3008 	ldr	r3, [fp, #-8]
f0002f68:	e2833001 	add	r3, r3, #1
f0002f6c:	e50b3008 	str	r3, [fp, #-8]
f0002f70:	e51b300c 	ldr	r3, [fp, #-12]
f0002f74:	e3530000 	cmp	r3, #0
f0002f78:	1a000002 	bne	f0002f88 <init_DRAM+0x54>
f0002f7c:	e51b3008 	ldr	r3, [fp, #-8]
f0002f80:	e3530003 	cmp	r3, #3
f0002f84:	9afffff3 	bls	f0002f58 <init_DRAM+0x24>
f0002f88:	e51b300c 	ldr	r3, [fp, #-12]
f0002f8c:	e1a00003 	mov	r0, r3
f0002f90:	e24bd004 	sub	sp, fp, #4
f0002f94:	e8bd8800 	pop	{fp, pc}

f0002f98 <dram_exit>:
f0002f98:	e52db004 	push	{fp}		; (str fp, [sp, #-4]!)
f0002f9c:	e28db000 	add	fp, sp, #0
f0002fa0:	e3a03000 	mov	r3, #0
f0002fa4:	e1a00003 	mov	r0, r3
f0002fa8:	e28bd000 	add	sp, fp, #0
f0002fac:	e8bd0800 	pop	{fp}
f0002fb0:	e12fff1e 	bx	lr

f0002fb4 <dram_get_size>:
f0002fb4:	e92d4800 	push	{fp, lr}
f0002fb8:	e28db004 	add	fp, sp, #4
f0002fbc:	ebfffe15 	bl	f0002818 <DRAMC_get_dram_size>
f0002fc0:	e1a03000 	mov	r3, r0
f0002fc4:	e1a00003 	mov	r0, r3
f0002fc8:	e8bd8800 	pop	{fp, pc}

f0002fcc <dram_set_clock>:
f0002fcc:	e92d4800 	push	{fp, lr}
f0002fd0:	e28db004 	add	fp, sp, #4
f0002fd4:	e24dd008 	sub	sp, sp, #8
f0002fd8:	e50b0008 	str	r0, [fp, #-8]
f0002fdc:	e51b3008 	ldr	r3, [fp, #-8]
f0002fe0:	e1a00003 	mov	r0, r3
f0002fe4:	e3a01000 	mov	r1, #0
f0002fe8:	ebfffb2d 	bl	f0001ca4 <mctl_setup_dram_clock>
f0002fec:	e24bd004 	sub	sp, fp, #4
f0002ff0:	e8bd8800 	pop	{fp, pc}

f0002ff4 <dram_set_drive>:
f0002ff4:	e92d4800 	push	{fp, lr}
f0002ff8:	e28db004 	add	fp, sp, #4
f0002ffc:	ebfff9ac 	bl	f00016b4 <mctl_set_drive>
f0003000:	e8bd8800 	pop	{fp, pc}

f0003004 <dram_set_autorefresh_cycle>:
f0003004:	e92d4800 	push	{fp, lr}
f0003008:	e28db004 	add	fp, sp, #4
f000300c:	e24dd008 	sub	sp, sp, #8
f0003010:	e50b0008 	str	r0, [fp, #-8]
f0003014:	e51b0008 	ldr	r0, [fp, #-8]
f0003018:	ebfffdde 	bl	f0002798 <DRAMC_set_autorefresh_cycle>
f000301c:	e24bd004 	sub	sp, fp, #4
f0003020:	e8bd8800 	pop	{fp, pc}

f0003024 <dram_scan_readpipe>:
f0003024:	e92d4800 	push	{fp, lr}
f0003028:	e28db004 	add	fp, sp, #4
f000302c:	ebfffd91 	bl	f0002678 <DRAMC_scan_readpipe>
f0003030:	e1a03000 	mov	r3, r0
f0003034:	e1a00003 	mov	r0, r3
f0003038:	e8bd8800 	pop	{fp, pc}

f000303c <CSWTCH.10>:
f000303c:	00000001 	andeq	r0, r0, r1
f0003040:	00000002 	andeq	r0, r0, r2
f0003044:	00000000 	andeq	r0, r0, r0
f0003048:	00000003 	andeq	r0, r0, r3

Disassembly of section .rodata.str1.4:

f000304c <.rodata.str1.4>:
f000304c:	33323130 	teqcc	r2, #12
f0003050:	37363534 			; <UNDEFINED> instruction: 0x37363534
f0003054:	42413938 	submi	r3, r1, #917504	; 0xe0000
f0003058:	46454443 	strbmi	r4, [r5], -r3, asr #8
f000305c:	00000000 	andeq	r0, r0, r0
f0003060:	20202020 	eorcs	r2, r0, r0, lsr #32
f0003064:	20202020 	eorcs	r2, r0, r0, lsr #32
f0003068:	20202020 	eorcs	r2, r0, r0, lsr #32
f000306c:	20202020 	eorcs	r2, r0, r0, lsr #32
f0003070:	00000000 	andeq	r0, r0, r0
f0003074:	65747441 	ldrbvs	r7, [r4, #-1089]!	; 0x441
f0003078:	6974706d 	ldmdbvs	r4!, {r0, r2, r3, r5, r6, ip, sp, lr}^
f000307c:	6420676e 	strtvs	r6, [r0], #-1902	; 0x76e
f0003080:	73697669 	cmnvc	r9, #110100480	; 0x6900000
f0003084:	206e6f69 	rsbcs	r6, lr, r9, ror #30
f0003088:	30207962 	eorcc	r7, r0, r2, ror #18
f000308c:	00000021 	andeq	r0, r0, r1, lsr #32

Disassembly of section .data:

f0003090 <hpcr_value>:
f0003090:	00000301 	andeq	r0, r0, r1, lsl #6
f0003094:	00000301 	andeq	r0, r0, r1, lsl #6
f0003098:	00000301 	andeq	r0, r0, r1, lsl #6
f000309c:	00000301 	andeq	r0, r0, r1, lsl #6
f00030a0:	00000301 	andeq	r0, r0, r1, lsl #6
f00030a4:	00000301 	andeq	r0, r0, r1, lsl #6
f00030a8:	00000301 	andeq	r0, r0, r1, lsl #6
f00030ac:	00000301 	andeq	r0, r0, r1, lsl #6
	...
f00030d0:	00001031 	andeq	r1, r0, r1, lsr r0
f00030d4:	00001031 	andeq	r1, r0, r1, lsr r0
f00030d8:	00000735 	andeq	r0, r0, r5, lsr r7
f00030dc:	00001035 	andeq	r1, r0, r5, lsr r0
f00030e0:	00001035 	andeq	r1, r0, r5, lsr r0
f00030e4:	00000731 	andeq	r0, r0, r1, lsr r7
f00030e8:	00001031 	andeq	r1, r0, r1, lsr r0
f00030ec:	00000735 	andeq	r0, r0, r5, lsr r7
f00030f0:	00001035 	andeq	r1, r0, r5, lsr r0
f00030f4:	00001031 	andeq	r1, r0, r1, lsr r0
f00030f8:	00000731 	andeq	r0, r0, r1, lsr r7
f00030fc:	00001035 	andeq	r1, r0, r5, lsr r0
f0003100:	00001031 	andeq	r1, r0, r1, lsr r0
f0003104:	00000301 	andeq	r0, r0, r1, lsl #6
f0003108:	00000301 	andeq	r0, r0, r1, lsl #6
f000310c:	00000731 	andeq	r0, r0, r1, lsr r7

Disassembly of section .bss:

f0003110 <dram_host_back>:
	...

f0003190 <dram_suspend_flag>:
f0003190:	00000000 	andeq	r0, r0, r0

f0003194 <backup_perf_counter_ctrl_reg>:
f0003194:	00000000 	andeq	r0, r0, r0

f0003198 <backup_perf_counter_enable_reg>:
f0003198:	00000000 	andeq	r0, r0, r0

f000319c <overhead>:
f000319c:	00000000 	andeq	r0, r0, r0

f00031a0 <cpu_freq>:
f00031a0:	00000000 	andeq	r0, r0, r0

f00031a4 <sp_backup>:
f00031a4:	00000000 	andeq	r0, r0, r0

f00031a8 <dram_traning_back>:
	...

f00031e8 <g_dram_para>:
	...

f0003238 <debugger_buffer>:
	...

Disassembly of section .debug_info:

00000000 <.debug_info>:
       0:	00000614 	andeq	r0, r0, r4, lsl r6
       4:	00000002 	andeq	r0, r0, r2
       8:	01040000 	mrseq	r0, (UNDEF: 4)
       c:	00000134 	andeq	r0, r0, r4, lsr r1
      10:	00024701 	andeq	r4, r2, r1, lsl #14
      14:	00003500 	andeq	r3, r0, r0, lsl #10
	...
      20:	0000e000 	andeq	lr, r0, r0
      24:	00000000 	andeq	r0, r0, r0
      28:	06010200 	streq	r0, [r1], -r0, lsl #4
      2c:	000001b6 			; <UNDEFINED> instruction: 0x000001b6
      30:	b4080102 	strlt	r0, [r8], #-258	; 0x102
      34:	02000001 	andeq	r0, r0, #1
      38:	00190502 	andseq	r0, r9, r2, lsl #10
      3c:	02020000 	andeq	r0, r2, #0
      40:	00021a07 	andeq	r1, r2, r7, lsl #20
      44:	05040300 	streq	r0, [r4, #-768]	; 0x300
      48:	00746e69 	rsbseq	r6, r4, r9, ror #28
      4c:	0000bf04 	andeq	fp, r0, r4, lsl #30
      50:	57130300 	ldrpl	r0, [r3, -r0, lsl #6]
      54:	02000000 	andeq	r0, r0, #0
      58:	01cc0704 	biceq	r0, ip, r4, lsl #14
      5c:	08020000 	stmdaeq	r2, {}	; <UNPREDICTABLE>
      60:	00011305 	andeq	r1, r1, r5, lsl #6
      64:	07080200 	streq	r0, [r8, -r0, lsl #4]
      68:	000001c2 	andeq	r0, r0, r2, asr #3
      6c:	00020805 	andeq	r0, r2, r5, lsl #16
      70:	5c025000 	stcpl	0, cr5, [r2], {-0}
      74:	00000191 	muleq	r0, r1, r1
      78:	00027e06 	andeq	r7, r2, r6, lsl #28
      7c:	575e0200 	ldrbpl	r0, [lr, -r0, lsl #4]
      80:	02000000 	andeq	r0, r0, #0
      84:	e9060023 	stmdb	r6, {r0, r1, r5}
      88:	02000002 	andeq	r0, r0, #2
      8c:	0000575f 	andeq	r5, r0, pc, asr r7
      90:	04230200 	strteq	r0, [r3], #-512	; 0x200
      94:	00032106 	andeq	r2, r3, r6, lsl #2
      98:	57600200 	strbpl	r0, [r0, -r0, lsl #4]!
      9c:	02000000 	andeq	r0, r0, #0
      a0:	68060823 	stmdavs	r6, {r0, r1, r5, fp}
      a4:	02000002 	andeq	r0, r0, #2
      a8:	00005761 	andeq	r5, r0, r1, ror #14
      ac:	0c230200 	sfmeq	f0, 4, [r3], #-0
      b0:	0001e506 	andeq	lr, r1, r6, lsl #10
      b4:	57620200 	strbpl	r0, [r2, -r0, lsl #4]!
      b8:	02000000 	andeq	r0, r0, #0
      bc:	13061023 	movwne	r1, #24611	; 0x6023
      c0:	02000003 	andeq	r0, r0, #3
      c4:	00005763 	andeq	r5, r0, r3, ror #14
      c8:	14230200 	strtne	r0, [r3], #-512	; 0x200
      cc:	0002f206 	andeq	pc, r2, r6, lsl #4
      d0:	57640200 	strbpl	r0, [r4, -r0, lsl #4]!
      d4:	02000000 	andeq	r0, r0, #0
      d8:	2b061823 	blcs	18616c <__dram_freq_start+0x18616c>
      dc:	02000003 	andeq	r0, r0, #3
      e0:	00005765 	andeq	r5, r0, r5, ror #14
      e4:	1c230200 	sfmne	f0, 4, [r3], #-0
      e8:	0002a706 	andeq	sl, r2, r6, lsl #14
      ec:	57660200 	strbpl	r0, [r6, -r0, lsl #4]!
      f0:	02000000 	andeq	r0, r0, #0
      f4:	d9062023 	stmdble	r6, {r0, r1, r5, sp}
      f8:	02000001 	andeq	r0, r0, #1
      fc:	00005767 	andeq	r5, r0, r7, ror #14
     100:	24230200 	strtcs	r0, [r3], #-512	; 0x200
     104:	00176606 	andseq	r6, r7, r6, lsl #12
     108:	57680200 	strbpl	r0, [r8, -r0, lsl #4]!
     10c:	02000000 	andeq	r0, r0, #0
     110:	d7062823 	strle	r2, [r6, -r3, lsr #16]
     114:	02000000 	andeq	r0, r0, #0
     118:	00005769 	andeq	r5, r0, r9, ror #14
     11c:	2c230200 	sfmcs	f0, 4, [r3], #-0
     120:	0000e106 	andeq	lr, r0, r6, lsl #2
     124:	576a0200 	strbpl	r0, [sl, -r0, lsl #4]!
     128:	02000000 	andeq	r0, r0, #0
     12c:	eb063023 	bl	18c1c0 <__dram_freq_start+0x18c1c0>
     130:	02000000 	andeq	r0, r0, #0
     134:	0000576b 	andeq	r5, r0, fp, ror #14
     138:	34230200 	strtcc	r0, [r3], #-512	; 0x200
     13c:	0000f506 	andeq	pc, r0, r6, lsl #10
     140:	576c0200 	strbpl	r0, [ip, -r0, lsl #4]!
     144:	02000000 	andeq	r0, r0, #0
     148:	ff063823 			; <UNDEFINED> instruction: 0xff063823
     14c:	02000000 	andeq	r0, r0, #0
     150:	0000576d 	andeq	r5, r0, sp, ror #14
     154:	3c230200 	sfmcc	f0, 4, [r3], #-0
     158:	00010906 	andeq	r0, r1, r6, lsl #18
     15c:	576e0200 	strbpl	r0, [lr, -r0, lsl #4]!
     160:	02000000 	andeq	r0, r0, #0
     164:	2a064023 	bcs	1901f8 <__dram_freq_start+0x1901f8>
     168:	02000001 	andeq	r0, r0, #1
     16c:	0000576f 	andeq	r5, r0, pc, ror #14
     170:	44230200 	strtmi	r0, [r3], #-512	; 0x200
     174:	0002af06 	andeq	sl, r2, r6, lsl #30
     178:	57700200 	ldrbpl	r0, [r0, -r0, lsl #4]!
     17c:	02000000 	andeq	r0, r0, #0
     180:	b9064823 	stmdblt	r6, {r0, r1, r5, fp, lr}
     184:	02000002 	andeq	r0, r0, #2
     188:	00005771 	andeq	r5, r0, r1, ror r7
     18c:	4c230200 	sfmmi	f0, 4, [r3], #-0
     190:	01610400 	cmneq	r1, r0, lsl #8
     194:	72020000 	andvc	r0, r2, #0
     198:	0000006c 	andeq	r0, r0, ip, rrx
     19c:	59080407 	stmdbpl	r8, {r0, r1, r2, sl}
     1a0:	01000002 	tsteq	r0, r2
     1a4:	e10101d0 	ldrd	r0, [r1, -r0]
     1a8:	09000001 	stmdbeq	r0, {r0}
     1ac:	0000045c 	andeq	r0, r0, ip, asr r4
     1b0:	019cd001 	orrseq	sp, ip, r1
     1b4:	730a0000 	movwvc	r0, #40960	; 0xa000
     1b8:	01006372 	tsteq	r0, r2, ror r3
     1bc:	00019cd0 	ldrdeq	r9, [r1], -r0
     1c0:	006e0a00 	rsbeq	r0, lr, r0, lsl #20
     1c4:	0045d001 	subeq	sp, r5, r1
     1c8:	2d0b0000 	stccs	0, cr0, [fp, #-0]
     1cc:	01000002 	tsteq	r0, r2
     1d0:	0001e1d2 	ldrdeq	lr, [r1], -r2
     1d4:	02760b00 	rsbseq	r0, r6, #0
     1d8:	d3010000 	movwle	r0, #4096	; 0x1000
     1dc:	000001e1 	andeq	r0, r0, r1, ror #3
     1e0:	e7040c00 	str	r0, [r4, -r0, lsl #24]
     1e4:	02000001 	andeq	r0, r0, #1
     1e8:	01bd0801 			; <UNDEFINED> instruction: 0x01bd0801
     1ec:	010d0000 	mrseq	r0, (UNDEF: 13)
     1f0:	0000009e 	muleq	r0, lr, r0
     1f4:	01014a01 	tsteq	r1, r1, lsl #20
     1f8:	00000211 	andeq	r0, r0, r1, lsl r2
     1fc:	0100690e 	tsteq	r0, lr, lsl #18
     200:	0000454c 	andeq	r4, r0, ip, asr #10
     204:	02a20b00 	adceq	r0, r2, #0
     208:	4d010000 	stcmi	0, cr0, [r1, #-0]
     20c:	00000211 	andeq	r0, r0, r1, lsl r2
     210:	57040c00 	strpl	r0, [r4, -r0, lsl #24]
     214:	0d000000 	stceq	0, cr0, [r0, #-0]
     218:	00018901 	andeq	r8, r1, r1, lsl #18
     21c:	01380100 	teqeq	r8, r0, lsl #2
     220:	00023c01 	andeq	r3, r2, r1, lsl #24
     224:	02a20b00 	adceq	r0, r2, #0
     228:	3a010000 	bcc	40230 <__dram_freq_start+0x40230>
     22c:	00000211 	andeq	r0, r0, r1, lsl r2
     230:	0019310b 	andseq	r3, r9, fp, lsl #2
     234:	573b0100 	ldrpl	r0, [fp, -r0, lsl #2]!
     238:	00000000 	andeq	r0, r0, r0
     23c:	0235010f 	eorseq	r0, r5, #-1073741821	; 0xc0000003
     240:	42010000 	andmi	r0, r1, #0
     244:	00005701 	andeq	r5, r0, r1, lsl #14
     248:	02650100 	rsbeq	r0, r5, #0
     24c:	a20b0000 	andge	r0, fp, #0
     250:	01000002 	tsteq	r0, r2
     254:	00021144 	andeq	r1, r2, r4, asr #2
     258:	19310b00 	ldmdbne	r1!, {r8, r9, fp}
     25c:	45010000 	strmi	r0, [r1, #-0]
     260:	00000057 	andeq	r0, r0, r7, asr r0
     264:	01010d00 	tsteq	r1, r0, lsl #26
     268:	01000003 	tsteq	r0, r3
     26c:	88010152 	stmdahi	r1, {r1, r4, r6, r8}
     270:	0e000002 	cdpeq	0, 0, cr0, cr0, cr2, {0}
     274:	54010069 	strpl	r0, [r1], #-105	; 0x69
     278:	00000045 	andeq	r0, r0, r5, asr #32
     27c:	0002a20b 	andeq	sl, r2, fp, lsl #4
     280:	11550100 	cmpne	r5, r0, lsl #2
     284:	00000002 	andeq	r0, r0, r2
     288:	00019e10 	andeq	r9, r1, r0, lsl lr
     28c:	00014c00 	andeq	r4, r1, r0, lsl #24
     290:	000180f0 	strdeq	r8, [r1], -r0
     294:	007d02f0 	ldrshteq	r0, [sp], #-32	; 0xffffffe0
     298:	00000303 	andeq	r0, r0, r3, lsl #6
     29c:	0001ab11 	andeq	sl, r1, r1, lsl fp
     2a0:	00000000 	andeq	r0, r0, r0
     2a4:	01b61100 			; <UNDEFINED> instruction: 0x01b61100
     2a8:	001e0000 	andseq	r0, lr, r0
     2ac:	c1120000 	tstgt	r2, r0
     2b0:	01000001 	tsteq	r0, r1
     2b4:	01ca1352 	biceq	r1, sl, r2, asr r3
     2b8:	51010000 	mrspl	r0, (UNDEF: 1)
     2bc:	0001d513 	andeq	sp, r1, r3, lsl r5
     2c0:	14500100 	ldrbne	r0, [r0], #-256	; 0x100
     2c4:	0000019e 	muleq	r0, lr, r1
     2c8:	f0000160 			; <UNDEFINED> instruction: 0xf0000160
     2cc:	f0000180 			; <UNDEFINED> instruction: 0xf0000180
     2d0:	c111d001 	tstgt	r1, r1
     2d4:	3c000001 	stccc	0, cr0, [r0], {1}
     2d8:	15000000 	strne	r0, [r0, #-0]
     2dc:	000001b6 			; <UNDEFINED> instruction: 0x000001b6
     2e0:	0001ab15 	andeq	sl, r1, r5, lsl fp
     2e4:	01601600 	cmneq	r0, r0, lsl #12
     2e8:	0180f000 	orreq	pc, r0, r0
     2ec:	ca17f000 	bgt	5fc2f4 <__dram_freq_start+0x5fc2f4>
     2f0:	4f000001 	svcmi	0x00000001
     2f4:	17000000 	strne	r0, [r0, -r0]
     2f8:	000001d5 	ldrdeq	r0, [r0], -r5
     2fc:	00000062 	andeq	r0, r0, r2, rrx
     300:	18000000 	stmdane	r0, {}	; <UNPREDICTABLE>
     304:	0002d501 	andeq	sp, r2, r1, lsl #10
     308:	012b0100 	teqeq	fp, r0, lsl #2
     30c:	f0000180 			; <UNDEFINED> instruction: 0xf0000180
     310:	f00001a8 			; <UNDEFINED> instruction: 0xf00001a8
     314:	4d007d02 	stcmi	13, cr7, [r0, #-8]
     318:	19000003 	stmdbne	r0, {r0, r1}
     31c:	00001733 	andeq	r1, r0, r3, lsr r7
     320:	00452b01 	subeq	r2, r5, r1, lsl #22
     324:	50010000 	andpl	r0, r1, r0
     328:	0002a21a 	andeq	sl, r2, sl, lsl r2
     32c:	112d0100 	teqne	sp, r0, lsl #2
     330:	01000002 	tsteq	r0, r2
     334:	19311a53 	ldmdbne	r1!, {r0, r1, r4, r6, r9, fp, ip}
     338:	2e010000 	cdpcs	0, 0, cr0, cr1, cr0, {0}
     33c:	00000057 	andeq	r0, r0, r7, asr r0
     340:	0600730b 	streq	r7, [r0], -fp, lsl #6
     344:	80808011 	addhi	r8, r0, r1, lsl r0
     348:	9f217c80 	svcls	0x00217c80
     34c:	02171000 	andseq	r1, r7, #0
     350:	01a80000 			; <UNDEFINED> instruction: 0x01a80000
     354:	01c0f000 	biceq	pc, r0, r0
     358:	7d02f000 	stcvc	0, cr15, [r2, #-0]
     35c:	00037d00 	andeq	r7, r3, r0, lsl #26
     360:	02251b00 	eoreq	r1, r5, #0
     364:	a4c40000 	strbge	r0, [r4], #0
     368:	137f8e80 	cmnne	pc, #2048	; 0x800
     36c:	00000230 	andeq	r0, r0, r0, lsr r2
     370:	04c4730b 	strbeq	r7, [r4], #779	; 0x30b
     374:	00000c06 	andeq	r0, r0, r6, lsl #24
     378:	9f210002 	svcls	0x00210002
     37c:	023c1000 	eorseq	r1, ip, #0
     380:	01c00000 	biceq	r0, r0, r0
     384:	01dcf000 	bicseq	pc, ip, r0
     388:	7d02f000 	stcvc	0, cr15, [r2, #-0]
     38c:	0003ac00 	andeq	sl, r3, r0, lsl #24
     390:	024e1b00 	subeq	r1, lr, #0
     394:	a4c40000 	strbge	r0, [r4], #0
     398:	137f8e80 	cmnne	pc, #2048	; 0x800
     39c:	00000259 	andeq	r0, r0, r9, asr r2
     3a0:	04c4730a 	strbeq	r7, [r4], #778	; 0x30a
     3a4:	ffff1106 			; <UNDEFINED> instruction: 0xffff1106
     3a8:	009f1a77 	addseq	r1, pc, r7, ror sl	; <UNPREDICTABLE>
     3ac:	0001ee1c 	andeq	lr, r1, ip, lsl lr
     3b0:	0001dc00 	andeq	sp, r1, r0, lsl #24
     3b4:	000224f0 	strdeq	r2, [r2], -r0
     3b8:	000075f0 	strdeq	r7, [r0], -r0
     3bc:	0003d400 	andeq	sp, r3, r0, lsl #8
     3c0:	01fc1700 	mvnseq	r1, r0, lsl #14
     3c4:	00950000 	addseq	r0, r5, r0
     3c8:	05170000 	ldreq	r0, [r7, #-0]
     3cc:	a9000002 	stmdbge	r0, {r1}
     3d0:	00000000 	andeq	r0, r0, r0
     3d4:	00026510 	andeq	r6, r2, r0, lsl r5
     3d8:	00022400 	andeq	r2, r2, r0, lsl #8
     3dc:	000260f0 	strdeq	r6, [r2], -r0
     3e0:	007d02f0 	ldrshteq	r0, [sp], #-32	; 0xffffffe0
     3e4:	000003fb 	strdeq	r0, [r0], -fp
     3e8:	00027317 	andeq	r7, r2, r7, lsl r3
     3ec:	0000c100 	andeq	ip, r0, r0, lsl #2
     3f0:	027c1700 	rsbseq	r1, ip, #0
     3f4:	00d50000 	sbcseq	r0, r5, r0
     3f8:	18000000 	stmdane	r0, {}	; <UNPREDICTABLE>
     3fc:	0000ad01 	andeq	sl, r0, r1, lsl #26
     400:	015a0100 	cmpeq	sl, r0, lsl #2
     404:	f0000260 			; <UNDEFINED> instruction: 0xf0000260
     408:	f000027c 			; <UNDEFINED> instruction: 0xf000027c
     40c:	49007d02 	stmdbmi	r0, {r1, r8, sl, fp, ip, sp, lr}
     410:	19000004 	stmdbne	r0, {r2}
     414:	00001733 	andeq	r1, r0, r3, lsr r7
     418:	00455a01 	subeq	r5, r5, r1, lsl #20
     41c:	50010000 	andpl	r0, r1, r0
     420:	0100690e 	tsteq	r0, lr, lsl #18
     424:	0000455c 	andeq	r4, r0, ip, asr r5
     428:	02a21d00 	adceq	r1, r2, #0
     42c:	5d010000 	stcpl	0, cr0, [r1, #-0]
     430:	00000211 	andeq	r0, r0, r1, lsl r2
     434:	8e80a4d0 	mcrhi	4, 4, sl, cr0, cr0, {6}
     438:	02ce1e7f 	sbceq	r1, lr, #2032	; 0x7f0
     43c:	5e010000 	cdppl	0, 0, cr0, cr1, cr0, {0}
     440:	00000057 	andeq	r0, r0, r7, asr r0
     444:	000000f8 	strdeq	r0, [r0], -r8
     448:	00011f00 	andeq	r1, r1, r0, lsl #30
     44c:	01000000 	mrseq	r0, (UNDEF: 0)
     450:	00450175 	subeq	r0, r5, r5, ror r1
     454:	00000000 	andeq	r0, r0, r0
     458:	014cf000 	mrseq	pc, (UNDEF: 76)	; <UNPREDICTABLE>
     45c:	0120f000 	msreq	CPSR_, r0
     460:	057d0000 	ldrbeq	r0, [sp, #-0]!
     464:	56200000 	strtpl	r0, [r0], -r0
     468:	01000001 	tsteq	r0, r1
     46c:	00005775 	andeq	r5, r0, r5, ror r7
     470:	00014000 	andeq	r4, r1, r0
     474:	02c32000 	sbceq	r2, r3, #0
     478:	76010000 	strvc	r0, [r1], -r0
     47c:	0000057d 	andeq	r0, r0, sp, ror r5
     480:	0000015e 	andeq	r0, r0, lr, asr r1
     484:	00012120 	andeq	r2, r1, r0, lsr #2
     488:	9c760100 	ldflse	f0, [r6], #-0
     48c:	7c000001 	stcvc	0, cr0, [r0], {1}
     490:	1e000001 	cdpne	0, 0, cr0, cr0, cr1, {0}
     494:	00000182 	andeq	r0, r0, r2, lsl #3
     498:	01e17801 	mvneq	r7, r1, lsl #16
     49c:	018f0000 	orreq	r0, pc, r0
     4a0:	9b0b0000 	blls	2c04a8 <__dram_freq_start+0x2c04a8>
     4a4:	01000002 	tsteq	r0, r2
     4a8:	00058379 	andeq	r8, r5, r9, ror r3
     4ac:	01f71d00 	mvnseq	r1, r0, lsl #26
     4b0:	7a010000 	bvc	404b8 <__dram_freq_start+0x404b8>
     4b4:	0000004c 	andeq	r0, r0, ip, asr #32
     4b8:	8081fffc 	strdhi	pc, [r1], ip
     4bc:	7401217f 	strvc	r2, [r1], #-383	; 0x17f
     4c0:	01000001 	tsteq	r0, r1
     4c4:	000045af 	andeq	r4, r0, pc, lsr #11
     4c8:	04d00100 	ldrbeq	r0, [r0], #256	; 0x100
     4cc:	00220000 	eoreq	r0, r2, r0
     4d0:	0001ee23 	andeq	lr, r1, r3, lsr #28
     4d4:	00005000 	andeq	r5, r0, r0
     4d8:	000000f0 	strdeq	r0, [r0], -r0	; <UNPREDICTABLE>
     4dc:	fc8f0100 	stc2	1, cr0, [pc], {0}
     4e0:	24000004 	strcs	r0, [r0], #-4
     4e4:	00000020 	andeq	r0, r0, r0, lsr #32
     4e8:	0001fc17 	andeq	pc, r1, r7, lsl ip	; <UNPREDICTABLE>
     4ec:	0001a200 	andeq	sl, r1, r0, lsl #4
     4f0:	02051700 	andeq	r1, r5, #0
     4f4:	01b60000 			; <UNDEFINED> instruction: 0x01b60000
     4f8:	00000000 	andeq	r0, r0, r0
     4fc:	00021723 	andeq	r1, r2, r3, lsr #14
     500:	00008000 	andeq	r8, r0, r0
     504:	000040f0 	strdeq	r4, [r0], -r0
     508:	289d0100 	ldmcs	sp, {r8}
     50c:	24000005 	strcs	r0, [r0], #-5
     510:	00000060 	andeq	r0, r0, r0, rrx
     514:	00022517 	andeq	r2, r2, r7, lsl r5
     518:	0001ce00 	andeq	ip, r1, r0, lsl #28
     51c:	02301700 	eorseq	r1, r0, #0
     520:	01e60000 	mvneq	r0, r0
     524:	00000000 	andeq	r0, r0, r0
     528:	00023c23 	andeq	r3, r2, r3, lsr #24
     52c:	0000cc00 	andeq	ip, r0, r0, lsl #24
     530:	000080f0 	strdeq	r8, [r0], -r0
     534:	54b10100 	ldrtpl	r0, [r1], #256	; 0x100
     538:	24000005 	strcs	r0, [r0], #-5
     53c:	00000098 	muleq	r0, r8, r0
     540:	00024e17 	andeq	r4, r2, r7, lsl lr
     544:	00020300 	andeq	r0, r2, r0, lsl #6
     548:	02591700 	subseq	r1, r9, #0
     54c:	021b0000 	andseq	r0, fp, #0
     550:	00000000 	andeq	r0, r0, r0
     554:	00026525 	andeq	r6, r2, r5, lsr #10
     558:	0000ec00 	andeq	lr, r0, r0, lsl #24
     55c:	0000b0f0 	strdeq	fp, [r0], -r0
     560:	24ba0100 	ldrtcs	r0, [sl], #256	; 0x100
     564:	000000c8 	andeq	r0, r0, r8, asr #1
     568:	00027317 	andeq	r7, r2, r7, lsl r3
     56c:	00023700 	andeq	r3, r2, r0, lsl #14
     570:	027c1700 	rsbseq	r1, ip, #0
     574:	024b0000 	subeq	r0, fp, #0
     578:	00000000 	andeq	r0, r0, r0
     57c:	91040c00 	tstls	r4, r0, lsl #24
     580:	0c000001 	stceq	0, cr0, [r0], {1}
     584:	00004504 	andeq	r4, r0, r4, lsl #10
     588:	00572600 	subseq	r2, r7, r0, lsl #12
     58c:	05990000 	ldreq	r0, [r9]
     590:	57270000 	strpl	r0, [r7, -r0]!
     594:	1f000000 	svcne	0x00000000
     598:	028c1a00 	addeq	r1, ip, #0
     59c:	2a010000 	bcs	405a4 <__dram_freq_start+0x405a4>
     5a0:	00000589 	andeq	r0, r0, r9, lsl #11
     5a4:	31100305 	tstcc	r0, r5, lsl #6
     5a8:	2328f000 	msrcs	CPSR_f, #0
     5ac:	04000000 	streq	r0, [r0], #-0
     5b0:	00004516 	andeq	r4, r0, r6, lsl r5
     5b4:	28010100 	stmdacs	r1, {r8}
     5b8:	000001a8 	andeq	r0, r0, r8, lsr #3
     5bc:	01e11801 	mvneq	r1, r1, lsl #16
     5c0:	01010000 	mrseq	r0, (UNDEF: 1)
     5c4:	00000f28 	andeq	r0, r0, r8, lsr #30
     5c8:	e1190100 	tst	r9, r0, lsl #2
     5cc:	01000001 	tsteq	r0, r1
     5d0:	019c2901 	orrseq	r2, ip, r1, lsl #18
     5d4:	1d010000 	stcne	0, cr0, [r1, #-0]
     5d8:	00000191 	muleq	r0, r1, r1
     5dc:	e8030501 	stmda	r3, {r0, r8, sl}
     5e0:	26f00031 			; <UNDEFINED> instruction: 0x26f00031
     5e4:	00000030 	andeq	r0, r0, r0, lsr r0
     5e8:	000005f3 	strdeq	r0, [r0], -r3
     5ec:	00005727 	andeq	r5, r0, r7, lsr #14
     5f0:	29003f00 	stmdbcs	r0, {r8, r9, sl, fp, ip, sp}
     5f4:	000000c5 	andeq	r0, r0, r5, asr #1
     5f8:	05e31e01 	strbeq	r1, [r3, #3585]!	; 0xe01
     5fc:	05010000 	streq	r0, [r1, #-0]
     600:	0031a803 	eorseq	sl, r1, r3, lsl #16
     604:	01fe29f0 	ldrsheq	r2, [lr, #144]!	; 0x90
     608:	1f010000 	svcne	0x00010000
     60c:	0000004c 	andeq	r0, r0, ip, asr #32
     610:	a4030501 	strge	r0, [r3], #-1281	; 0x501
     614:	00f00031 	rscseq	r0, r0, r1, lsr r0
     618:	000002b7 			; <UNDEFINED> instruction: 0x000002b7
     61c:	022c0002 	eoreq	r0, ip, #2
     620:	01040000 	mrseq	r0, (UNDEF: 4)
     624:	00000134 	andeq	r0, r0, r4, lsr r1
     628:	00034401 	andeq	r4, r3, r1, lsl #8
     62c:	00003500 	andeq	r3, r0, r0, lsl #10
     630:	00027c00 	andeq	r7, r2, r0, lsl #24
     634:	000414f0 	strdeq	r1, [r4], -r0
     638:	00015cf0 	strdeq	r5, [r1], -r0
     63c:	06010200 	streq	r0, [r1], -r0, lsl #4
     640:	000001b6 			; <UNDEFINED> instruction: 0x000001b6
     644:	b4080102 	strlt	r0, [r8], #-258	; 0x102
     648:	02000001 	andeq	r0, r0, #1
     64c:	00190502 	andseq	r0, r9, r2, lsl #10
     650:	02020000 	andeq	r0, r2, #0
     654:	00021a07 	andeq	r1, r2, r7, lsl #20
     658:	03840300 	orreq	r0, r4, #0
     65c:	12020000 	andne	r0, r2, #0
     660:	0000004c 	andeq	r0, r0, ip, asr #32
     664:	69050404 	stmdbvs	r5, {r2, sl}
     668:	0300746e 	movweq	r7, #1134	; 0x46e
     66c:	000000bf 	strheq	r0, [r0], -pc	; <UNPREDICTABLE>
     670:	005e1302 	subseq	r1, lr, r2, lsl #6
     674:	04020000 	streq	r0, [r2], #-0
     678:	0001cc07 	andeq	ip, r1, r7, lsl #24
     67c:	05080200 	streq	r0, [r8, #-512]	; 0x200
     680:	00000113 	andeq	r0, r0, r3, lsl r1
     684:	c2070802 	andgt	r0, r7, #131072	; 0x20000
     688:	05000001 	streq	r0, [r0, #-1]
     68c:	000003bf 			; <UNDEFINED> instruction: 0x000003bf
     690:	90014f01 	andls	r4, r1, r1, lsl #30
     694:	01000000 	mrseq	r0, (UNDEF: 0)
     698:	00000090 	muleq	r0, r0, r0
     69c:	00038a06 	andeq	r8, r3, r6, lsl #20
     6a0:	53510100 	cmppl	r1, #0
     6a4:	00000000 	andeq	r0, r0, r0
     6a8:	bd080102 	stflts	f0, [r8, #-8]
     6ac:	07000001 	streq	r0, [r0, -r1]
     6b0:	00000334 	andeq	r0, r0, r4, lsr r3
     6b4:	0101a801 	tsteq	r1, r1, lsl #16
     6b8:	000000ae 	andeq	r0, r0, lr, lsr #1
     6bc:	01006308 	tsteq	r0, r8, lsl #6
     6c0:	000090a8 	andeq	r9, r0, r8, lsr #1
     6c4:	68050000 	stmdavs	r5, {}	; <UNPREDICTABLE>
     6c8:	01000003 	tsteq	r0, r3
     6cc:	009001b7 			; <UNDEFINED> instruction: 0x009001b7
     6d0:	cb010000 	blgt	406d8 <__dram_freq_start+0x406d8>
     6d4:	06000000 	streq	r0, [r0], -r0
     6d8:	0000038a 	andeq	r0, r0, sl, lsl #7
     6dc:	0053b901 	subseq	fp, r3, r1, lsl #18
     6e0:	09000000 	stmdbeq	r0, {}	; <UNPREDICTABLE>
     6e4:	00035601 	andeq	r5, r3, r1, lsl #12
     6e8:	01140100 	tsteq	r4, r0, lsl #2
     6ec:	f000027c 			; <UNDEFINED> instruction: 0xf000027c
     6f0:	f0000290 			; <UNDEFINED> instruction: 0xf0000290
     6f4:	0a007d02 	beq	1fb04 <__dram_freq_start+0x1fb04>
     6f8:	00039b01 	andeq	r9, r3, r1, lsl #22
     6fc:	016b0100 	cmneq	fp, r0, lsl #2
     700:	00000041 	andeq	r0, r0, r1, asr #32
     704:	f0000290 			; <UNDEFINED> instruction: 0xf0000290
     708:	f0000298 			; <UNDEFINED> instruction: 0xf0000298
     70c:	0b007d02 	bleq	1fb1c <__dram_freq_start+0x1fb1c>
     710:	0b000001 	bleq	71c <__dram_freq_start+0x71c>
     714:	000003fe 	strdeq	r0, [r0], -lr
     718:	010b6b01 	tsteq	fp, r1, lsl #22
     71c:	026e0000 	rsbeq	r0, lr, #0
     720:	0c000000 	stceq	0, cr0, [r0], {-0}
     724:	00011104 	andeq	r1, r1, r4, lsl #2
     728:	00900d00 	addseq	r0, r0, r0, lsl #26
     72c:	010a0000 	mrseq	r0, (UNDEF: 10)
     730:	000003ad 	andeq	r0, r0, sp, lsr #7
     734:	53017101 	movwpl	r7, #4353	; 0x1101
     738:	98000000 	stmdals	r0, {}	; <UNPREDICTABLE>
     73c:	e4f00002 	ldrbt	r0, [r0], #2
     740:	02f00002 	rscseq	r0, r0, #2
     744:	017e007d 	cmneq	lr, sp, ror r0
     748:	620e0000 	andvs	r0, lr, #0
     74c:	01006675 	tsteq	r0, r5, ror r6
     750:	00017e71 	andeq	r7, r1, r1, ror lr
     754:	00028100 	andeq	r8, r2, r0, lsl #2
     758:	006e0f00 	rsbeq	r0, lr, r0, lsl #30
     75c:	00537101 	subseq	r7, r3, r1, lsl #2
     760:	51010000 	mrspl	r0, (UNDEF: 1)
     764:	01006910 	tsteq	r0, r0, lsl r9
     768:	00005373 	andeq	r5, r0, r3, ror r3
     76c:	00029f00 	andeq	r9, r2, r0, lsl #30
     770:	00631100 	rsbeq	r1, r3, r0, lsl #2
     774:	00907401 	addseq	r7, r0, r1, lsl #8
     778:	73120000 	tstvc	r2, #0
     77c:	a0000000 	andge	r0, r0, r0
     780:	f8f00002 			; <UNDEFINED> instruction: 0xf8f00002
     784:	01000000 	mrseq	r0, (UNDEF: 0)
     788:	01101377 	tsteq	r0, r7, ror r3
     78c:	84140000 	ldrhi	r0, [r4], #-0
     790:	00000000 	andeq	r0, r0, r0
     794:	040c0000 	streq	r0, [ip], #-0
     798:	00000090 	muleq	r0, r0, r0
     79c:	038f0115 	orreq	r0, pc, #1073741829	; 0x40000005
     7a0:	7f010000 	svcvc	0x00010000
     7a4:	0002e401 	andeq	lr, r2, r1, lsl #8
     7a8:	000350f0 	strdeq	r5, [r3], -r0
     7ac:	007d02f0 	ldrshteq	r0, [sp], #-32	; 0xffffffe0
     7b0:	000001ec 	andeq	r0, r0, ip, ror #3
     7b4:	0003e116 	andeq	lr, r3, r6, lsl r1
     7b8:	53810100 	orrpl	r0, r1, #0
     7bc:	00000000 	andeq	r0, r0, r0
     7c0:	17016e36 	smladxne	r1, r6, lr, r6
     7c4:	01006664 	tsteq	r0, r4, ror #12
     7c8:	00005382 	andeq	r5, r0, r2, lsl #7
     7cc:	6c100d00 	ldcvs	13, cr0, [r0], {-0}
     7d0:	01007263 	tsteq	r0, r3, ror #4
     7d4:	00005383 	andeq	r5, r0, r3, lsl #7
     7d8:	0002ca00 	andeq	ip, r2, r0, lsl #20
     7dc:	65721800 	ldrbvs	r1, [r2, #-2048]!	; 0x800
     7e0:	84010067 	strhi	r0, [r1], #-103	; 0x67
     7e4:	000001ec 	andeq	r0, r0, ip, ror #3
     7e8:	8e8880ec 	cdphi	0, 8, cr8, cr8, cr12, {7}
     7ec:	1733197f 			; <UNDEFINED> instruction: 0x1733197f
     7f0:	85010000 	strhi	r0, [r1, #-0]
     7f4:	00000053 	andeq	r0, r0, r3, asr r0
     7f8:	00691700 	rsbeq	r1, r9, r0, lsl #14
     7fc:	00538601 	subseq	r8, r3, r1, lsl #12
     800:	00000000 	andeq	r0, r0, r0
     804:	01f2040c 	mvnseq	r0, ip, lsl #8
     808:	5e1a0000 	cdppl	0, 1, cr0, cr10, cr0, {0}
     80c:	1b000000 	blne	814 <__dram_freq_start+0x814>
     810:	00037801 	andeq	r7, r3, r1, lsl #16
     814:	01cc0100 	biceq	r0, ip, r0, lsl #2
     818:	00000041 	andeq	r0, r0, r1, asr #32
     81c:	f0000350 			; <UNDEFINED> instruction: 0xf0000350
     820:	f00003c8 			; <UNDEFINED> instruction: 0xf00003c8
     824:	000002dd 	ldrdeq	r0, [r0], -sp
     828:	00000256 	andeq	r0, r0, r6, asr r2
     82c:	0003fe0b 	andeq	pc, r3, fp, lsl #28
     830:	0bcc0100 	bleq	ff300c38 <__bss_end+0xf2fd900>
     834:	fd000001 	stc2	0, cr0, [r0, #-4]
     838:	1c000002 	stcne	0, cr0, [r0], {2}
     83c:	00000097 	muleq	r0, r7, r0
     840:	f0000360 			; <UNDEFINED> instruction: 0xf0000360
     844:	00000128 	andeq	r0, r0, r8, lsr #2
     848:	023cd601 	eorseq	sp, ip, #1048576	; 0x100000
     84c:	a41d0000 	ldrge	r0, [sp], #-0
     850:	00000000 	andeq	r0, r0, r0
     854:	0000971e 	andeq	r9, r0, lr, lsl r7
     858:	00037c00 	andeq	r7, r3, r0, lsl #24
     85c:	000394f0 	strdeq	r9, [r3], -r0
     860:	1fd801f0 	svcne	0x00d801f0
     864:	000000a4 	andeq	r0, r0, r4, lsr #1
     868:	0000031d 	andeq	r0, r0, sp, lsl r3
     86c:	01200000 	teqeq	r0, r0
     870:	000003d5 	ldrdeq	r0, [r0], -r5
     874:	5301df01 	movwpl	sp, #7937	; 0x1f01
     878:	c8000000 	stmdagt	r0, {}	; <UNPREDICTABLE>
     87c:	14f00003 	ldrbtne	r0, [r0], #3
     880:	02f00004 	rscseq	r0, r0, #4
     884:	620e007d 	andvs	r0, lr, #125	; 0x7d
     888:	01006675 	tsteq	r0, r5, ror r6
     88c:	00017edf 	ldrdeq	r7, [r1], -pc	; <UNPREDICTABLE>
     890:	00033000 	andeq	r3, r3, r0
     894:	006e0f00 	rsbeq	r0, lr, r0, lsl #30
     898:	0053df01 	subseq	sp, r3, r1, lsl #30
     89c:	51010000 	mrspl	r0, (UNDEF: 1)
     8a0:	01006910 	tsteq	r0, r0, lsl r9
     8a4:	000053e1 	andeq	r5, r0, r1, ror #7
     8a8:	00034e00 	andeq	r4, r3, r0, lsl #28
     8ac:	00631100 	rsbeq	r1, r3, r0, lsl #2
     8b0:	0090e201 	addseq	lr, r0, r1, lsl #4
     8b4:	ae120000 	cdpge	0, 1, cr0, cr2, cr0, {0}
     8b8:	d0000000 	andle	r0, r0, r0
     8bc:	48f00003 	ldmmi	r0!, {r0, r1}^
     8c0:	01000001 	tsteq	r0, r1
     8c4:	016013e5 	cmneq	r0, r5, ror #7
     8c8:	bf140000 	svclt	0x00140000
     8cc:	00000000 	andeq	r0, r0, r0
     8d0:	90000000 	andls	r0, r0, r0
     8d4:	02000009 	andeq	r0, r0, #9
     8d8:	0003ff00 	andeq	pc, r3, r0, lsl #30
     8dc:	34010400 	strcc	r0, [r1], #-1024	; 0x400
     8e0:	01000001 	tsteq	r0, r1
     8e4:	000004a5 	andeq	r0, r0, r5, lsr #9
     8e8:	00000035 	andeq	r0, r0, r5, lsr r0
     8ec:	f0000414 			; <UNDEFINED> instruction: 0xf0000414
     8f0:	f0000d94 			; <UNDEFINED> instruction: 0xf0000d94
     8f4:	0000021f 	andeq	r0, r0, pc, lsl r2
     8f8:	b6060102 	strlt	r0, [r6], -r2, lsl #2
     8fc:	02000001 	andeq	r0, r0, #1
     900:	01b40801 			; <UNDEFINED> instruction: 0x01b40801
     904:	02020000 	andeq	r0, r2, #0
     908:	00001905 	andeq	r1, r0, r5, lsl #18
     90c:	07020200 	streq	r0, [r2, -r0, lsl #4]
     910:	0000021a 	andeq	r0, r0, sl, lsl r2
     914:	00038403 	andeq	r8, r3, r3, lsl #8
     918:	4c120200 	lfmmi	f0, 4, [r2], {-0}
     91c:	04000000 	streq	r0, [r0], #-0
     920:	6e690504 	cdpvs	5, 6, cr0, cr9, cr4, {0}
     924:	04020074 	streq	r0, [r2], #-116	; 0x74
     928:	0001cc07 	andeq	ip, r1, r7, lsl #24
     92c:	05080200 	streq	r0, [r8, #-512]	; 0x200
     930:	00000113 	andeq	r0, r0, r3, lsl r1
     934:	c2070802 	andgt	r0, r7, #131072	; 0x20000
     938:	03000001 	movweq	r0, #1
     93c:	000003ec 	andeq	r0, r0, ip, ror #7
     940:	00531702 	subseq	r1, r3, r2, lsl #14
     944:	04050000 	streq	r0, [r5], #-0
     948:	00041b03 	andeq	r1, r4, r3, lsl #22
     94c:	80280300 	eorhi	r0, r8, r0, lsl #6
     950:	06000000 	streq	r0, [r0], -r0
     954:	0000042a 	andeq	r0, r0, sl, lsr #8
     958:	9a000404 	bls	1970 <__dram_freq_start+0x1970>
     95c:	07000000 	streq	r0, [r0, -r0]
     960:	00000477 	andeq	r0, r0, r7, ror r4
     964:	00000073 	andeq	r0, r0, r3, ror r0
     968:	01002302 	tsteq	r0, r2, lsl #6
     96c:	042c0300 	strteq	r0, [ip], #-768	; 0x300
     970:	66030000 	strvs	r0, [r3], -r0
     974:	00000075 	andeq	r0, r0, r5, ror r0
     978:	04700108 	ldrbteq	r0, [r0], #-264	; 0x108
     97c:	1f010000 	svcne	0x00010000
     980:	00006801 	andeq	r6, r0, r1, lsl #16
     984:	00cb0100 	sbceq	r0, fp, r0, lsl #2
     988:	73090000 	movwvc	r0, #36864	; 0x9000
     98c:	cb1f0100 	blgt	7c0d94 <__dram_freq_start+0x7c0d94>
     990:	0a000000 	beq	998 <__dram_freq_start+0x998>
     994:	01006373 	tsteq	r0, r3, ror r3
     998:	0000cb21 	andeq	ip, r0, r1, lsr #22
     99c:	040b0000 	streq	r0, [fp], #-0
     9a0:	000000d1 	ldrdeq	r0, [r0], -r1
     9a4:	0000d60c 	andeq	sp, r0, ip, lsl #12
     9a8:	08010200 	stmdaeq	r1, {r9}
     9ac:	000001bd 			; <UNDEFINED> instruction: 0x000001bd
     9b0:	04400108 	strbeq	r0, [r0], #-264	; 0x108
     9b4:	30010000 	andcc	r0, r1, r0
     9b8:	00011101 	andeq	r1, r1, r1, lsl #2
     9bc:	01110100 	tsteq	r1, r0, lsl #2
     9c0:	5c0d0000 	stcpl	0, cr0, [sp], {-0}
     9c4:	01000004 	tsteq	r0, r4
     9c8:	00011130 	andeq	r1, r1, r0, lsr r1
     9cc:	72730900 	rsbsvc	r0, r3, #0
     9d0:	30010063 	andcc	r0, r1, r3, rrx
     9d4:	000000cb 	andeq	r0, r0, fp, asr #1
     9d8:	706d740a 	rsbvc	r7, sp, sl, lsl #8
     9dc:	11320100 	teqne	r2, r0, lsl #2
     9e0:	00000001 	andeq	r0, r0, r1
     9e4:	00d6040b 	sbcseq	r0, r6, fp, lsl #8
     9e8:	a50e0000 	strge	r0, [lr, #-0]
     9ec:	14000000 	strne	r0, [r0], #-0
     9f0:	40f00004 	rscsmi	r0, r0, r4
     9f4:	02f00004 	rscseq	r0, r0, #4
     9f8:	013e007d 	teqeq	lr, sp, ror r0
     9fc:	b70f0000 	strlt	r0, [pc, -r0]
     a00:	79000000 	stmdbvc	r0, {}	; <UNPREDICTABLE>
     a04:	10000003 	andne	r0, r0, r3
     a08:	000000c0 	andeq	r0, r0, r0, asr #1
     a0c:	00000397 	muleq	r0, r7, r3
     a10:	00dd0e00 	sbcseq	r0, sp, r0, lsl #28
     a14:	04400000 	strbeq	r0, [r0], #-0
     a18:	045cf000 	ldrbeq	pc, [ip], #-0	; <UNPREDICTABLE>
     a1c:	7d02f000 	stcvc	0, cr15, [r2, #-0]
     a20:	00016c00 	andeq	r6, r1, r0, lsl #24
     a24:	00ef0f00 	rsceq	r0, pc, r0, lsl #30
     a28:	03cd0000 	biceq	r0, sp, #0
     a2c:	fa0f0000 	blx	3c0a34 <__dram_freq_start+0x3c0a34>
     a30:	eb000000 	bl	a38 <__dram_freq_start+0xa38>
     a34:	11000003 	tstne	r0, r3
     a38:	00000105 	andeq	r0, r0, r5, lsl #2
     a3c:	12005001 	andne	r5, r0, #1
     a40:	00045301 	andeq	r5, r4, r1, lsl #6
     a44:	013c0100 	teqeq	ip, r0, lsl #2
     a48:	00000111 	andeq	r0, r0, r1, lsl r1
     a4c:	f000045c 			; <UNDEFINED> instruction: 0xf000045c
     a50:	f0000484 			; <UNDEFINED> instruction: 0xf0000484
     a54:	c1007d02 	tstgt	r0, r2, lsl #26
     a58:	13000001 	movwne	r0, #1
     a5c:	0000045c 	andeq	r0, r0, ip, asr r4
     a60:	01113c01 	tsteq	r1, r1, lsl #24
     a64:	50010000 	andpl	r0, r1, r0
     a68:	63727314 	cmnvs	r2, #1342177280	; 0x50000000
     a6c:	cb3c0100 	blgt	f00e74 <__dram_freq_start+0xf00e74>
     a70:	01000000 	mrseq	r0, (UNDEF: 0)
     a74:	0ec31551 	mcreq	5, 6, r1, cr3, cr1, {2}
     a78:	3c010000 	stccc	0, cr0, [r1], {-0}
     a7c:	00000068 	andeq	r0, r0, r8, rrx
     a80:	0000040b 	andeq	r0, r0, fp, lsl #8
     a84:	706d7416 	rsbvc	r7, sp, r6, lsl r4
     a88:	113e0100 	teqne	lr, r0, lsl #2
     a8c:	36000001 	strcc	r0, [r0], -r1
     a90:	00000004 	andeq	r0, r0, r4
     a94:	044c0112 	strbeq	r0, [ip], #-274	; 0x112
     a98:	4d010000 	stcmi	0, cr0, [r1, #-0]
     a9c:	00011101 	andeq	r1, r1, r1, lsl #2
     aa0:	00048400 	andeq	r8, r4, r0, lsl #8
     aa4:	0004c4f0 	strdeq	ip, [r4], -r0
     aa8:	007d02f0 	ldrshteq	r0, [sp], #-32	; 0xffffffe0
     aac:	00000209 	andeq	r0, r0, r9, lsl #4
     ab0:	00045c15 	andeq	r5, r4, r5, lsl ip
     ab4:	114d0100 	mrsne	r0, (UNDEF: 93)
     ab8:	49000001 	stmdbmi	r0, {r0}
     abc:	17000004 	strne	r0, [r0, -r4]
     ac0:	00637273 	rsbeq	r7, r3, r3, ror r2
     ac4:	00cb4d01 	sbceq	r4, fp, r1, lsl #26
     ac8:	048a0000 	streq	r0, [sl], #0
     acc:	74180000 	ldrvc	r0, [r8], #-0
     ad0:	0100706d 	tsteq	r0, sp, rrx
     ad4:	0001114f 	andeq	r1, r1, pc, asr #2
     ad8:	00500100 	subseq	r0, r0, r0, lsl #2
     adc:	04610119 	strbteq	r0, [r1], #-281	; 0x119
     ae0:	5d010000 	stcpl	0, cr0, [r1, #-0]
     ae4:	00011101 	andeq	r1, r1, r1, lsl #2
     ae8:	0004c400 	andeq	ip, r4, r0, lsl #8
     aec:	00052cf0 	strdeq	r2, [r5], -r0
     af0:	00049df0 	strdeq	r9, [r4], -r0
     af4:	00026100 	andeq	r6, r2, r0, lsl #2
     af8:	045c1500 	ldrbeq	r1, [ip], #-1280	; 0x500
     afc:	5d010000 	stcpl	0, cr0, [r1, #-0]
     b00:	00000111 	andeq	r0, r0, r1, lsl r1
     b04:	000004bd 			; <UNDEFINED> instruction: 0x000004bd
     b08:	63727317 	cmnvs	r2, #1543503872	; 0x5c000000
     b0c:	cb5d0100 	blgt	1740f14 <__dram_freq_start+0x1740f14>
     b10:	14000000 	strne	r0, [r0], #-0
     b14:	15000005 	strne	r0, [r0, #-5]
     b18:	00000ec3 	andeq	r0, r0, r3, asr #29
     b1c:	00685d01 	rsbeq	r5, r8, r1, lsl #26
     b20:	05340000 	ldreq	r0, [r4, #-0]!
     b24:	74180000 	ldrvc	r0, [r8], #-0
     b28:	0100706d 	tsteq	r0, sp, rrx
     b2c:	0001115f 	andeq	r1, r1, pc, asr r1
     b30:	00500100 	subseq	r0, r0, r0, lsl #2
     b34:	04840112 	streq	r0, [r4], #274	; 0x112
     b38:	73010000 	movwvc	r0, #4096	; 0x1000
     b3c:	00004c01 	andeq	r4, r0, r1, lsl #24
     b40:	00052c00 	andeq	r2, r5, r0, lsl #24
     b44:	00055cf0 	strdeq	r5, [r5], -r0
     b48:	007d02f0 	ldrshteq	r0, [sp], #-32	; 0xffffffe0
     b4c:	000002b0 			; <UNDEFINED> instruction: 0x000002b0
     b50:	00736317 	rsbseq	r6, r3, r7, lsl r3
     b54:	00cb7301 	sbceq	r7, fp, r1, lsl #6
     b58:	055f0000 	ldrbeq	r0, [pc, #-0]	; b60 <__dram_freq_start+0xb60>
     b5c:	63140000 	tstvs	r4, #0
     b60:	73010074 	movwvc	r0, #4212	; 0x1074
     b64:	000000cb 	andeq	r0, r0, fp, asr #1
     b68:	63185101 	tstvs	r8, #1073741824	; 0x40000000
     b6c:	75010031 	strvc	r0, [r1, #-49]	; 0x31
     b70:	0000002c 	andeq	r0, r0, ip, lsr #32
     b74:	63185301 	tstvs	r8, #67108864	; 0x4000000
     b78:	75010032 	strvc	r0, [r1, #-50]	; 0x32
     b7c:	0000002c 	andeq	r0, r0, ip, lsr #32
     b80:	12005201 	andne	r5, r0, #268435456	; 0x10000000
     b84:	00049001 	andeq	r9, r4, r1
     b88:	01880100 	orreq	r0, r8, r0, lsl #2
     b8c:	0000004c 	andeq	r0, r0, ip, asr #32
     b90:	f000055c 			; <UNDEFINED> instruction: 0xf000055c
     b94:	f00005d4 			; <UNDEFINED> instruction: 0xf00005d4
     b98:	14007d02 	strne	r7, [r0], #-3330	; 0xd02
     b9c:	17000003 	strne	r0, [r0, -r3]
     ba0:	01007363 	tsteq	r0, r3, ror #6
     ba4:	0000cb88 	andeq	ip, r0, r8, lsl #23
     ba8:	00057d00 	andeq	r7, r5, r0, lsl #26
     bac:	74631700 	strbtvc	r1, [r3], #-1792	; 0x700
     bb0:	cb880100 	blgt	fe200fb8 <__bss_end+0xe1fdc80>
     bb4:	aa000000 	bge	bbc <__dram_freq_start+0xbbc>
     bb8:	15000005 	strne	r0, [r0, #-5]
     bbc:	00000ec3 	andeq	r0, r0, r3, asr #29
     bc0:	00688801 	rsbeq	r8, r8, r1, lsl #16
     bc4:	05d70000 	ldrbeq	r0, [r7]
     bc8:	63160000 	tstvs	r6, #0
     bcc:	8a010031 	bhi	40c98 <__dram_freq_start+0x40c98>
     bd0:	0000002c 	andeq	r0, r0, ip, lsr #32
     bd4:	000005ea 	andeq	r0, r0, sl, ror #11
     bd8:	00326316 	eorseq	r6, r2, r6, lsl r3
     bdc:	002c8a01 	eoreq	r8, ip, r1, lsl #20
     be0:	06130000 	ldreq	r0, [r3], -r0
     be4:	19000000 	stmdbne	r0, {}	; <UNPREDICTABLE>
     be8:	00044701 	andeq	r4, r4, r1, lsl #14
     bec:	01a10100 			; <UNDEFINED> instruction: 0x01a10100
     bf0:	00000111 	andeq	r0, r0, r1, lsl r1
     bf4:	f00005d4 			; <UNDEFINED> instruction: 0xf00005d4
     bf8:	f00006b8 			; <UNDEFINED> instruction: 0xf00006b8
     bfc:	0000063c 	andeq	r0, r0, ip, lsr r6
     c00:	000003a5 	andeq	r0, r0, r5, lsr #7
     c04:	00193115 	andseq	r3, r9, r5, lsl r1
     c08:	4ca10100 	stfmis	f0, [r1]
     c0c:	69000000 	stmdbvs	r0, {}	; <UNPREDICTABLE>
     c10:	15000006 	strne	r0, [r0, #-6]
     c14:	000003fe 	strdeq	r0, [r0], -lr
     c18:	0111a101 	tsteq	r1, r1, lsl #2
     c1c:	069d0000 	ldreq	r0, [sp], r0
     c20:	9f150000 	svcls	0x00150000
     c24:	01000004 	tsteq	r0, r4
     c28:	00004ca1 	andeq	r4, r0, r1, lsr #25
     c2c:	0006bb00 	andeq	fp, r6, r0, lsl #22
     c30:	04051a00 	streq	r1, [r5], #-2560	; 0xa00
     c34:	a3010000 	movwge	r0, #4096	; 0x1000
     c38:	000003a5 	andeq	r0, r0, r5, lsr #7
     c3c:	1b509102 	blne	142504c <__dram_freq_start+0x142504c>
     c40:	000004c4 	andeq	r0, r0, r4, asr #9
     c44:	004ca401 	subeq	sl, ip, r1, lsl #8
     c48:	06d90000 	ldrbeq	r0, [r9], r0
     c4c:	69160000 	ldmdbvs	r6, {}	; <UNPREDICTABLE>
     c50:	4ca50100 	stfmis	f0, [r5]
     c54:	04000000 	streq	r0, [r0], #-0
     c58:	16000007 	strne	r0, [r0], -r7
     c5c:	a601006a 	strge	r0, [r1], -sl, rrx
     c60:	0000004c 	andeq	r0, r0, ip, asr #32
     c64:	00000739 	andeq	r0, r0, r9, lsr r7
     c68:	0003f81a 	andeq	pc, r3, sl, lsl r8	; <UNPREDICTABLE>
     c6c:	b5a70100 	strlt	r0, [r7, #256]!	; 0x100
     c70:	03000003 	movweq	r0, #3
     c74:	007fbc91 			; <UNDEFINED> instruction: 0x007fbc91
     c78:	0000d61c 	andeq	sp, r0, ip, lsl r6
     c7c:	0003b500 	andeq	fp, r3, r0, lsl #10
     c80:	00531d00 	subseq	r1, r3, r0, lsl #26
     c84:	000f0000 	andeq	r0, pc, r0
     c88:	0000d61c 	andeq	sp, r0, ip, lsl r6
     c8c:	0003c500 	andeq	ip, r3, r0, lsl #10
     c90:	00531d00 	subseq	r1, r3, r0, lsl #26
     c94:	00100000 	andseq	r0, r0, r0
     c98:	048b0119 	streq	r0, [fp], #281	; 0x119
     c9c:	d0010000 	andle	r0, r1, r0
     ca0:	00011101 	andeq	r1, r1, r1, lsl #2
     ca4:	0006b800 	andeq	fp, r6, r0, lsl #16
     ca8:	000774f0 	strdeq	r7, [r7], -r0
     cac:	000758f0 	strdeq	r5, [r7], -r0
     cb0:	00044700 	andeq	r4, r4, r0, lsl #14
     cb4:	19311500 	ldmdbne	r1!, {r8, sl, ip}
     cb8:	d0010000 	andle	r0, r1, r0
     cbc:	00000053 	andeq	r0, r0, r3, asr r0
     cc0:	00000785 	andeq	r0, r0, r5, lsl #15
     cc4:	0003fe15 	andeq	pc, r3, r5, lsl lr	; <UNPREDICTABLE>
     cc8:	11d00100 	bicsne	r0, r0, r0, lsl #2
     ccc:	b9000001 	stmdblt	r0, {r0}
     cd0:	15000007 	strne	r0, [r0, #-7]
     cd4:	0000049f 	muleq	r0, pc, r4	; <UNPREDICTABLE>
     cd8:	004cd001 	subeq	sp, ip, r1
     cdc:	07d70000 	ldrbeq	r0, [r7, r0]
     ce0:	051a0000 	ldreq	r0, [sl, #-0]
     ce4:	01000004 	tsteq	r0, r4
     ce8:	0003a5d2 	ldrdeq	sl, [r3], -r2
     cec:	50910200 	addspl	r0, r1, r0, lsl #4
     cf0:	01006916 	tsteq	r0, r6, lsl r9
     cf4:	00004cd3 	ldrdeq	r4, [r0], -r3
     cf8:	0007f500 	andeq	pc, r7, r0, lsl #10
     cfc:	006a1600 	rsbeq	r1, sl, r0, lsl #12
     d00:	004cd401 	subeq	sp, ip, r1, lsl #8
     d04:	081e0000 	ldmdaeq	lr, {}	; <UNPREDICTABLE>
     d08:	f81a0000 			; <UNDEFINED> instruction: 0xf81a0000
     d0c:	01000003 	tsteq	r0, r3
     d10:	0003b5d5 	ldrdeq	fp, [r3], -r5
     d14:	bc910300 	ldclt	3, cr0, [r1], {0}
     d18:	011e007f 	tsteq	lr, pc, ror r0
     d1c:	00000434 	andeq	r0, r0, r4, lsr r4
     d20:	01017101 	tsteq	r1, r1, lsl #2
     d24:	00000041 	andeq	r0, r0, r1, asr #32
     d28:	f0000774 			; <UNDEFINED> instruction: 0xf0000774
     d2c:	f00007d0 			; <UNDEFINED> instruction: 0xf00007d0
     d30:	00000832 	andeq	r0, r0, r2, lsr r8
     d34:	000004a5 	andeq	r0, r0, r5, lsr #9
     d38:	0003fe1f 	andeq	pc, r3, pc, lsl lr	; <UNPREDICTABLE>
     d3c:	01710100 	cmneq	r1, r0, lsl #2
     d40:	00000111 	andeq	r0, r0, r1, lsl r1
     d44:	0000085e 	andeq	r0, r0, lr, asr r8
     d48:	6e656c20 	cdpvs	12, 6, cr6, cr5, cr0, {1}
     d4c:	01710100 	cmneq	r1, r0, lsl #2
     d50:	00000041 	andeq	r0, r0, r1, asr #32
     d54:	0000087c 	andeq	r0, r0, ip, ror r8
     d58:	00043a1f 	andeq	r3, r4, pc, lsl sl
     d5c:	01710100 	cmneq	r1, r0, lsl #2
     d60:	00000041 	andeq	r0, r0, r1, asr #32
     d64:	0000088f 	andeq	r0, r0, pc, lsl #17
     d68:	00047c21 	andeq	r7, r4, r1, lsr #24
     d6c:	01750100 	cmneq	r5, r0, lsl #2
     d70:	000003b5 			; <UNDEFINED> instruction: 0x000003b5
     d74:	00549102 	subseq	r9, r4, r2, lsl #2
     d78:	0498011e 	ldreq	r0, [r8], #286	; 0x11e
     d7c:	07010000 	streq	r0, [r1, -r0]
     d80:	00410101 	subeq	r0, r1, r1, lsl #2
     d84:	07d00000 	ldrbeq	r0, [r0, r0]
     d88:	0ac0f000 	beq	ff03cd90 <__bss_end+0xf039a58>
     d8c:	08adf000 	stmiaeq	sp!, {ip, sp, lr, pc}
     d90:	072c0000 	streq	r0, [ip, -r0]!
     d94:	691f0000 	ldmdbvs	pc, {}	; <UNPREDICTABLE>
     d98:	01000004 	tsteq	r0, r4
     d9c:	00cb0107 	sbceq	r0, fp, r7, lsl #2
     da0:	08e60000 	stmiaeq	r6!, {}^	; <UNPREDICTABLE>
     da4:	21220000 	teqcs	r2, r0
     da8:	000003f3 	strdeq	r0, [r0], -r3
     dac:	9a010901 	bls	431b8 <__dram_freq_start+0x431b8>
     db0:	02000000 	andeq	r0, r0, #0
     db4:	fe214c91 	mcr2	12, 1, r4, cr1, cr1, {4}
     db8:	01000003 	tsteq	r0, r3
     dbc:	03a5010a 			; <UNDEFINED> instruction: 0x03a5010a
     dc0:	91030000 	mrsls	r0, (UNDEF: 3)
     dc4:	5b237fbc 	blpl	8e0cbc <__dram_freq_start+0x8e0cbc>
     dc8:	01000004 	tsteq	r0, r4
     dcc:	0111010b 	tsteq	r1, fp, lsl #2
     dd0:	09350000 	ldmdbeq	r5!, {}	; <UNPREDICTABLE>
     dd4:	e7230000 	str	r0, [r3, -r0]!
     dd8:	01000003 	tsteq	r0, r3
     ddc:	0111010c 	tsteq	r1, ip, lsl #2
     de0:	09a70000 	stmibeq	r7!, {}	; <UNPREDICTABLE>
     de4:	3a230000 	bcc	8c0dec <__dram_freq_start+0x8c0dec>
     de8:	01000004 	tsteq	r0, r4
     dec:	0041010d 	subeq	r0, r1, sp, lsl #2
     df0:	09bd0000 	ldmibeq	sp!, {}	; <UNPREDICTABLE>
     df4:	6c240000 	stcvs	0, cr0, [r4], #-0
     df8:	01006e65 	tsteq	r0, r5, ror #28
     dfc:	0041010e 	subeq	r0, r1, lr, lsl #2
     e00:	09db0000 	ldmibeq	fp, {}^	; <UNPREDICTABLE>
     e04:	78250000 	stmdavc	r5!, {}	; <UNPREDICTABLE>
     e08:	b8000001 	stmdalt	r0, {r0}
     e0c:	26000005 	strcs	r0, [r0], -r5
     e10:	00043401 	andeq	r3, r4, r1, lsl #8
     e14:	012f0100 	teqeq	pc, r0, lsl #2
     e18:	0000004c 	andeq	r0, r0, ip, asr #32
     e1c:	00055001 	andeq	r5, r5, r1
     e20:	27002200 	strcs	r2, [r0, -r0, lsl #4]
     e24:	000000a5 	andeq	r0, r0, r5, lsr #1
     e28:	f0000908 			; <UNDEFINED> instruction: 0xf0000908
     e2c:	f0000928 			; <UNDEFINED> instruction: 0xf0000928
     e30:	81014301 	tsthi	r1, r1, lsl #6
     e34:	0f000005 	svceq	0x00000005
     e38:	000000b7 	strheq	r0, [r0], -r7
     e3c:	00000a3d 	andeq	r0, r0, sp, lsr sl
     e40:	00090828 	andeq	r0, r9, r8, lsr #16
     e44:	000928f0 	strdeq	r2, [r9], -r0
     e48:	00c010f0 	strdeq	r1, [r0], #0
     e4c:	0a500000 	beq	1400e54 <__dram_freq_start+0x1400e54>
     e50:	00000000 	andeq	r0, r0, r0
     e54:	0000dd29 	andeq	sp, r0, r9, lsr #26
     e58:	00094400 	andeq	r4, r9, r0, lsl #8
     e5c:	000954f0 	strdeq	r5, [r9], -r0
     e60:	014501f0 	strdeq	r0, [r5, #-16]
     e64:	0000fa0f 	andeq	pc, r0, pc, lsl #20
     e68:	000a7b00 	andeq	r7, sl, r0, lsl #22
     e6c:	00ef0f00 	rsceq	r0, pc, r0, lsl #30
     e70:	0a8e0000 	beq	fe380e78 <__bss_end+0xe37db40>
     e74:	44280000 	strtmi	r0, [r8], #-0
     e78:	54f00009 	ldrbtpl	r0, [r0], #9
     e7c:	10f00009 	rscsne	r0, r0, r9
     e80:	00000105 	andeq	r0, r0, r5, lsl #2
     e84:	00000aac 	andeq	r0, r0, ip, lsr #21
     e88:	27000000 	strcs	r0, [r0, -r0]
     e8c:	000000dd 	ldrdeq	r0, [r0], -sp
     e90:	f0000974 			; <UNDEFINED> instruction: 0xf0000974
     e94:	f0000984 			; <UNDEFINED> instruction: 0xf0000984
     e98:	f2015301 	vcgt.s8	d5, d1, d1
     e9c:	0f000005 	svceq	0x00000005
     ea0:	000000fa 	strdeq	r0, [r0], -sl
     ea4:	00000abf 			; <UNDEFINED> instruction: 0x00000abf
     ea8:	0000ef0f 	andeq	lr, r0, pc, lsl #30
     eac:	000ad500 	andeq	sp, sl, r0, lsl #10
     eb0:	09742800 	ldmdbeq	r4!, {fp, sp}^
     eb4:	0984f000 	stmibeq	r4, {ip, sp, lr, pc}
     eb8:	0510f000 	ldreq	pc, [r0, #-0]
     ebc:	f3000001 	vhadd.u8	d0, d0, d1
     ec0:	0000000a 	andeq	r0, r0, sl
     ec4:	00a52700 	adceq	r2, r5, r0, lsl #14
     ec8:	09840000 	stmibeq	r4, {}	; <UNPREDICTABLE>
     ecc:	09a4f000 	stmibeq	r4!, {ip, sp, lr, pc}
     ed0:	5401f000 	strpl	pc, [r1], #-0
     ed4:	00061f01 	andeq	r1, r6, r1, lsl #30
     ed8:	00b72a00 	adcseq	r2, r7, r0, lsl #20
     edc:	84280000 	strthi	r0, [r8], #-0
     ee0:	a4f00009 	ldrbtge	r0, [r0], #9
     ee4:	10f00009 	rscsne	r0, r0, r9
     ee8:	000000c0 	andeq	r0, r0, r0, asr #1
     eec:	00000b06 	andeq	r0, r0, r6, lsl #22
     ef0:	ac2b0000 	stcge	0, cr0, [fp], #-0
     ef4:	14f00009 	ldrbtne	r0, [r0], #9
     ef8:	a8f0000a 	ldmge	r0!, {r1, r3}^
     efc:	26000006 	strcs	r0, [r0], -r6
     f00:	00043401 	andeq	r3, r4, r1, lsl #8
     f04:	012f0100 	teqeq	pc, r0, lsl #2
     f08:	0000004c 	andeq	r0, r0, ip, asr #32
     f0c:	00064001 	andeq	r4, r6, r1
     f10:	27002200 	strcs	r2, [r0, -r0, lsl #4]
     f14:	000000a5 	andeq	r0, r0, r5, lsr #1
     f18:	f00009c8 			; <UNDEFINED> instruction: 0xf00009c8
     f1c:	f00009e8 			; <UNDEFINED> instruction: 0xf00009e8
     f20:	71013901 	tstvc	r1, r1, lsl #18
     f24:	0f000006 	svceq	0x00000006
     f28:	000000b7 	strheq	r0, [r0], -r7
     f2c:	00000b34 	andeq	r0, r0, r4, lsr fp
     f30:	0009c828 	andeq	ip, r9, r8, lsr #16
     f34:	0009e8f0 	strdeq	lr, [r9], -r0
     f38:	00c010f0 	strdeq	r1, [r0], #0
     f3c:	0b470000 	bleq	11c0f44 <__dram_freq_start+0x11c0f44>
     f40:	00000000 	andeq	r0, r0, r0
     f44:	0000dd29 	andeq	sp, r0, r9, lsr #26
     f48:	000a0400 	andeq	r0, sl, r0, lsl #8
     f4c:	000a14f0 	strdeq	r1, [sl], -r0
     f50:	013b01f0 			; <UNDEFINED> instruction: 0x013b01f0
     f54:	0000fa0f 	andeq	pc, r0, pc, lsl #20
     f58:	000b7200 	andeq	r7, fp, r0, lsl #4
     f5c:	00ef0f00 	rsceq	r0, pc, r0, lsl #30
     f60:	0b850000 	bleq	fe140f68 <__bss_end+0xe13dc30>
     f64:	04280000 	strteq	r0, [r8], #-0
     f68:	14f0000a 	ldrbtne	r0, [r0], #10
     f6c:	10f0000a 	rscsne	r0, r0, sl
     f70:	00000105 	andeq	r0, r0, r5, lsl #2
     f74:	00000ba3 	andeq	r0, r0, r3, lsr #23
     f78:	28000000 	stmdacs	r0, {}	; <UNPREDICTABLE>
     f7c:	f0000a48 			; <UNDEFINED> instruction: 0xf0000a48
     f80:	f0000ab0 			; <UNDEFINED> instruction: 0xf0000ab0
     f84:	04340126 	ldrteq	r0, [r4], #-294	; 0x126
     f88:	2f010000 	svccs	0x00010000
     f8c:	00004c01 	andeq	r4, r0, r1, lsl #24
     f90:	06c50100 	strbeq	r0, [r5], r0, lsl #2
     f94:	00220000 	eoreq	r0, r2, r0
     f98:	0000a527 	andeq	sl, r0, r7, lsr #10
     f9c:	000a6400 	andeq	r6, sl, r0, lsl #8
     fa0:	000a84f0 	strdeq	r8, [sl], -r0
     fa4:	012e01f0 	strdeq	r0, [lr, -r0]!	; <UNPREDICTABLE>
     fa8:	000006f4 	strdeq	r0, [r0], -r4
     fac:	0000b72c 	andeq	fp, r0, ip, lsr #14
     fb0:	28560100 	ldmdacs	r6, {r8}^
     fb4:	f0000a64 			; <UNDEFINED> instruction: 0xf0000a64
     fb8:	f0000a84 			; <UNDEFINED> instruction: 0xf0000a84
     fbc:	0000c010 	andeq	ip, r0, r0, lsl r0
     fc0:	000bb600 	andeq	fp, fp, r0, lsl #12
     fc4:	29000000 	stmdbcs	r0, {}	; <UNPREDICTABLE>
     fc8:	000000dd 	ldrdeq	r0, [r0], -sp
     fcc:	f0000aa0 			; <UNDEFINED> instruction: 0xf0000aa0
     fd0:	f0000ab0 			; <UNDEFINED> instruction: 0xf0000ab0
     fd4:	0f013001 	svceq	0x00013001
     fd8:	000000fa 	strdeq	r0, [r0], -sl
     fdc:	00000be1 	andeq	r0, r0, r1, ror #23
     fe0:	0000ef0f 	andeq	lr, r0, pc, lsl #30
     fe4:	000bf400 	andeq	pc, fp, r0, lsl #8
     fe8:	0aa02800 	beq	fe80aff0 <__bss_end+0xe807cb8>
     fec:	0ab0f000 	beq	fec3cff4 <__bss_end+0xec39cbc>
     ff0:	0510f000 	ldreq	pc, [r0, #-0]
     ff4:	12000001 	andne	r0, r0, #1
     ff8:	0000000c 	andeq	r0, r0, ip
     ffc:	1e000000 	cdpne	0, 0, cr0, cr0, cr0, {0}
    1000:	0004b701 	andeq	fp, r4, r1, lsl #14
    1004:	01800100 	orreq	r0, r0, r0, lsl #2
    1008:	00004101 	andeq	r4, r0, r1, lsl #2
    100c:	000ac000 	andeq	ip, sl, r0
    1010:	000d94f0 	strdeq	r9, [sp], -r0
    1014:	000c25f0 	strdeq	r2, [ip], -r0
    1018:	00095d00 	andeq	r5, r9, r0, lsl #26
    101c:	04691f00 	strbteq	r1, [r9], #-3840	; 0xf00
    1020:	80010000 	andhi	r0, r1, r0
    1024:	0000cb01 	andeq	ip, r0, r1, lsl #22
    1028:	000c5e00 	andeq	r5, ip, r0, lsl #28
    102c:	f3212200 	vhsub.u32	d2, d1, d0
    1030:	01000003 	tsteq	r0, r3
    1034:	009a0182 	addseq	r0, sl, r2, lsl #3
    1038:	91020000 	mrsls	r0, (UNDEF: 2)
    103c:	03fe214c 	mvnseq	r2, #19
    1040:	83010000 	movwhi	r0, #4096	; 0x1000
    1044:	0003a501 	andeq	sl, r3, r1, lsl #10
    1048:	bc910300 	ldclt	3, cr0, [r1], {0}
    104c:	045b237f 	ldrbeq	r2, [fp], #-895	; 0x37f
    1050:	84010000 	strhi	r0, [r1], #-0
    1054:	00011101 	andeq	r1, r1, r1, lsl #2
    1058:	000ca100 	andeq	sl, ip, r0, lsl #2
    105c:	03e72300 	mvneq	r2, #0
    1060:	85010000 	strhi	r0, [r1, #-0]
    1064:	00011101 	andeq	r1, r1, r1, lsl #2
    1068:	000d1300 	andeq	r1, sp, r0, lsl #6
    106c:	043a2300 	ldrteq	r2, [sl], #-768	; 0x300
    1070:	86010000 	strhi	r0, [r1], -r0
    1074:	00004101 	andeq	r4, r0, r1, lsl #2
    1078:	000d2900 	andeq	r2, sp, r0, lsl #18
    107c:	656c2400 	strbvs	r2, [ip, #-1024]!	; 0x400
    1080:	8701006e 	strhi	r0, [r1, -lr, rrx]
    1084:	00004101 	andeq	r4, r0, r1, lsl #2
    1088:	000d4700 	andeq	r4, sp, r0, lsl #14
    108c:	00a52700 	adceq	r2, r5, r0, lsl #14
    1090:	0be00000 	bleq	ff801098 <__bss_end+0xf7fdd60>
    1094:	0c00f000 	stceq	0, cr15, [r0], {-0}
    1098:	b801f000 	stmdalt	r1, {ip, sp, lr, pc}
    109c:	0007eb01 	andeq	lr, r7, r1, lsl #22
    10a0:	00b70f00 	adcseq	r0, r7, r0, lsl #30
    10a4:	0d9d0000 	ldceq	0, cr0, [sp]
    10a8:	e0280000 	eor	r0, r8, r0
    10ac:	00f0000b 	rscseq	r0, r0, fp
    10b0:	10f0000c 	rscsne	r0, r0, ip
    10b4:	000000c0 	andeq	r0, r0, r0, asr #1
    10b8:	00000db0 			; <UNDEFINED> instruction: 0x00000db0
    10bc:	dd270000 	stcle	0, cr0, [r7, #-0]
    10c0:	1c000000 	stcne	0, cr0, [r0], {-0}
    10c4:	2cf0000c 	ldclcs	0, cr0, [r0], #48	; 0x30
    10c8:	01f0000c 	mvnseq	r0, ip
    10cc:	082501ba 	stmdaeq	r5!, {r1, r3, r4, r5, r7, r8}
    10d0:	fa0f0000 	blx	3c10d8 <__dram_freq_start+0x3c10d8>
    10d4:	db000000 	blle	10dc <__dram_freq_start+0x10dc>
    10d8:	0f00000d 	svceq	0x0000000d
    10dc:	000000ef 	andeq	r0, r0, pc, ror #1
    10e0:	00000dee 	andeq	r0, r0, lr, ror #27
    10e4:	000c1c28 	andeq	r1, ip, r8, lsr #24
    10e8:	000c2cf0 	strdeq	r2, [ip], -r0
    10ec:	010510f0 	strdeq	r1, [r5, -r0]
    10f0:	0e0c0000 	cdpeq	0, 0, cr0, cr12, cr0, {0}
    10f4:	00000000 	andeq	r0, r0, r0
    10f8:	0000dd27 	andeq	sp, r0, r7, lsr #26
    10fc:	000c4c00 	andeq	r4, ip, r0, lsl #24
    1100:	000c5cf0 	strdeq	r5, [ip], -r0
    1104:	01c801f0 	strdeq	r0, [r8, #16]
    1108:	0000085f 	andeq	r0, r0, pc, asr r8
    110c:	0000fa0f 	andeq	pc, r0, pc, lsl #20
    1110:	000e1f00 	andeq	r1, lr, r0, lsl #30
    1114:	00ef0f00 	rsceq	r0, pc, r0, lsl #30
    1118:	0e350000 	cdpeq	0, 3, cr0, cr5, cr0, {0}
    111c:	4c280000 	stcmi	0, cr0, [r8], #-0
    1120:	5cf0000c 	ldclpl	0, cr0, [r0], #48	; 0x30
    1124:	10f0000c 	rscsne	r0, r0, ip
    1128:	00000105 	andeq	r0, r0, r5, lsl #2
    112c:	00000e53 	andeq	r0, r0, r3, asr lr
    1130:	a5270000 	strge	r0, [r7, #-0]!
    1134:	5c000000 	stcpl	0, cr0, [r0], {-0}
    1138:	7cf0000c 	ldclvc	0, cr0, [r0], #48	; 0x30
    113c:	01f0000c 	mvnseq	r0, ip
    1140:	088c01c9 	stmeq	ip, {r0, r3, r6, r7, r8}
    1144:	b72a0000 	strlt	r0, [sl, -r0]!
    1148:	28000000 	stmdacs	r0, {}	; <UNPREDICTABLE>
    114c:	f0000c5c 			; <UNDEFINED> instruction: 0xf0000c5c
    1150:	f0000c7c 			; <UNDEFINED> instruction: 0xf0000c7c
    1154:	0000c010 	andeq	ip, r0, r0, lsl r0
    1158:	000e6600 	andeq	r6, lr, r0, lsl #12
    115c:	27000000 	strcs	r0, [r0, -r0]
    1160:	000000a5 	andeq	r0, r0, r5, lsr #1
    1164:	f0000ca0 			; <UNDEFINED> instruction: 0xf0000ca0
    1168:	f0000cc0 			; <UNDEFINED> instruction: 0xf0000cc0
    116c:	bd01ae01 	stclt	14, cr10, [r1, #-4]
    1170:	0f000008 	svceq	0x00000008
    1174:	000000b7 	strheq	r0, [r0], -r7
    1178:	00000e94 	muleq	r0, r4, lr
    117c:	000ca028 	andeq	sl, ip, r8, lsr #32
    1180:	000cc0f0 	strdeq	ip, [ip], -r0
    1184:	00c010f0 	strdeq	r1, [r0], #0
    1188:	0ea70000 	cdpeq	0, 10, cr0, cr7, cr0, {0}
    118c:	00000000 	andeq	r0, r0, r0
    1190:	0000dd27 	andeq	sp, r0, r7, lsr #26
    1194:	000cdc00 	andeq	sp, ip, r0, lsl #24
    1198:	000cecf0 	strdeq	lr, [ip], -r0
    119c:	01b001f0 	rorseq	r0, r0	; <illegal shifter operand>
    11a0:	000008f7 	strdeq	r0, [r0], -r7
    11a4:	0000fa0f 	andeq	pc, r0, pc, lsl #20
    11a8:	000ed200 	andeq	sp, lr, r0, lsl #4
    11ac:	00ef0f00 	rsceq	r0, pc, r0, lsl #30
    11b0:	0ee50000 	cdpeq	0, 14, cr0, cr5, cr0, {0}
    11b4:	dc280000 	stcle	0, cr0, [r8], #-0
    11b8:	ecf0000c 	ldcl	0, cr0, [r0], #48	; 0x30
    11bc:	10f0000c 	rscsne	r0, r0, ip
    11c0:	00000105 	andeq	r0, r0, r5, lsl #2
    11c4:	00000f03 	andeq	r0, r0, r3, lsl #30
    11c8:	a5270000 	strge	r0, [r7, #-0]!
    11cc:	3c000000 	stccc	0, cr0, [r0], {-0}
    11d0:	5cf0000d 	ldclpl	0, cr0, [r0], #52	; 0x34
    11d4:	01f0000d 	mvnseq	r0, sp
    11d8:	092601a3 	stmdbeq	r6!, {r0, r1, r5, r7, r8}
    11dc:	b72c0000 	strlt	r0, [ip, -r0]!
    11e0:	01000000 	mrseq	r0, (UNDEF: 0)
    11e4:	0d3c2856 	ldceq	8, cr2, [ip, #-344]!	; 0xfffffea8
    11e8:	0d5cf000 	ldcleq	0, cr15, [ip, #-0]
    11ec:	c010f000 	andsgt	pc, r0, r0
    11f0:	16000000 	strne	r0, [r0], -r0
    11f4:	0000000f 	andeq	r0, r0, pc
    11f8:	00dd2900 	sbcseq	r2, sp, r0, lsl #18
    11fc:	0d780000 	ldcleq	0, cr0, [r8, #-0]
    1200:	0d88f000 	stceq	0, cr15, [r8]
    1204:	a501f000 	strge	pc, [r1, #-0]
    1208:	00fa0f01 	rscseq	r0, sl, r1, lsl #30
    120c:	0f410000 	svceq	0x00410000
    1210:	ef0f0000 	svc	0x000f0000
    1214:	54000000 	strpl	r0, [r0], #-0
    1218:	2800000f 	stmdacs	r0, {r0, r1, r2, r3}
    121c:	f0000d78 			; <UNDEFINED> instruction: 0xf0000d78
    1220:	f0000d88 			; <UNDEFINED> instruction: 0xf0000d88
    1224:	00010510 	andeq	r0, r1, r0, lsl r5
    1228:	000f7200 	andeq	r7, pc, r0, lsl #4
    122c:	00000000 	andeq	r0, r0, r0
    1230:	0000232d 	andeq	r2, r0, sp, lsr #6
    1234:	01060100 	mrseq	r0, (UNDEF: 22)
    1238:	0000004c 	andeq	r0, r0, ip, asr #32
    123c:	90030501 	andls	r0, r3, r1, lsl #10
    1240:	1cf00031 	ldclne	0, cr0, [r0], #196	; 0xc4
    1244:	000000d6 	ldrdeq	r0, [r0], -r6
    1248:	00000980 	andeq	r0, r0, r0, lsl #19
    124c:	0000531d 	andeq	r5, r0, sp, lsl r3
    1250:	2d00ff00 	stccs	15, cr15, [r0, #-0]
    1254:	0000040b 	andeq	r0, r0, fp, lsl #8
    1258:	70010501 	andvc	r0, r1, r1, lsl #10
    125c:	01000009 	tsteq	r0, r9
    1260:	32380305 	eorscc	r0, r8, #335544320	; 0x14000000
    1264:	e800f000 	stmda	r0, {ip, sp, lr, pc}
    1268:	02000000 	andeq	r0, r0, #0
    126c:	00066500 	andeq	r6, r6, r0, lsl #10
    1270:	34010400 	strcc	r0, [r1], #-1024	; 0x400
    1274:	01000001 	tsteq	r0, r1
    1278:	000004e5 	andeq	r0, r0, r5, ror #9
    127c:	00000035 	andeq	r0, r0, r5, lsr r0
    1280:	f0000d94 			; <UNDEFINED> instruction: 0xf0000d94
    1284:	f0000dec 			; <UNDEFINED> instruction: 0xf0000dec
    1288:	000005da 	ldrdeq	r0, [r0], -sl
    128c:	b6060102 	strlt	r0, [r6], -r2, lsl #2
    1290:	02000001 	andeq	r0, r0, #1
    1294:	01b40801 			; <UNDEFINED> instruction: 0x01b40801
    1298:	02020000 	andeq	r0, r2, #0
    129c:	00001905 	andeq	r1, r0, r5, lsl #18
    12a0:	07020200 	streq	r0, [r2, -r0, lsl #4]
    12a4:	0000021a 	andeq	r0, r0, sl, lsl r2
    12a8:	00038403 	andeq	r8, r3, r3, lsl #8
    12ac:	4c120200 	lfmmi	f0, 4, [r2], {-0}
    12b0:	04000000 	streq	r0, [r0], #-0
    12b4:	6e690504 	cdpvs	5, 6, cr0, cr9, cr4, {0}
    12b8:	bf030074 	svclt	0x00030074
    12bc:	02000000 	andeq	r0, r0, #0
    12c0:	00005e13 	andeq	r5, r0, r3, lsl lr
    12c4:	07040200 	streq	r0, [r4, -r0, lsl #4]
    12c8:	000001cc 	andeq	r0, r0, ip, asr #3
    12cc:	13050802 	movwne	r0, #22530	; 0x5802
    12d0:	02000001 	andeq	r0, r0, #1
    12d4:	01c20708 	biceq	r0, r2, r8, lsl #14
    12d8:	01050000 	mrseq	r0, (UNDEF: 5)
    12dc:	000004cd 	andeq	r0, r0, sp, asr #9
    12e0:	94010501 	strls	r0, [r1], #-1281	; 0x501
    12e4:	a0f0000d 	rscsge	r0, r0, sp
    12e8:	02f0000d 	rscseq	r0, r0, #13
    12ec:	0106007d 	tsteq	r6, sp, ror r0
    12f0:	00000501 	andeq	r0, r0, r1, lsl #10
    12f4:	53010f01 	movwpl	r0, #7937	; 0x1f01
    12f8:	a0000000 	andge	r0, r0, r0
    12fc:	ecf0000d 	ldcl	0, cr0, [r0], #52	; 0x34
    1300:	02f0000d 	rscseq	r0, r0, #13
    1304:	f807007d 			; <UNDEFINED> instruction: 0xf807007d
    1308:	01000004 	tsteq	r0, r4
    130c:	0000530f 	andeq	r5, r0, pc, lsl #6
    1310:	000f8500 	andeq	r8, pc, r0, lsl #10
    1314:	04dc0700 	ldrbeq	r0, [ip], #1792	; 0x700
    1318:	0f010000 	svceq	0x00010000
    131c:	00000053 	andeq	r0, r0, r3, asr r0
    1320:	00000f98 	muleq	r0, r8, pc	; <UNPREDICTABLE>
    1324:	00050e08 	andeq	r0, r5, r8, lsl #28
    1328:	53110100 	tstpl	r1, #0
    132c:	ab000000 	blge	1334 <__dram_freq_start+0x1334>
    1330:	0800000f 	stmdaeq	r0, {r0, r1, r2, r3}
    1334:	000004d4 	ldrdeq	r0, [r0], -r4
    1338:	00531201 	subseq	r1, r3, r1, lsl #4
    133c:	0fe30000 	svceq	0x00e30000
    1340:	15080000 	strne	r0, [r8, #-0]
    1344:	01000005 	tsteq	r0, r5
    1348:	00004113 	andeq	r4, r0, r3, lsl r1
    134c:	00100d00 	andseq	r0, r0, r0, lsl #26
    1350:	9d000000 	stcls	0, cr0, [r0, #-0]
    1354:	02000000 	andeq	r0, r0, #0
    1358:	0006e600 	andeq	lr, r6, r0, lsl #12
    135c:	45010400 	strmi	r0, [r1, #-1024]	; 0x400
    1360:	ec000006 	stc	0, cr0, [r0], {6}
    1364:	94f0000d 	ldrbtls	r0, [r0], #13
    1368:	2ef0000f 	cdpcs	0, 15, cr0, cr0, cr15, {0}
    136c:	2f2e2e2f 	svccs	0x002e2e2f
    1370:	5f6d656d 	svcpl	0x006d656d
    1374:	6c766964 	ldclvs	9, cr6, [r6], #-400	; 0xfffffe70
    1378:	532e6269 	teqpl	lr, #-1879048186	; 0x90000006
    137c:	69642f00 	stmdbvs	r4!, {r8, r9, sl, fp, sp}^
    1380:	2f326b73 	svccs	0x00326b73
    1384:	696c796b 	stmdbvs	ip!, {r0, r1, r3, r5, r6, r8, fp, ip, sp, lr}^
    1388:	bce52f6e 	stcllt	15, cr2, [r5], #440	; 0x1b8
    138c:	918fe580 	orrls	lr, pc, r0, lsl #11
    1390:	e5bf9de6 	ldr	r9, [pc, #3558]!	; 217e <__dram_freq_start+0x217e>
    1394:	bae4b185 	blt	ff92d9b0 <__bss_end+0xf92a678>
    1398:	ae9be7ab 	cdpge	7, 9, cr14, cr11, cr11, {5}
    139c:	2f95bde5 	svccs	0x0095bde5
    13a0:	e9829ce8 	stmib	r2, {r3, r5, r6, r7, sl, fp, ip, pc}
    13a4:	762f9fb8 			; <UNDEFINED> instruction: 0x762f9fb8
    13a8:	2f302e33 	svccs	0x00302e33
    13ac:	4d2f3356 	stcmi	3, cr3, [pc, #-344]!	; 125c <__dram_freq_start+0x125c>
    13b0:	69727265 	ldmdbvs	r2!, {r0, r2, r5, r6, r9, ip, sp, lr}^
    13b4:	6e694c69 	cdpvs	12, 6, cr4, cr9, cr9, {3}
    13b8:	6c2f7875 	stcvs	8, cr7, [pc], #-468	; 11ec <__dram_freq_start+0x11ec>
    13bc:	78756e69 	ldmdavc	r5!, {r0, r3, r5, r6, r9, sl, fp, sp, lr}^
    13c0:	342e332d 	strtcc	r3, [lr], #-813	; 0x32d
    13c4:	6372612f 	cmnvs	r2, #-1073741813	; 0xc000000b
    13c8:	72612f68 	rsbvc	r2, r1, #416	; 0x1a0
    13cc:	616d2f6d 	cmnvs	sp, sp, ror #30
    13d0:	732d6863 	teqvc	sp, #6488064	; 0x630000
    13d4:	69376e75 	ldmdbvs	r7!, {r0, r2, r4, r5, r6, r9, sl, fp, sp, lr}
    13d8:	2f6d702f 	svccs	0x006d702f
    13dc:	6d617264 	sfmvs	f7, 2, [r1, #-400]!	; 0xfffffe70
    13e0:	6572662d 	ldrbvs	r6, [r2, #-1581]!	; 0x62d
    13e4:	4e470071 	mcrmi	0, 2, r0, cr7, cr1, {3}
    13e8:	53412055 	movtpl	r2, #4181	; 0x1055
    13ec:	322e3220 	eorcc	r3, lr, #2
    13f0:	80010032 	andhi	r0, r1, r2, lsr r0
    13f4:	0000009c 	muleq	r0, ip, r0
    13f8:	06fa0002 	ldrbteq	r0, [sl], r2
    13fc:	01040000 	mrseq	r0, (UNDEF: 4)
    1400:	000006c6 	andeq	r0, r0, r6, asr #13
    1404:	f0000f94 			; <UNDEFINED> instruction: 0xf0000f94
    1408:	f0000fbc 			; <UNDEFINED> instruction: 0xf0000fbc
    140c:	2e2e2f2e 	cdpcs	15, 2, cr2, cr14, cr14, {1}
    1410:	6d656d2f 	stclvs	13, cr6, [r5, #-188]!	; 0xffffff44
    1414:	6c65645f 	cfstrdvs	mvd6, [r5], #-380	; 0xfffffe84
    1418:	532e7961 	teqpl	lr, #1589248	; 0x184000
    141c:	69642f00 	stmdbvs	r4!, {r8, r9, sl, fp, sp}^
    1420:	2f326b73 	svccs	0x00326b73
    1424:	696c796b 	stmdbvs	ip!, {r0, r1, r3, r5, r6, r8, fp, ip, sp, lr}^
    1428:	bce52f6e 	stcllt	15, cr2, [r5], #440	; 0x1b8
    142c:	918fe580 	orrls	lr, pc, r0, lsl #11
    1430:	e5bf9de6 	ldr	r9, [pc, #3558]!	; 221e <__dram_freq_start+0x221e>
    1434:	bae4b185 	blt	ff92da50 <__bss_end+0xf92a718>
    1438:	ae9be7ab 	cdpge	7, 9, cr14, cr11, cr11, {5}
    143c:	2f95bde5 	svccs	0x0095bde5
    1440:	e9829ce8 	stmib	r2, {r3, r5, r6, r7, sl, fp, ip, pc}
    1444:	762f9fb8 			; <UNDEFINED> instruction: 0x762f9fb8
    1448:	2f302e33 	svccs	0x00302e33
    144c:	4d2f3356 	stcmi	3, cr3, [pc, #-344]!	; 12fc <__dram_freq_start+0x12fc>
    1450:	69727265 	ldmdbvs	r2!, {r0, r2, r5, r6, r9, ip, sp, lr}^
    1454:	6e694c69 	cdpvs	12, 6, cr4, cr9, cr9, {3}
    1458:	6c2f7875 	stcvs	8, cr7, [pc], #-468	; 128c <__dram_freq_start+0x128c>
    145c:	78756e69 	ldmdavc	r5!, {r0, r3, r5, r6, r9, sl, fp, sp, lr}^
    1460:	342e332d 	strtcc	r3, [lr], #-813	; 0x32d
    1464:	6372612f 	cmnvs	r2, #-1073741813	; 0xc000000b
    1468:	72612f68 	rsbvc	r2, r1, #416	; 0x1a0
    146c:	616d2f6d 	cmnvs	sp, sp, ror #30
    1470:	732d6863 	teqvc	sp, #6488064	; 0x630000
    1474:	69376e75 	ldmdbvs	r7!, {r0, r2, r4, r5, r6, r9, sl, fp, sp, lr}
    1478:	2f6d702f 	svccs	0x006d702f
    147c:	6d617264 	sfmvs	f7, 2, [r1, #-400]!	; 0xfffffe70
    1480:	6572662d 	ldrbvs	r6, [r2, #-1581]!	; 0x62d
    1484:	4e470071 	mcrmi	0, 2, r0, cr7, cr1, {3}
    1488:	53412055 	movtpl	r2, #4181	; 0x1055
    148c:	322e3220 	eorcc	r3, lr, #2
    1490:	80010032 	andhi	r0, r1, r2, lsr r0
    1494:	00002790 	muleq	r0, r0, r7
    1498:	070e0002 	streq	r0, [lr, -r2]
    149c:	01040000 	mrseq	r0, (UNDEF: 4)
    14a0:	00000134 	andeq	r0, r0, r4, lsr r1
    14a4:	00169001 	andseq	r9, r6, r1
    14a8:	00003500 	andeq	r3, r0, r0, lsl #10
    14ac:	000fbc00 	andeq	fp, pc, r0, lsl #24
    14b0:	0011c8f0 			; <UNDEFINED> instruction: 0x0011c8f0
    14b4:	00070ff0 	strdeq	r0, [r7], -r0	; <UNPREDICTABLE>
    14b8:	06010200 	streq	r0, [r1], -r0, lsl #4
    14bc:	000001b6 			; <UNDEFINED> instruction: 0x000001b6
    14c0:	b4080102 	strlt	r0, [r8], #-258	; 0x102
    14c4:	02000001 	andeq	r0, r0, #1
    14c8:	00190502 	andseq	r0, r9, r2, lsl #10
    14cc:	02020000 	andeq	r0, r2, #0
    14d0:	00021a07 	andeq	r1, r2, r7, lsl #20
    14d4:	03840300 	orreq	r0, r4, #0
    14d8:	12020000 	andne	r0, r2, #0
    14dc:	0000004c 	andeq	r0, r0, ip, asr #32
    14e0:	69050404 	stmdbvs	r5, {r2, sl}
    14e4:	0300746e 	movweq	r7, #1134	; 0x46e
    14e8:	000000bf 	strheq	r0, [r0], -pc	; <UNPREDICTABLE>
    14ec:	005e1302 	subseq	r1, lr, r2, lsl #6
    14f0:	04020000 	streq	r0, [r2], #-0
    14f4:	0001cc07 	andeq	ip, r1, r7, lsl #24
    14f8:	05080200 	streq	r0, [r8, #-512]	; 0x200
    14fc:	00000113 	andeq	r0, r0, r3, lsl r1
    1500:	c2070802 	andgt	r0, r7, #131072	; 0x20000
    1504:	05000001 	streq	r0, [r0, #-1]
    1508:	000009d8 	ldrdeq	r0, [r0], -r8
    150c:	98260404 	stmdals	r6!, {r2, sl}
    1510:	06000000 	streq	r0, [r0], -r0
    1514:	0000051b 	andeq	r0, r0, fp, lsl r5
    1518:	0ee40601 	cdpeq	6, 14, cr0, cr4, cr1, {0}
    151c:	06020000 	streq	r0, [r2], -r0
    1520:	000009c2 	andeq	r0, r0, r2, asr #19
    1524:	0a580603 	beq	1602d38 <__dram_freq_start+0x1602d38>
    1528:	00050000 	andeq	r0, r5, r0
    152c:	00005307 	andeq	r5, r0, r7, lsl #6
    1530:	00530800 	subseq	r0, r3, r0, lsl #16
    1534:	00ad0000 	adceq	r0, sp, r0
    1538:	5e090000 	cdppl	0, 0, cr0, cr9, cr0, {0}
    153c:	01000000 	mrseq	r0, (UNDEF: 0)
    1540:	0f880a00 	svceq	0x00880a00
    1544:	03040000 	movweq	r0, #16384	; 0x4000
    1548:	0001a818 	andeq	sl, r1, r8, lsl r8
    154c:	092f0b00 	stmdbeq	pc!, {r8, r9, fp}	; <UNPREDICTABLE>
    1550:	19030000 	stmdbne	r3, {}	; <UNPREDICTABLE>
    1554:	00000053 	andeq	r0, r0, r3, asr r0
    1558:	021e0204 	andseq	r0, lr, #1073741824	; 0x40000000
    155c:	a20b0023 	andge	r0, fp, #35	; 0x23
    1560:	0300000d 	movweq	r0, #13
    1564:	0000531a 	andeq	r5, r0, sl, lsl r3
    1568:	1d010400 	cfstrsne	mvf0, [r1, #-0]
    156c:	0b002302 	bleq	a17c <__dram_freq_start+0xa17c>
    1570:	0000122d 	andeq	r1, r0, sp, lsr #4
    1574:	00531b03 	subseq	r1, r3, r3, lsl #22
    1578:	01040000 	mrseq	r0, (UNDEF: 4)
    157c:	0023021c 	eoreq	r0, r3, ip, lsl r2
    1580:	0009270b 	andeq	r2, r9, fp, lsl #14
    1584:	531c0300 	tstpl	ip, #0
    1588:	04000000 	streq	r0, [r0], #-0
    158c:	23021a02 	movwcs	r1, #10754	; 0x2a02
    1590:	12c60b00 	sbcne	r0, r6, #0
    1594:	1d030000 	stcne	0, cr0, [r3, #-0]
    1598:	00000053 	andeq	r0, r0, r3, asr r0
    159c:	02180204 	andseq	r0, r8, #1073741824	; 0x40000000
    15a0:	370b0023 	strcc	r0, [fp, -r3, lsr #32]
    15a4:	03000009 	movweq	r0, #9
    15a8:	0000531e 	andeq	r5, r0, lr, lsl r3
    15ac:	13050400 	movwne	r0, #21504	; 0x5400
    15b0:	0b002302 	bleq	a1c0 <__dram_freq_start+0xa1c0>
    15b4:	0000159d 	muleq	r0, sp, r5
    15b8:	00531f03 	subseq	r1, r3, r3, lsl #30
    15bc:	03040000 	movweq	r0, #16384	; 0x4000
    15c0:	00230210 	eoreq	r0, r3, r0, lsl r2
    15c4:	000aa70b 	andeq	sl, sl, fp, lsl #14
    15c8:	53200300 	teqpl	r0, #0
    15cc:	04000000 	streq	r0, [r0], #-0
    15d0:	23020e02 	movwcs	r0, #11778	; 0x2e02
    15d4:	12d00b00 	sbcsne	r0, r0, #0
    15d8:	21030000 	mrscs	r0, (UNDEF: 3)
    15dc:	00000053 	andeq	r0, r0, r3, asr r0
    15e0:	020c0204 	andeq	r0, ip, #1073741824	; 0x40000000
    15e4:	0c0b0023 	stceq	0, cr0, [fp], {35}	; 0x23
    15e8:	03000014 	movweq	r0, #20
    15ec:	00005322 	andeq	r5, r0, r2, lsr #6
    15f0:	07050400 	streq	r0, [r5, -r0, lsl #8]
    15f4:	0b002302 	bleq	a204 <__dram_freq_start+0xa204>
    15f8:	00000e89 	andeq	r0, r0, r9, lsl #29
    15fc:	00532303 	subseq	r2, r3, r3, lsl #6
    1600:	01040000 	mrseq	r0, (UNDEF: 4)
    1604:	00230206 	eoreq	r0, r3, r6, lsl #4
    1608:	00125f0b 	andseq	r5, r2, fp, lsl #30
    160c:	53240300 	teqpl	r4, #0
    1610:	04000000 	streq	r0, [r0], #-0
    1614:	23020204 	movwcs	r0, #8708	; 0x2204
    1618:	0f020b00 	svceq	0x00020b00
    161c:	25030000 	strcs	r0, [r3, #-0]
    1620:	00000053 	andeq	r0, r0, r3, asr r0
    1624:	02010104 	andeq	r0, r1, #1
    1628:	840b0023 	strhi	r0, [fp], #-35	; 0x23
    162c:	03000013 	movweq	r0, #19
    1630:	00005326 	andeq	r5, r0, r6, lsr #6
    1634:	00010400 	andeq	r0, r1, r0, lsl #8
    1638:	00002302 	andeq	r2, r0, r2, lsl #6
    163c:	000cb403 	andeq	fp, ip, r3, lsl #8
    1640:	ad270300 	stcge	3, cr0, [r7, #-0]
    1644:	0a000000 	beq	164c <__dram_freq_start+0x164c>
    1648:	00000f43 	andeq	r0, r0, r3, asr #30
    164c:	59290304 	stmdbpl	r9!, {r2, r8, r9}
    1650:	0b000002 	bleq	1660 <__dram_freq_start+0x1660>
    1654:	000015e7 	andeq	r1, r0, r7, ror #11
    1658:	00532a03 	subseq	r2, r3, r3, lsl #20
    165c:	05040000 	streq	r0, [r4, #-0]
    1660:	0023021b 	eoreq	r0, r3, fp, lsl r2
    1664:	0012c60b 	andseq	ip, r2, fp, lsl #12
    1668:	532b0300 	teqpl	fp, #0
    166c:	04000000 	streq	r0, [r0], #-0
    1670:	23021803 	movwcs	r1, #10243	; 0x2803
    1674:	09370b00 	ldmdbeq	r7!, {r8, r9, fp}
    1678:	2c030000 	stccs	0, cr0, [r3], {-0}
    167c:	00000053 	andeq	r0, r0, r3, asr r0
    1680:	02110704 	andseq	r0, r1, #1048576	; 0x100000
    1684:	d00b0023 	andle	r0, fp, r3, lsr #32
    1688:	03000012 	movweq	r0, #18
    168c:	0000532d 	andeq	r5, r0, sp, lsr #6
    1690:	10010400 	andne	r0, r1, r0, lsl #8
    1694:	0b002302 	bleq	a2a4 <__dram_freq_start+0xa2a4>
    1698:	0000140c 	andeq	r1, r0, ip, lsl #8
    169c:	00532e03 	subseq	r2, r3, r3, lsl #28
    16a0:	05040000 	streq	r0, [r4, #-0]
    16a4:	0023020b 	eoreq	r0, r3, fp, lsl #4
    16a8:	0015df0b 	andseq	sp, r5, fp, lsl #30
    16ac:	532f0300 	teqpl	pc, #0
    16b0:	04000000 	streq	r0, [r0], #-0
    16b4:	23020605 	movwcs	r0, #9733	; 0x2605
    16b8:	065f0b00 	ldrbeq	r0, [pc], -r0, lsl #22
    16bc:	30030000 	andcc	r0, r3, r0
    16c0:	00000053 	andeq	r0, r0, r3, asr r0
    16c4:	02020404 	andeq	r0, r2, #67108864	; 0x4000000
    16c8:	da0b0023 	ble	2c175c <__dram_freq_start+0x2c175c>
    16cc:	03000012 	movweq	r0, #18
    16d0:	00005331 	andeq	r5, r0, r1, lsr r3
    16d4:	01010400 	tsteq	r1, r0, lsl #8
    16d8:	0b002302 	bleq	a2e8 <__dram_freq_start+0xa2e8>
    16dc:	00001384 	andeq	r1, r0, r4, lsl #7
    16e0:	00533203 	subseq	r3, r3, r3, lsl #4
    16e4:	01040000 	mrseq	r0, (UNDEF: 4)
    16e8:	00230200 	eoreq	r0, r3, r0, lsl #4
    16ec:	0a6c0300 	beq	1b022f4 <__dram_freq_start+0x1b022f4>
    16f0:	33030000 	movwcc	r0, #12288	; 0x3000
    16f4:	000001b3 			; <UNDEFINED> instruction: 0x000001b3
    16f8:	00123c0a 	andseq	r3, r2, sl, lsl #24
    16fc:	35030400 	strcc	r0, [r3, #-1024]	; 0x400
    1700:	0000032c 	andeq	r0, r0, ip, lsr #6
    1704:	00092f0b 	andeq	r2, r9, fp, lsl #30
    1708:	53360300 	teqpl	r6, #0
    170c:	04000000 	streq	r0, [r0], #-0
    1710:	23021907 	movwcs	r1, #10503	; 0x2907
    1714:	12c60b00 	sbcne	r0, r6, #0
    1718:	37030000 	strcc	r0, [r3, -r0]
    171c:	00000053 	andeq	r0, r0, r3, asr r0
    1720:	02180104 	andseq	r0, r8, #1
    1724:	0c0b0023 	stceq	0, cr0, [fp], {35}	; 0x23
    1728:	03000014 	movweq	r0, #20
    172c:	00005338 	andeq	r5, r0, r8, lsr r3
    1730:	13050400 	movwne	r0, #21504	; 0x5400
    1734:	0b002302 	bleq	a344 <__dram_freq_start+0xa344>
    1738:	000012d0 	ldrdeq	r1, [r0], -r0
    173c:	00533903 	subseq	r3, r3, r3, lsl #18
    1740:	01040000 	mrseq	r0, (UNDEF: 4)
    1744:	00230212 	eoreq	r0, r3, r2, lsl r2
    1748:	000e940b 	andeq	r9, lr, fp, lsl #8
    174c:	533a0300 	teqpl	sl, #0
    1750:	04000000 	streq	r0, [r0], #-0
    1754:	23021101 	movwcs	r1, #8449	; 0x2101
    1758:	10ea0b00 	rscne	r0, sl, r0, lsl #22
    175c:	3b030000 	blcc	c1764 <__dram_freq_start+0xc1764>
    1760:	00000053 	andeq	r0, r0, r3, asr r0
    1764:	02100104 	andseq	r0, r0, #1
    1768:	5f0b0023 	svcpl	0x000b0023
    176c:	03000012 	movweq	r0, #18
    1770:	0000533c 	andeq	r5, r0, ip, lsr r3
    1774:	0b050400 	bleq	14277c <__dram_freq_start+0x14277c>
    1778:	0b002302 	bleq	a388 <__dram_freq_start+0xa388>
    177c:	000012da 	ldrdeq	r1, [r0], -sl
    1780:	00533d03 	subseq	r3, r3, r3, lsl #26
    1784:	03040000 	movweq	r0, #16384	; 0x4000
    1788:	00230208 	eoreq	r0, r3, r8, lsl #4
    178c:	000c640b 	andeq	r6, ip, fp, lsl #8
    1790:	533e0300 	teqpl	lr, #0
    1794:	04000000 	streq	r0, [r0], #-0
    1798:	23020503 	movwcs	r0, #9475	; 0x2503
    179c:	12e40b00 	rscne	r0, r4, #0
    17a0:	3f030000 	svccc	0x00030000
    17a4:	00000053 	andeq	r0, r0, r3, asr r0
    17a8:	02010404 	andeq	r0, r1, #67108864	; 0x4000000
    17ac:	840b0023 	strhi	r0, [fp], #-35	; 0x23
    17b0:	03000013 	movweq	r0, #19
    17b4:	00005340 	andeq	r5, r0, r0, asr #6
    17b8:	00010400 	andeq	r0, r1, r0, lsl #8
    17bc:	00002302 	andeq	r2, r0, r2, lsl #6
    17c0:	00101903 	andseq	r1, r0, r3, lsl #18
    17c4:	64410300 	strbvs	r0, [r1], #-768	; 0x300
    17c8:	0a000002 	beq	17d8 <__dram_freq_start+0x17d8>
    17cc:	00000862 	andeq	r0, r0, r2, ror #16
    17d0:	10430304 	subne	r0, r3, r4, lsl #6
    17d4:	0b000004 	bleq	17ec <__dram_freq_start+0x17ec>
    17d8:	0000092f 	andeq	r0, r0, pc, lsr #18
    17dc:	00534403 	subseq	r4, r3, r3, lsl #8
    17e0:	02040000 	andeq	r0, r4, #0
    17e4:	0023021e 	eoreq	r0, r3, lr, lsl r2
    17e8:	0012c60b 	andseq	ip, r2, fp, lsl #12
    17ec:	53450300 	movtpl	r0, #21248	; 0x5300
    17f0:	04000000 	streq	r0, [r0], #-0
    17f4:	23021c02 	movwcs	r1, #11266	; 0x2c02
    17f8:	09270b00 	stmdbeq	r7!, {r8, r9, fp}
    17fc:	46030000 	strmi	r0, [r3], -r0
    1800:	00000053 	andeq	r0, r0, r3, asr r0
    1804:	021a0204 	andseq	r0, sl, #1073741824	; 0x40000000
    1808:	640b0023 	strvs	r0, [fp], #-35	; 0x23
    180c:	0300000c 	movweq	r0, #12
    1810:	00005347 	andeq	r5, r0, r7, asr #6
    1814:	18020400 	stmdane	r2, {sl}
    1818:	0b002302 	bleq	a428 <__dram_freq_start+0xa428>
    181c:	00000937 	andeq	r0, r0, r7, lsr r9
    1820:	00534803 	subseq	r4, r3, r3, lsl #16
    1824:	05040000 	streq	r0, [r4, #-0]
    1828:	00230213 	eoreq	r0, r3, r3, lsl r2
    182c:	0012d00b 	andseq	sp, r2, fp
    1830:	53490300 	movtpl	r0, #37632	; 0x9300
    1834:	04000000 	streq	r0, [r0], #-0
    1838:	23021102 	movwcs	r1, #8450	; 0x2102
    183c:	07250b00 	streq	r0, [r5, -r0, lsl #22]!
    1840:	4a030000 	bmi	c1848 <__dram_freq_start+0xc1848>
    1844:	00000053 	andeq	r0, r0, r3, asr r0
    1848:	02100104 	andseq	r0, r0, #1
    184c:	da0b0023 	ble	2c18e0 <__dram_freq_start+0x2c18e0>
    1850:	03000012 	movweq	r0, #18
    1854:	0000534b 	andeq	r5, r0, fp, asr #6
    1858:	0c040400 	cfstrseq	mvf0, [r4], {-0}
    185c:	0b002302 	bleq	a46c <__dram_freq_start+0xa46c>
    1860:	0000140c 	andeq	r1, r0, ip, lsl #8
    1864:	00534c03 	subseq	r4, r3, r3, lsl #24
    1868:	05040000 	streq	r0, [r4, #-0]
    186c:	00230207 	eoreq	r0, r3, r7, lsl #4
    1870:	00125f0b 	andseq	r5, r2, fp, lsl #30
    1874:	534d0300 	movtpl	r0, #54016	; 0xd300
    1878:	04000000 	streq	r0, [r0], #-0
    187c:	23020205 	movwcs	r0, #8709	; 0x2205
    1880:	0e740b00 	vaddeq.f64	d16, d4, d0
    1884:	4e030000 	cdpmi	0, 0, cr0, cr3, cr0, {0}
    1888:	00000053 	andeq	r0, r0, r3, asr r0
    188c:	02010104 	andeq	r0, r1, #1
    1890:	840b0023 	strhi	r0, [fp], #-35	; 0x23
    1894:	03000013 	movweq	r0, #19
    1898:	0000534f 	andeq	r5, r0, pc, asr #6
    189c:	00010400 	andeq	r0, r1, r0, lsl #8
    18a0:	00002302 	andeq	r2, r0, r2, lsl #6
    18a4:	00167703 	andseq	r7, r6, r3, lsl #14
    18a8:	37500300 	ldrbcc	r0, [r0, -r0, lsl #6]
    18ac:	0a000003 	beq	18c0 <__dram_freq_start+0x18c0>
    18b0:	00000842 	andeq	r0, r0, r2, asr #16
    18b4:	27520304 	ldrbcs	r0, [r2, -r4, lsl #6]
    18b8:	0b000005 	bleq	18d4 <__dram_freq_start+0x18d4>
    18bc:	0000092f 	andeq	r0, r0, pc, lsr #18
    18c0:	00535303 	subseq	r5, r3, r3, lsl #6
    18c4:	02040000 	andeq	r0, r4, #0
    18c8:	0023021e 	eoreq	r0, r3, lr, lsl r2
    18cc:	0014800b 	andseq	r8, r4, fp
    18d0:	53540300 	cmppl	r4, #0
    18d4:	04000000 	streq	r0, [r0], #-0
    18d8:	23021c02 	movwcs	r1, #11266	; 0x2c02
    18dc:	09270b00 	stmdbeq	r7!, {r8, r9, fp}
    18e0:	55030000 	strpl	r0, [r3, #-0]
    18e4:	00000053 	andeq	r0, r0, r3, asr r0
    18e8:	021a0204 	andseq	r0, sl, #1073741824	; 0x40000000
    18ec:	c60b0023 	strgt	r0, [fp], -r3, lsr #32
    18f0:	03000012 	movweq	r0, #18
    18f4:	00005356 	andeq	r5, r0, r6, asr r3
    18f8:	19010400 	stmdbne	r1, {sl}
    18fc:	0b002302 	bleq	a50c <__dram_freq_start+0xa50c>
    1900:	00001479 	andeq	r1, r0, r9, ror r4
    1904:	00535703 	subseq	r5, r3, r3, lsl #14
    1908:	01040000 	mrseq	r0, (UNDEF: 4)
    190c:	00230218 	eoreq	r0, r3, r8, lsl r2
    1910:	0009370b 	andeq	r3, r9, fp, lsl #14
    1914:	53580300 	cmppl	r8, #0
    1918:	04000000 	streq	r0, [r0], #-0
    191c:	23021305 	movwcs	r1, #8965	; 0x2305
    1920:	16240b00 	strtne	r0, [r4], -r0, lsl #22
    1924:	59030000 	stmdbpl	r3, {}	; <UNPREDICTABLE>
    1928:	00000053 	andeq	r0, r0, r3, asr r0
    192c:	02100304 	andseq	r0, r0, #268435456	; 0x10000000
    1930:	3f0b0023 	svccc	0x000b0023
    1934:	03000009 	movweq	r0, #9
    1938:	0000535a 	andeq	r5, r0, sl, asr r3
    193c:	0e020400 	cfcpyseq	mvf0, mvf2
    1940:	0b002302 	bleq	a550 <__dram_freq_start+0xa550>
    1944:	00000725 	andeq	r0, r0, r5, lsr #14
    1948:	00535b03 	subseq	r5, r3, r3, lsl #22
    194c:	01040000 	mrseq	r0, (UNDEF: 4)
    1950:	0023020d 	eoreq	r0, r3, sp, lsl #4
    1954:	00068c0b 	andeq	r8, r6, fp, lsl #24
    1958:	535c0300 	cmppl	ip, #0
    195c:	04000000 	streq	r0, [r0], #-0
    1960:	23020c01 	movwcs	r0, #11265	; 0x2c01
    1964:	140c0b00 	strne	r0, [ip], #-2816	; 0xb00
    1968:	5d030000 	stcpl	0, cr0, [r3, #-0]
    196c:	00000053 	andeq	r0, r0, r3, asr r0
    1970:	02070504 	andeq	r0, r7, #16777216	; 0x1000000
    1974:	5f0b0023 	svcpl	0x000b0023
    1978:	03000012 	movweq	r0, #18
    197c:	0000535e 	andeq	r5, r0, lr, asr r3
    1980:	03040400 	movweq	r0, #17408	; 0x4400
    1984:	0b002302 	bleq	a594 <__dram_freq_start+0xa594>
    1988:	00000b96 	muleq	r0, r6, fp
    198c:	00535f03 	subseq	r5, r3, r3, lsl #30
    1990:	01040000 	mrseq	r0, (UNDEF: 4)
    1994:	00230202 	eoreq	r0, r3, r2, lsl #4
    1998:	000e740b 	andeq	r7, lr, fp, lsl #8
    199c:	53600300 	cmnpl	r0, #0
    19a0:	04000000 	streq	r0, [r0], #-0
    19a4:	23020101 	movwcs	r0, #8449	; 0x2101
    19a8:	13840b00 	orrne	r0, r4, #0
    19ac:	61030000 	mrsvs	r0, (UNDEF: 3)
    19b0:	00000053 	andeq	r0, r0, r3, asr r0
    19b4:	02000104 	andeq	r0, r0, #1
    19b8:	03000023 	movweq	r0, #35	; 0x23
    19bc:	00000a34 	andeq	r0, r0, r4, lsr sl
    19c0:	041b6203 	ldreq	r6, [fp], #-515	; 0x203
    19c4:	470a0000 	strmi	r0, [sl, -r0]
    19c8:	04000009 	streq	r0, [r0], #-9
    19cc:	061c6403 	ldreq	r6, [ip], -r3, lsl #8
    19d0:	2f0b0000 	svccs	0x000b0000
    19d4:	03000009 	movweq	r0, #9
    19d8:	00005365 	andeq	r5, r0, r5, ror #6
    19dc:	1e020400 	cfcpysne	mvf0, mvf2
    19e0:	0b002302 	bleq	a5f0 <__dram_freq_start+0xa5f0>
    19e4:	000012c6 	andeq	r1, r0, r6, asr #5
    19e8:	00536603 	subseq	r6, r3, r3, lsl #12
    19ec:	02040000 	andeq	r0, r4, #0
    19f0:	0023021c 	eoreq	r0, r3, ip, lsl r2
    19f4:	0009270b 	andeq	r2, r9, fp, lsl #14
    19f8:	53670300 	cmnpl	r7, #0
    19fc:	04000000 	streq	r0, [r0], #-0
    1a00:	23021a02 	movwcs	r1, #10754	; 0x2a02
    1a04:	0c640b00 	stcleq	11, cr0, [r4], #-0
    1a08:	68030000 	stmdavs	r3, {}	; <UNPREDICTABLE>
    1a0c:	00000053 	andeq	r0, r0, r3, asr r0
    1a10:	02180204 	andseq	r0, r8, #1073741824	; 0x40000000
    1a14:	370b0023 	strcc	r0, [fp, -r3, lsr #32]
    1a18:	03000009 	movweq	r0, #9
    1a1c:	00005369 	andeq	r5, r0, r9, ror #6
    1a20:	13050400 	movwne	r0, #21504	; 0x5400
    1a24:	0b002302 	bleq	a634 <__dram_freq_start+0xa634>
    1a28:	000012d0 	ldrdeq	r1, [r0], -r0
    1a2c:	00536a03 	subseq	r6, r3, r3, lsl #20
    1a30:	01040000 	mrseq	r0, (UNDEF: 4)
    1a34:	00230212 	eoreq	r0, r3, r2, lsl r2
    1a38:	000b960b 	andeq	r9, fp, fp, lsl #12
    1a3c:	536b0300 	cmnpl	fp, #0
    1a40:	04000000 	streq	r0, [r0], #-0
    1a44:	23021101 	movwcs	r1, #8449	; 0x2101
    1a48:	07250b00 	streq	r0, [r5, -r0, lsl #22]!
    1a4c:	6c030000 	stcvs	0, cr0, [r3], {-0}
    1a50:	00000053 	andeq	r0, r0, r3, asr r0
    1a54:	02100104 	andseq	r0, r0, #1
    1a58:	da0b0023 	ble	2c1aec <__dram_freq_start+0x2c1aec>
    1a5c:	03000012 	movweq	r0, #18
    1a60:	0000536d 	andeq	r5, r0, sp, ror #6
    1a64:	0c040400 	cfstrseq	mvf0, [r4], {-0}
    1a68:	0b002302 	bleq	a678 <__dram_freq_start+0xa678>
    1a6c:	0000140c 	andeq	r1, r0, ip, lsl #8
    1a70:	00536e03 	subseq	r6, r3, r3, lsl #28
    1a74:	05040000 	streq	r0, [r4, #-0]
    1a78:	00230207 	eoreq	r0, r3, r7, lsl #4
    1a7c:	00125f0b 	andseq	r5, r2, fp, lsl #30
    1a80:	536f0300 	cmnpl	pc, #0
    1a84:	04000000 	streq	r0, [r0], #-0
    1a88:	23020205 	movwcs	r0, #8709	; 0x2205
    1a8c:	0e740b00 	vaddeq.f64	d16, d4, d0
    1a90:	70030000 	andvc	r0, r3, r0
    1a94:	00000053 	andeq	r0, r0, r3, asr r0
    1a98:	02010104 	andeq	r0, r1, #1
    1a9c:	840b0023 	strhi	r0, [fp], #-35	; 0x23
    1aa0:	03000013 	movweq	r0, #19
    1aa4:	00005371 	andeq	r5, r0, r1, ror r3
    1aa8:	00010400 	andeq	r0, r1, r0, lsl #8
    1aac:	00002302 	andeq	r2, r0, r2, lsl #6
    1ab0:	00070a03 	andeq	r0, r7, r3, lsl #20
    1ab4:	32720300 	rsbscc	r0, r2, #0
    1ab8:	0a000005 	beq	1ad4 <__dram_freq_start+0x1ad4>
    1abc:	0000110f 	andeq	r1, r0, pc, lsl #2
    1ac0:	ef740304 	svc	0x00740304
    1ac4:	0b000006 	bleq	1ae4 <__dram_freq_start+0x1ae4>
    1ac8:	0000092f 	andeq	r0, r0, pc, lsr #18
    1acc:	00537503 	subseq	r7, r3, r3, lsl #10
    1ad0:	07040000 	streq	r0, [r4, -r0]
    1ad4:	00230219 	eoreq	r0, r3, r9, lsl r2
    1ad8:	0012c60b 	andseq	ip, r2, fp, lsl #12
    1adc:	53760300 	cmnpl	r6, #0
    1ae0:	04000000 	streq	r0, [r0], #-0
    1ae4:	23021801 	movwcs	r1, #10241	; 0x2801
    1ae8:	140c0b00 	strne	r0, [ip], #-2816	; 0xb00
    1aec:	77030000 	strvc	r0, [r3, -r0]
    1af0:	00000053 	andeq	r0, r0, r3, asr r0
    1af4:	02130504 	andseq	r0, r3, #16777216	; 0x1000000
    1af8:	d00b0023 	andle	r0, fp, r3, lsr #32
    1afc:	03000012 	movweq	r0, #18
    1b00:	00005378 	andeq	r5, r0, r8, ror r3
    1b04:	12010400 	andne	r0, r1, #0
    1b08:	0b002302 	bleq	a718 <__dram_freq_start+0xa718>
    1b0c:	00000e94 	muleq	r0, r4, lr
    1b10:	00537903 	subseq	r7, r3, r3, lsl #18
    1b14:	01040000 	mrseq	r0, (UNDEF: 4)
    1b18:	00230211 	eoreq	r0, r3, r1, lsl r2
    1b1c:	0010ea0b 	andseq	lr, r0, fp, lsl #20
    1b20:	537a0300 	cmnpl	sl, #0
    1b24:	04000000 	streq	r0, [r0], #-0
    1b28:	23021001 	movwcs	r1, #8193	; 0x2001
    1b2c:	125f0b00 	subsne	r0, pc, #0
    1b30:	7b030000 	blvc	c1b38 <__dram_freq_start+0xc1b38>
    1b34:	00000053 	andeq	r0, r0, r3, asr r0
    1b38:	020b0504 	andeq	r0, fp, #16777216	; 0x1000000
    1b3c:	da0b0023 	ble	2c1bd0 <__dram_freq_start+0x2c1bd0>
    1b40:	03000012 	movweq	r0, #18
    1b44:	0000537c 	andeq	r5, r0, ip, ror r3
    1b48:	08030400 	stmdaeq	r3, {sl}
    1b4c:	0b002302 	bleq	a75c <__dram_freq_start+0xa75c>
    1b50:	00000c64 	andeq	r0, r0, r4, ror #24
    1b54:	00537d03 	subseq	r7, r3, r3, lsl #26
    1b58:	03040000 	movweq	r0, #16384	; 0x4000
    1b5c:	00230205 	eoreq	r0, r3, r5, lsl #4
    1b60:	0012e40b 	andseq	lr, r2, fp, lsl #8
    1b64:	537e0300 	cmnpl	lr, #0
    1b68:	04000000 	streq	r0, [r0], #-0
    1b6c:	23020104 	movwcs	r0, #8452	; 0x2104
    1b70:	13840b00 	orrne	r0, r4, #0
    1b74:	7f030000 	svcvc	0x00030000
    1b78:	00000053 	andeq	r0, r0, r3, asr r0
    1b7c:	02000104 	andeq	r0, r0, #1
    1b80:	03000023 	movweq	r0, #35	; 0x23
    1b84:	000010c4 	andeq	r1, r0, r4, asr #1
    1b88:	06278003 	strteq	r8, [r7], -r3
    1b8c:	5f0a0000 	svcpl	0x000a0000
    1b90:	04000016 	streq	r0, [r0], #-22
    1b94:	07d38203 	ldrbeq	r8, [r3, r3, lsl #4]
    1b98:	2f0b0000 	svccs	0x000b0000
    1b9c:	03000009 	movweq	r0, #9
    1ba0:	00005383 	andeq	r5, r0, r3, lsl #7
    1ba4:	1e020400 	cfcpysne	mvf0, mvf2
    1ba8:	0b002302 	bleq	a7b8 <__dram_freq_start+0xa7b8>
    1bac:	000012c6 	andeq	r1, r0, r6, asr #5
    1bb0:	00538403 	subseq	r8, r3, r3, lsl #8
    1bb4:	02040000 	andeq	r0, r4, #0
    1bb8:	0023021c 	eoreq	r0, r3, ip, lsl r2
    1bbc:	0009270b 	andeq	r2, r9, fp, lsl #14
    1bc0:	53850300 	orrpl	r0, r5, #0
    1bc4:	04000000 	streq	r0, [r0], #-0
    1bc8:	23021a02 	movwcs	r1, #10754	; 0x2a02
    1bcc:	0c640b00 	stcleq	11, cr0, [r4], #-0
    1bd0:	86030000 	strhi	r0, [r3], -r0
    1bd4:	00000053 	andeq	r0, r0, r3, asr r0
    1bd8:	02180204 	andseq	r0, r8, #1073741824	; 0x40000000
    1bdc:	370b0023 	strcc	r0, [fp, -r3, lsr #32]
    1be0:	03000009 	movweq	r0, #9
    1be4:	00005387 	andeq	r5, r0, r7, lsl #7
    1be8:	13050400 	movwne	r0, #21504	; 0x5400
    1bec:	0b002302 	bleq	a7fc <__dram_freq_start+0xa7fc>
    1bf0:	000012d0 	ldrdeq	r1, [r0], -r0
    1bf4:	00538803 	subseq	r8, r3, r3, lsl #16
    1bf8:	02040000 	andeq	r0, r4, #0
    1bfc:	00230211 	eoreq	r0, r3, r1, lsl r2
    1c00:	0007250b 	andeq	r2, r7, fp, lsl #10
    1c04:	53890300 	orrpl	r0, r9, #0
    1c08:	04000000 	streq	r0, [r0], #-0
    1c0c:	23021001 	movwcs	r1, #8193	; 0x2001
    1c10:	12da0b00 	sbcsne	r0, sl, #0
    1c14:	8a030000 	bhi	c1c1c <__dram_freq_start+0xc1c1c>
    1c18:	00000053 	andeq	r0, r0, r3, asr r0
    1c1c:	020c0404 	andeq	r0, ip, #67108864	; 0x4000000
    1c20:	0c0b0023 	stceq	0, cr0, [fp], {35}	; 0x23
    1c24:	03000014 	movweq	r0, #20
    1c28:	0000538b 	andeq	r5, r0, fp, lsl #7
    1c2c:	07050400 	streq	r0, [r5, -r0, lsl #8]
    1c30:	0b002302 	bleq	a840 <__dram_freq_start+0xa840>
    1c34:	0000125f 	andeq	r1, r0, pc, asr r2
    1c38:	00538c03 	subseq	r8, r3, r3, lsl #24
    1c3c:	05040000 	streq	r0, [r4, #-0]
    1c40:	00230202 	eoreq	r0, r3, r2, lsl #4
    1c44:	000e740b 	andeq	r7, lr, fp, lsl #8
    1c48:	538d0300 	orrpl	r0, sp, #0
    1c4c:	04000000 	streq	r0, [r0], #-0
    1c50:	23020101 	movwcs	r0, #8449	; 0x2101
    1c54:	13840b00 	orrne	r0, r4, #0
    1c58:	8e030000 	cdphi	0, 0, cr0, cr3, cr0, {0}
    1c5c:	00000053 	andeq	r0, r0, r3, asr r0
    1c60:	02000104 	andeq	r0, r0, #1
    1c64:	03000023 	movweq	r0, #35	; 0x23
    1c68:	00000554 	andeq	r0, r0, r4, asr r5
    1c6c:	06fa8f03 	ldrbteq	r8, [sl], r3, lsl #30
    1c70:	9a0a0000 	bls	281c78 <__dram_freq_start+0x281c78>
    1c74:	04000011 	streq	r0, [r0], #-17
    1c78:	08849403 	stmeq	r4, {r0, r1, sl, ip, pc}
    1c7c:	6a0b0000 	bvs	2c1c84 <__dram_freq_start+0x2c1c84>
    1c80:	03000013 	movweq	r0, #19
    1c84:	00005395 	muleq	r0, r5, r3
    1c88:	1f010400 	svcne	0x00010400
    1c8c:	0b002302 	bleq	a89c <__dram_freq_start+0xa89c>
    1c90:	0000109b 	muleq	r0, fp, r0
    1c94:	00539603 	subseq	r9, r3, r3, lsl #12
    1c98:	01040000 	mrseq	r0, (UNDEF: 4)
    1c9c:	0023021e 	eoreq	r0, r3, lr, lsl r2
    1ca0:	0012c60b 	andseq	ip, r2, fp, lsl #12
    1ca4:	53970300 	orrspl	r0, r7, #0
    1ca8:	04000000 	streq	r0, [r0], #-0
    1cac:	2302110d 	movwcs	r1, #8461	; 0x210d
    1cb0:	0f390b00 	svceq	0x00390b00
    1cb4:	98030000 	stmdals	r3, {}	; <UNPREDICTABLE>
    1cb8:	00000053 	andeq	r0, r0, r3, asr r0
    1cbc:	02100104 	andseq	r0, r0, #1
    1cc0:	f80b0023 			; <UNDEFINED> instruction: 0xf80b0023
    1cc4:	03000006 	movweq	r0, #6
    1cc8:	00005399 	muleq	r0, r9, r3
    1ccc:	0f010400 	svceq	0x00010400
    1cd0:	0b002302 	bleq	a8e0 <__dram_freq_start+0xa8e0>
    1cd4:	000006a9 	andeq	r0, r0, r9, lsr #13
    1cd8:	00539a03 	subseq	r9, r3, r3, lsl #20
    1cdc:	01040000 	mrseq	r0, (UNDEF: 4)
    1ce0:	0023020e 	eoreq	r0, r3, lr, lsl #4
    1ce4:	0014650b 	andseq	r6, r4, fp, lsl #10
    1ce8:	539b0300 	orrspl	r0, fp, #0
    1cec:	04000000 	streq	r0, [r0], #-0
    1cf0:	23020b03 	movwcs	r0, #11011	; 0x2b03
    1cf4:	12d00b00 	sbcsne	r0, r0, #0
    1cf8:	9c030000 	stcls	0, cr0, [r3], {-0}
    1cfc:	00000053 	andeq	r0, r0, r3, asr r0
    1d00:	02080304 	andeq	r0, r8, #268435456	; 0x10000000
    1d04:	c20b0023 	andgt	r0, fp, #35	; 0x23
    1d08:	03000011 	movweq	r0, #17
    1d0c:	0000539d 	muleq	r0, sp, r3
    1d10:	00080400 	andeq	r0, r8, r0, lsl #8
    1d14:	00002302 	andeq	r2, r0, r2, lsl #6
    1d18:	00099703 	andeq	r9, r9, r3, lsl #14
    1d1c:	de9e0300 	cdple	3, 9, cr0, cr14, cr0, {0}
    1d20:	0a000007 	beq	1d44 <__dram_freq_start+0x1d44>
    1d24:	000013c4 	andeq	r1, r0, r4, asr #7
    1d28:	57a00304 	strpl	r0, [r0, r4, lsl #6]!
    1d2c:	0b000009 	bleq	1d58 <__dram_freq_start+0x1d58>
    1d30:	0000160b 	andeq	r1, r0, fp, lsl #12
    1d34:	0053a103 	subseq	sl, r3, r3, lsl #2
    1d38:	02040000 	andeq	r0, r4, #0
    1d3c:	0023021e 	eoreq	r0, r3, lr, lsl r2
    1d40:	0012c60b 	andseq	ip, r2, fp, lsl #12
    1d44:	53a20300 			; <UNDEFINED> instruction: 0x53a20300
    1d48:	04000000 	streq	r0, [r0], #-0
    1d4c:	23021c02 	movwcs	r1, #11266	; 0x2c02
    1d50:	0b7e0b00 	bleq	1f84958 <__dram_freq_start+0x1f84958>
    1d54:	a3030000 	movwge	r0, #12288	; 0x3000
    1d58:	00000053 	andeq	r0, r0, r3, asr r0
    1d5c:	021a0204 	andseq	r0, sl, #1073741824	; 0x40000000
    1d60:	5b0b0023 	blpl	2c1df4 <__dram_freq_start+0x2c1df4>
    1d64:	03000014 	movweq	r0, #20
    1d68:	000053a4 	andeq	r5, r0, r4, lsr #7
    1d6c:	18020400 	stmdane	r2, {sl}
    1d70:	0b002302 	bleq	a980 <__dram_freq_start+0xa980>
    1d74:	00000fdf 	ldrdeq	r0, [r0], -pc	; <UNPREDICTABLE>
    1d78:	0053a503 	subseq	sl, r3, r3, lsl #10
    1d7c:	02040000 	andeq	r0, r4, #0
    1d80:	00230216 	eoreq	r0, r3, r6, lsl r2
    1d84:	0012d00b 	andseq	sp, r2, fp
    1d88:	53a60300 			; <UNDEFINED> instruction: 0x53a60300
    1d8c:	04000000 	streq	r0, [r0], #-0
    1d90:	23021501 	movwcs	r1, #9473	; 0x2501
    1d94:	128c0b00 	addne	r0, ip, #0
    1d98:	a7030000 	strge	r0, [r3, -r0]
    1d9c:	00000053 	andeq	r0, r0, r3, asr r0
    1da0:	02130204 	andseq	r0, r3, #1073741824	; 0x40000000
    1da4:	da0b0023 	ble	2c1e38 <__dram_freq_start+0x2c1e38>
    1da8:	03000012 	movweq	r0, #18
    1dac:	000053a8 	andeq	r5, r0, r8, lsr #7
    1db0:	10030400 	andne	r0, r3, r0, lsl #8
    1db4:	0b002302 	bleq	a9c4 <__dram_freq_start+0xa9c4>
    1db8:	00000744 	andeq	r0, r0, r4, asr #14
    1dbc:	0053a903 	subseq	sl, r3, r3, lsl #18
    1dc0:	02040000 	andeq	r0, r4, #0
    1dc4:	0023020e 	eoreq	r0, r3, lr, lsl #4
    1dc8:	0012e40b 	andseq	lr, r2, fp, lsl #8
    1dcc:	53aa0300 			; <UNDEFINED> instruction: 0x53aa0300
    1dd0:	04000000 	streq	r0, [r0], #-0
    1dd4:	2302010d 	movwcs	r0, #8461	; 0x210d
    1dd8:	07500b00 	ldrbeq	r0, [r0, -r0, lsl #22]
    1ddc:	ab030000 	blge	c1de4 <__dram_freq_start+0xc1de4>
    1de0:	00000053 	andeq	r0, r0, r3, asr r0
    1de4:	02000104 	andeq	r0, r0, #1
    1de8:	03000023 	movweq	r0, #35	; 0x23
    1dec:	00001518 	andeq	r1, r0, r8, lsl r5
    1df0:	088fac03 	stmeq	pc, {r0, r1, sl, fp, sp, pc}	; <UNPREDICTABLE>
    1df4:	990a0000 	stmdbls	sl, {}	; <UNPREDICTABLE>
    1df8:	04000012 	streq	r0, [r0], #-18
    1dfc:	09d5ae03 	ldmibeq	r5, {r0, r1, r9, sl, fp, sp, pc}^
    1e00:	e30b0000 	movw	r0, #45056	; 0xb000
    1e04:	0300000f 	movweq	r0, #15
    1e08:	000053af 	andeq	r5, r0, pc, lsr #7
    1e0c:	1b050400 	blne	142e14 <__dram_freq_start+0x142e14>
    1e10:	0b002302 	bleq	aa20 <__dram_freq_start+0xaa20>
    1e14:	000012c6 	andeq	r1, r0, r6, asr #5
    1e18:	0053b003 	subseq	fp, r3, r3
    1e1c:	0b040000 	bleq	101e24 <__dram_freq_start+0x101e24>
    1e20:	00230210 	eoreq	r0, r3, r0, lsl r2
    1e24:	00067d0b 	andeq	r7, r6, fp, lsl #26
    1e28:	53b10300 			; <UNDEFINED> instruction: 0x53b10300
    1e2c:	04000000 	streq	r0, [r0], #-0
    1e30:	23020e02 	movwcs	r0, #11778	; 0x2e02
    1e34:	12d00b00 	sbcsne	r0, r0, #0
    1e38:	b2030000 	andlt	r0, r3, #0
    1e3c:	00000053 	andeq	r0, r0, r3, asr r0
    1e40:	02080604 	andeq	r0, r8, #4194304	; 0x400000
    1e44:	490b0023 	stmdbmi	fp, {r0, r1, r5}
    1e48:	03000007 	movweq	r0, #7
    1e4c:	000053b3 			; <UNDEFINED> instruction: 0x000053b3
    1e50:	06020400 	streq	r0, [r2], -r0, lsl #8
    1e54:	0b002302 	bleq	aa64 <__dram_freq_start+0xaa64>
    1e58:	000012da 	ldrdeq	r1, [r0], -sl
    1e5c:	0053b403 	subseq	fp, r3, r3, lsl #8
    1e60:	06040000 	streq	r0, [r4], -r0
    1e64:	00230200 	eoreq	r0, r3, r0, lsl #4
    1e68:	089b0300 	ldmeq	fp, {r8, r9}
    1e6c:	b5030000 	strlt	r0, [r3, #-0]
    1e70:	00000962 	andeq	r0, r0, r2, ror #18
    1e74:	00058e0a 	andeq	r8, r5, sl, lsl #28
    1e78:	b7030400 	strlt	r0, [r3, -r0, lsl #8]
    1e7c:	00000bda 	ldrdeq	r0, [r0], -sl
    1e80:	000a170b 	andeq	r1, sl, fp, lsl #14
    1e84:	53b80300 			; <UNDEFINED> instruction: 0x53b80300
    1e88:	04000000 	streq	r0, [r0], #-0
    1e8c:	23021f01 	movwcs	r1, #12033	; 0x2f01
    1e90:	13f80b00 	mvnsne	r0, #0
    1e94:	b9030000 	stmdblt	r3, {}	; <UNPREDICTABLE>
    1e98:	00000053 	andeq	r0, r0, r3, asr r0
    1e9c:	021e0104 	andseq	r0, lr, #1
    1ea0:	500b0023 	andpl	r0, fp, r3, lsr #32
    1ea4:	03000011 	movweq	r0, #17
    1ea8:	000053ba 			; <UNDEFINED> instruction: 0x000053ba
    1eac:	1d010400 	cfstrsne	mvf0, [r1, #-0]
    1eb0:	0b002302 	bleq	aac0 <__dram_freq_start+0xaac0>
    1eb4:	00000dcc 	andeq	r0, r0, ip, asr #27
    1eb8:	0053bb03 	subseq	fp, r3, r3, lsl #22
    1ebc:	01040000 	mrseq	r0, (UNDEF: 4)
    1ec0:	0023021c 	eoreq	r0, r3, ip, lsl r2
    1ec4:	000adf0b 	andeq	sp, sl, fp, lsl #30
    1ec8:	53bc0300 			; <UNDEFINED> instruction: 0x53bc0300
    1ecc:	04000000 	streq	r0, [r0], #-0
    1ed0:	23021b01 	movwcs	r1, #11009	; 0x2b01
    1ed4:	142c0b00 	strtne	r0, [ip], #-2816	; 0xb00
    1ed8:	bd030000 	stclt	0, cr0, [r3, #-0]
    1edc:	00000053 	andeq	r0, r0, r3, asr r0
    1ee0:	021a0104 	andseq	r0, sl, #1
    1ee4:	7c0b0023 	stcvc	0, cr0, [fp], {35}	; 0x23
    1ee8:	03000013 	movweq	r0, #19
    1eec:	000053be 			; <UNDEFINED> instruction: 0x000053be
    1ef0:	19010400 	stmdbne	r1, {sl}
    1ef4:	0b002302 	bleq	ab04 <__dram_freq_start+0xab04>
    1ef8:	00000b5c 	andeq	r0, r0, ip, asr fp
    1efc:	0053bf03 	subseq	fp, r3, r3, lsl #30
    1f00:	01040000 	mrseq	r0, (UNDEF: 4)
    1f04:	00230218 	eoreq	r0, r3, r8, lsl r2
    1f08:	000b880b 	andeq	r8, fp, fp, lsl #16
    1f0c:	53c00300 	bicpl	r0, r0, #0
    1f10:	04000000 	streq	r0, [r0], #-0
    1f14:	23021701 	movwcs	r1, #9985	; 0x2701
    1f18:	16dc0b00 	ldrbne	r0, [ip], r0, lsl #22
    1f1c:	c1030000 	mrsgt	r0, (UNDEF: 3)
    1f20:	00000053 	andeq	r0, r0, r3, asr r0
    1f24:	02160104 	andseq	r0, r6, #1
    1f28:	b90b0023 	stmdblt	fp, {r0, r1, r5}
    1f2c:	03000010 	movweq	r0, #16
    1f30:	000053c2 	andeq	r5, r0, r2, asr #7
    1f34:	15010400 	strne	r0, [r1, #-1024]	; 0x400
    1f38:	0b002302 	bleq	ab48 <__dram_freq_start+0xab48>
    1f3c:	000005db 	ldrdeq	r0, [r0], -fp
    1f40:	0053c303 	subseq	ip, r3, r3, lsl #6
    1f44:	01040000 	mrseq	r0, (UNDEF: 4)
    1f48:	00230214 	eoreq	r0, r3, r4, lsl r2
    1f4c:	0012350b 	andseq	r3, r2, fp, lsl #10
    1f50:	53c40300 	bicpl	r0, r4, #0
    1f54:	04000000 	streq	r0, [r0], #-0
    1f58:	23021301 	movwcs	r1, #8961	; 0x2301
    1f5c:	14230b00 	strtne	r0, [r3], #-2816	; 0xb00
    1f60:	c5030000 	strgt	r0, [r3, #-0]
    1f64:	00000053 	andeq	r0, r0, r3, asr r0
    1f68:	02120104 	andseq	r0, r2, #1
    1f6c:	400b0023 	andmi	r0, fp, r3, lsr #32
    1f70:	03000010 	movweq	r0, #16
    1f74:	000053c6 	andeq	r5, r0, r6, asr #7
    1f78:	11010400 	tstne	r1, r0, lsl #8
    1f7c:	0b002302 	bleq	ab8c <__dram_freq_start+0xab8c>
    1f80:	000012c6 	andeq	r1, r0, r6, asr #5
    1f84:	0053c703 	subseq	ip, r3, r3, lsl #14
    1f88:	01040000 	mrseq	r0, (UNDEF: 4)
    1f8c:	00230210 	eoreq	r0, r3, r0, lsl r2
    1f90:	0010790b 	andseq	r7, r0, fp, lsl #18
    1f94:	53c80300 	bicpl	r0, r8, #0
    1f98:	04000000 	streq	r0, [r0], #-0
    1f9c:	23020f01 	movwcs	r0, #12033	; 0x2f01
    1fa0:	11b90b00 			; <UNDEFINED> instruction: 0x11b90b00
    1fa4:	c9030000 	stmdbgt	r3, {}	; <UNPREDICTABLE>
    1fa8:	00000053 	andeq	r0, r0, r3, asr r0
    1fac:	020e0104 	andeq	r0, lr, #1
    1fb0:	e50b0023 	str	r0, [fp, #-35]	; 0x23
    1fb4:	0300000d 	movweq	r0, #13
    1fb8:	000053ca 	andeq	r5, r0, sl, asr #7
    1fbc:	0d010400 	cfstrseq	mvf0, [r1, #-0]
    1fc0:	0b002302 	bleq	abd0 <__dram_freq_start+0xabd0>
    1fc4:	000012d0 	ldrdeq	r1, [r0], -r0
    1fc8:	0053cb03 	subseq	ip, r3, r3, lsl #22
    1fcc:	01040000 	mrseq	r0, (UNDEF: 4)
    1fd0:	0023020c 	eoreq	r0, r3, ip, lsl #4
    1fd4:	0006670b 	andeq	r6, r6, fp, lsl #14
    1fd8:	53cc0300 	bicpl	r0, ip, #0
    1fdc:	04000000 	streq	r0, [r0], #-0
    1fe0:	23020b01 	movwcs	r0, #11009	; 0x2b01
    1fe4:	0b290b00 	bleq	a44bec <__dram_freq_start+0xa44bec>
    1fe8:	cd030000 	stcgt	0, cr0, [r3, #-0]
    1fec:	00000053 	andeq	r0, r0, r3, asr r0
    1ff0:	020a0104 	andeq	r0, sl, #1
    1ff4:	7a0b0023 	bvc	2c2088 <__dram_freq_start+0x2c2088>
    1ff8:	0300000c 	movweq	r0, #12
    1ffc:	000053ce 	andeq	r5, r0, lr, asr #7
    2000:	09010400 	stmdbeq	r1, {sl}
    2004:	0b002302 	bleq	ac14 <__dram_freq_start+0xac14>
    2008:	000005c1 	andeq	r0, r0, r1, asr #11
    200c:	0053cf03 	subseq	ip, r3, r3, lsl #30
    2010:	01040000 	mrseq	r0, (UNDEF: 4)
    2014:	00230208 	eoreq	r0, r3, r8, lsl #4
    2018:	0012da0b 	andseq	sp, r2, fp, lsl #20
    201c:	53d00300 	bicspl	r0, r0, #0
    2020:	04000000 	streq	r0, [r0], #-0
    2024:	23020701 	movwcs	r0, #9985	; 0x2701
    2028:	09b90b00 	ldmibeq	r9!, {r8, r9, fp}
    202c:	d1030000 	mrsle	r0, (UNDEF: 3)
    2030:	00000053 	andeq	r0, r0, r3, asr r0
    2034:	02060104 	andeq	r0, r6, #1
    2038:	e40b0023 	str	r0, [fp], #-35	; 0x23
    203c:	03000012 	movweq	r0, #18
    2040:	000053d2 	ldrdeq	r5, [r0], -r2
    2044:	04020400 	streq	r0, [r2], #-1024	; 0x400
    2048:	0b002302 	bleq	ac58 <__dram_freq_start+0xac58>
    204c:	000011b0 			; <UNDEFINED> instruction: 0x000011b0
    2050:	0053d303 	subseq	sp, r3, r3, lsl #6
    2054:	01040000 	mrseq	r0, (UNDEF: 4)
    2058:	00230203 	eoreq	r0, r3, r3, lsl #4
    205c:	0012ee0b 	andseq	lr, r2, fp, lsl #28
    2060:	53d40300 	bicspl	r0, r4, #0
    2064:	04000000 	streq	r0, [r0], #-0
    2068:	23020003 	movwcs	r0, #8195	; 0x2003
    206c:	2e030000 	cdpcs	0, 0, cr0, cr3, cr0, {0}
    2070:	03000005 	movweq	r0, #5
    2074:	0009e0d5 	ldrdeq	lr, [r9], -r5
    2078:	0b0d0a00 	bleq	344880 <__dram_freq_start+0x344880>
    207c:	03040000 	movweq	r0, #16384	; 0x4000
    2080:	000d57d7 	ldrdeq	r5, [sp], -r7
    2084:	0e5a0b00 	vnmlseq.f64	d16, d10, d0
    2088:	d8030000 	stmdale	r3, {}	; <UNPREDICTABLE>
    208c:	00000053 	andeq	r0, r0, r3, asr r0
    2090:	021f0104 	andseq	r0, pc, #1
    2094:	1a0b0023 	bne	2c2128 <__dram_freq_start+0x2c2128>
    2098:	03000006 	movweq	r0, #6
    209c:	000053d9 	ldrdeq	r5, [r0], -r9
    20a0:	1e010400 	cfcpysne	mvf0, mvf1
    20a4:	0b002302 	bleq	acb4 <__dram_freq_start+0xacb4>
    20a8:	00000ca2 	andeq	r0, r0, r2, lsr #25
    20ac:	0053da03 	subseq	sp, r3, r3, lsl #20
    20b0:	01040000 	mrseq	r0, (UNDEF: 4)
    20b4:	0023021d 	eoreq	r0, r3, sp, lsl r2
    20b8:	0005d20b 	andeq	sp, r5, fp, lsl #4
    20bc:	53db0300 	bicspl	r0, fp, #0
    20c0:	04000000 	streq	r0, [r0], #-0
    20c4:	23021c01 	movwcs	r1, #11265	; 0x2c01
    20c8:	09cf0b00 	stmibeq	pc, {r8, r9, fp}^	; <UNPREDICTABLE>
    20cc:	dc030000 	stcle	0, cr0, [r3], {-0}
    20d0:	00000053 	andeq	r0, r0, r3, asr r0
    20d4:	021b0104 	andseq	r0, fp, #1
    20d8:	700b0023 	andvc	r0, fp, r3, lsr #32
    20dc:	03000015 	movweq	r0, #21
    20e0:	000053dd 	ldrdeq	r5, [r0], -sp
    20e4:	1a010400 	bne	430ec <__dram_freq_start+0x430ec>
    20e8:	0b002302 	bleq	acf8 <__dram_freq_start+0xacf8>
    20ec:	000012c6 	andeq	r1, r0, r6, asr #5
    20f0:	0053de03 	subseq	sp, r3, r3, lsl #28
    20f4:	02040000 	andeq	r0, r4, #0
    20f8:	00230218 	eoreq	r0, r3, r8, lsl r2
    20fc:	0016b40b 	andseq	fp, r6, fp, lsl #8
    2100:	53df0300 	bicspl	r0, pc, #0
    2104:	04000000 	streq	r0, [r0], #-0
    2108:	23021701 	movwcs	r1, #9985	; 0x2701
    210c:	154b0b00 	strbne	r0, [fp, #-2816]	; 0xb00
    2110:	e0030000 	and	r0, r3, r0
    2114:	00000053 	andeq	r0, r0, r3, asr r0
    2118:	02160104 	andseq	r0, r6, #1
    211c:	db0b0023 	blle	2c21b0 <__dram_freq_start+0x2c21b0>
    2120:	0300000d 	movweq	r0, #13
    2124:	000053e1 	andeq	r5, r0, r1, ror #7
    2128:	15010400 	strne	r0, [r1, #-1024]	; 0x400
    212c:	0b002302 	bleq	ad3c <__dram_freq_start+0xad3c>
    2130:	00001451 	andeq	r1, r0, r1, asr r4
    2134:	0053e203 	subseq	lr, r3, r3, lsl #4
    2138:	01040000 	mrseq	r0, (UNDEF: 4)
    213c:	00230214 	eoreq	r0, r3, r4, lsl r2
    2140:	0012820b 	andseq	r8, r2, fp, lsl #4
    2144:	53e30300 	mvnpl	r0, #0
    2148:	04000000 	streq	r0, [r0], #-0
    214c:	23021301 	movwcs	r1, #8961	; 0x2301
    2150:	0a4e0b00 	beq	1384d58 <__dram_freq_start+0x1384d58>
    2154:	e4030000 	str	r0, [r3], #-0
    2158:	00000053 	andeq	r0, r0, r3, asr r0
    215c:	02120104 	andseq	r0, r2, #1
    2160:	410b0023 	tstmi	fp, r3, lsr #32
    2164:	03000015 	movweq	r0, #21
    2168:	000053e5 	andeq	r5, r0, r5, ror #7
    216c:	11010400 	tstne	r1, r0, lsl #8
    2170:	0b002302 	bleq	ad80 <__dram_freq_start+0xad80>
    2174:	00000f27 	andeq	r0, r0, r7, lsr #30
    2178:	0053e603 	subseq	lr, r3, r3, lsl #12
    217c:	01040000 	mrseq	r0, (UNDEF: 4)
    2180:	00230210 	eoreq	r0, r3, r0, lsl r2
    2184:	0012d00b 	andseq	sp, r2, fp
    2188:	53e70300 	mvnpl	r0, #0
    218c:	04000000 	streq	r0, [r0], #-0
    2190:	23020f01 	movwcs	r0, #12033	; 0x2f01
    2194:	0d4a0b00 	vstreq	d16, [sl, #-0]
    2198:	e8030000 	stmda	r3, {}	; <UNPREDICTABLE>
    219c:	00000053 	andeq	r0, r0, r3, asr r0
    21a0:	020e0104 	andeq	r0, lr, #1
    21a4:	b60b0023 	strlt	r0, [fp], -r3, lsr #32
    21a8:	03000006 	movweq	r0, #6
    21ac:	000053e9 	andeq	r5, r0, r9, ror #7
    21b0:	0d010400 	cfstrseq	mvf0, [r1, #-0]
    21b4:	0b002302 	bleq	adc4 <__dram_freq_start+0xadc4>
    21b8:	000012da 	ldrdeq	r1, [r0], -sl
    21bc:	0053ea03 	subseq	lr, r3, r3, lsl #20
    21c0:	01040000 	mrseq	r0, (UNDEF: 4)
    21c4:	0023020c 	eoreq	r0, r3, ip, lsl #4
    21c8:	0010f20b 	andseq	pc, r0, fp, lsl #4
    21cc:	53eb0300 	mvnpl	r0, #0
    21d0:	04000000 	streq	r0, [r0], #-0
    21d4:	23020b01 	movwcs	r0, #11009	; 0x2b01
    21d8:	12e40b00 	rscne	r0, r4, #0
    21dc:	ec030000 	stc	0, cr0, [r3], {-0}
    21e0:	00000053 	andeq	r0, r0, r3, asr r0
    21e4:	02000b04 	andeq	r0, r0, #4096	; 0x1000
    21e8:	03000023 	movweq	r0, #35	; 0x23
    21ec:	00000b9f 	muleq	r0, pc, fp	; <UNPREDICTABLE>
    21f0:	0be5ed03 	bleq	ff97d604 <__bss_end+0xf97a2cc>
    21f4:	e70a0000 	str	r0, [sl, -r0]
    21f8:	04000016 	streq	r0, [r0], #-22
    21fc:	0e3bef03 	cdpeq	15, 3, cr14, cr11, cr3, {0}
    2200:	560b0000 	strpl	r0, [fp], -r0
    2204:	03000012 	movweq	r0, #18
    2208:	000053f0 	strdeq	r5, [r0], -r0
    220c:	1f010400 	svcne	0x00010400
    2210:	0b002302 	bleq	ae20 <__dram_freq_start+0xae20>
    2214:	00000dc2 	andeq	r0, r0, r2, asr #27
    2218:	0053f103 	subseq	pc, r3, r3, lsl #2
    221c:	01040000 	mrseq	r0, (UNDEF: 4)
    2220:	0023021e 	eoreq	r0, r3, lr, lsl r2
    2224:	0009850b 	andeq	r8, r9, fp, lsl #10
    2228:	53f20300 	mvnspl	r0, #0
    222c:	04000000 	streq	r0, [r0], #-0
    2230:	23021d01 	movwcs	r1, #11521	; 0x2d01
    2234:	0f6f0b00 	svceq	0x006f0b00
    2238:	f3030000 	vhadd.u8	d0, d3, d0
    223c:	00000053 	andeq	r0, r0, r3, asr r0
    2240:	021c0104 	andseq	r0, ip, #1
    2244:	e80b0023 	stmda	fp, {r0, r1, r5}
    2248:	03000008 	movweq	r0, #8
    224c:	000053f4 	strdeq	r5, [r0], -r4
    2250:	1b010400 	blne	43258 <__dram_freq_start+0x43258>
    2254:	0b002302 	bleq	ae64 <__dram_freq_start+0xae64>
    2258:	000006d5 	ldrdeq	r0, [r0], -r5
    225c:	0053f503 	subseq	pc, r3, r3, lsl #10
    2260:	01040000 	mrseq	r0, (UNDEF: 4)
    2264:	0023021a 	eoreq	r0, r3, sl, lsl r2
    2268:	00115a0b 	andseq	r5, r1, fp, lsl #20
    226c:	53f60300 	mvnspl	r0, #0
    2270:	04000000 	streq	r0, [r0], #-0
    2274:	23021901 	movwcs	r1, #10497	; 0x2901
    2278:	0ae90b00 	beq	ffa44e80 <__bss_end+0xfa41b48>
    227c:	f7030000 			; <UNDEFINED> instruction: 0xf7030000
    2280:	00000053 	andeq	r0, r0, r3, asr r0
    2284:	02180104 	andseq	r0, r8, #1
    2288:	dd0b0023 	stcle	0, cr0, [fp, #-140]	; 0xffffff74
    228c:	03000014 	movweq	r0, #20
    2290:	000053f8 	strdeq	r5, [r0], -r8
    2294:	17010400 	strne	r0, [r1, -r0, lsl #8]
    2298:	0b002302 	bleq	aea8 <__dram_freq_start+0xaea8>
    229c:	000012c6 	andeq	r1, r0, r6, asr #5
    22a0:	0053f903 	subseq	pc, r3, r3, lsl #18
    22a4:	01040000 	mrseq	r0, (UNDEF: 4)
    22a8:	00230216 	eoreq	r0, r3, r6, lsl r2
    22ac:	000c6f0b 	andeq	r6, ip, fp, lsl #30
    22b0:	53fa0300 	mvnspl	r0, #0
    22b4:	04000000 	streq	r0, [r0], #-0
    22b8:	23021501 	movwcs	r1, #9473	; 0x2501
    22bc:	12d00b00 	sbcsne	r0, r0, #0
    22c0:	fb030000 	blx	c22ca <__dram_freq_start+0xc22ca>
    22c4:	00000053 	andeq	r0, r0, r3, asr r0
    22c8:	02001504 	andeq	r1, r0, #16777216	; 0x1000000
    22cc:	03000023 	movweq	r0, #35	; 0x23
    22d0:	00001053 	andeq	r1, r0, r3, asr r0
    22d4:	0d62fc03 	stcleq	12, cr15, [r2, #-12]!
    22d8:	ef0a0000 	svc	0x000a0000
    22dc:	04000015 	streq	r0, [r0], #-21
    22e0:	0fa8fe03 	svceq	0x00a8fe03
    22e4:	ce0b0000 	cdpgt	0, 0, cr0, cr11, cr0, {0}
    22e8:	0300000a 	movweq	r0, #10
    22ec:	000053ff 	strdeq	r5, [r0], -pc	; <UNPREDICTABLE>
    22f0:	1f010400 	svcne	0x00010400
    22f4:	0c002302 	stceq	3, cr2, [r0], {2}
    22f8:	0000163e 	andeq	r1, r0, lr, lsr r6
    22fc:	53010003 	movwpl	r0, #4099	; 0x1003
    2300:	04000000 	streq	r0, [r0], #-0
    2304:	23021e01 	movwcs	r1, #11777	; 0x2e01
    2308:	104a0c00 	subne	r0, sl, r0, lsl #24
    230c:	01030000 	mrseq	r0, (UNDEF: 3)
    2310:	00005301 	andeq	r5, r0, r1, lsl #6
    2314:	1d010400 	cfstrsne	mvf0, [r1, #-0]
    2318:	0c002302 	stceq	3, cr2, [r0], {2}
    231c:	000009e7 	andeq	r0, r0, r7, ror #19
    2320:	53010203 	movwpl	r0, #4611	; 0x1203
    2324:	04000000 	streq	r0, [r0], #-0
    2328:	23021c01 	movwcs	r1, #11265	; 0x2c01
    232c:	0b650c00 	bleq	1945334 <__dram_freq_start+0x1945334>
    2330:	03030000 	movweq	r0, #12288	; 0x3000
    2334:	00005301 	andeq	r5, r0, r1, lsl #6
    2338:	1b010400 	blne	43340 <__dram_freq_start+0x43340>
    233c:	0c002302 	stceq	3, cr2, [r0], {2}
    2340:	0000072f 	andeq	r0, r0, pc, lsr #14
    2344:	53010403 	movwpl	r0, #5123	; 0x1403
    2348:	04000000 	streq	r0, [r0], #-0
    234c:	23021a01 	movwcs	r1, #10753	; 0x2a01
    2350:	0b530c00 	bleq	14c5358 <__dram_freq_start+0x14c5358>
    2354:	05030000 	streq	r0, [r3, #-0]
    2358:	00005301 	andeq	r5, r0, r1, lsl #6
    235c:	19010400 	stmdbne	r1, {sl}
    2360:	0c002302 	stceq	3, cr2, [r0], {2}
    2364:	000016ab 	andeq	r1, r0, fp, lsr #13
    2368:	53010603 	movwpl	r0, #5635	; 0x1603
    236c:	04000000 	streq	r0, [r0], #-0
    2370:	23021801 	movwcs	r1, #10241	; 0x2801
    2374:	12c60c00 	sbcne	r0, r6, #0
    2378:	07030000 	streq	r0, [r3, -r0]
    237c:	00005301 	andeq	r5, r0, r1, lsl #6
    2380:	11070400 	tstne	r7, r0, lsl #8
    2384:	0c002302 	stceq	3, cr2, [r0], {2}
    2388:	0000158b 	andeq	r1, r0, fp, lsl #11
    238c:	53010803 	movwpl	r0, #6147	; 0x1803
    2390:	04000000 	streq	r0, [r0], #-0
    2394:	23021001 	movwcs	r1, #8193	; 0x2001
    2398:	15d50c00 	ldrbne	r0, [r5, #3072]	; 0xc00
    239c:	09030000 	stmdbeq	r3, {}	; <UNPREDICTABLE>
    23a0:	00005301 	andeq	r5, r0, r1, lsl #6
    23a4:	0f010400 	svceq	0x00010400
    23a8:	0c002302 	stceq	3, cr2, [r0], {2}
    23ac:	00000fa2 	andeq	r0, r0, r2, lsr #31
    23b0:	53010a03 	movwpl	r0, #6659	; 0x1a03
    23b4:	04000000 	streq	r0, [r0], #-0
    23b8:	23020e01 	movwcs	r0, #11777	; 0x2e01
    23bc:	09600c00 	stmdbeq	r0!, {sl, fp}^
    23c0:	0b030000 	bleq	c23c8 <__dram_freq_start+0xc23c8>
    23c4:	00005301 	andeq	r5, r0, r1, lsl #6
    23c8:	0d010400 	cfstrseq	mvf0, [r1, #-0]
    23cc:	0c002302 	stceq	3, cr2, [r0], {2}
    23d0:	00001537 	andeq	r1, r0, r7, lsr r5
    23d4:	53010c03 	movwpl	r0, #7171	; 0x1c03
    23d8:	04000000 	streq	r0, [r0], #-0
    23dc:	23020c01 	movwcs	r0, #11265	; 0x2c01
    23e0:	0f0b0c00 	svceq	0x000b0c00
    23e4:	0d030000 	stceq	0, cr0, [r3, #-0]
    23e8:	00005301 	andeq	r5, r0, r1, lsl #6
    23ec:	0b010400 	bleq	433f4 <__dram_freq_start+0x433f4>
    23f0:	0c002302 	stceq	3, cr2, [r0], {2}
    23f4:	0000082c 	andeq	r0, r0, ip, lsr #16
    23f8:	53010e03 	movwpl	r0, #7683	; 0x1e03
    23fc:	04000000 	streq	r0, [r0], #-0
    2400:	23020a01 	movwcs	r0, #10753	; 0x2a01
    2404:	146f0c00 	strbtne	r0, [pc], #-3072	; 240c <__dram_freq_start+0x240c>
    2408:	0f030000 	svceq	0x00030000
    240c:	00005301 	andeq	r5, r0, r1, lsl #6
    2410:	09010400 	stmdbeq	r1, {sl}
    2414:	0c002302 	stceq	3, cr2, [r0], {2}
    2418:	00000e3f 	andeq	r0, r0, pc, lsr lr
    241c:	53011003 	movwpl	r1, #4099	; 0x1003
    2420:	04000000 	streq	r0, [r0], #-0
    2424:	23020801 	movwcs	r0, #10241	; 0x2801
    2428:	12d00c00 	sbcsne	r0, r0, #0
    242c:	11030000 	mrsne	r0, (UNDEF: 3)
    2430:	00005301 	andeq	r5, r0, r1, lsl #6
    2434:	00080400 	andeq	r0, r8, r0, lsl #8
    2438:	00002302 	andeq	r2, r0, r2, lsl #6
    243c:	000e9c0d 	andeq	r9, lr, sp, lsl #24
    2440:	01120300 	tsteq	r2, r0, lsl #6
    2444:	00000e46 	andeq	r0, r0, r6, asr #28
    2448:	000e230e 	andeq	r2, lr, lr, lsl #6
    244c:	16030400 	strne	r0, [r3], -r0, lsl #8
    2450:	00108801 	andseq	r8, r0, r1, lsl #16
    2454:	0fe30c00 	svceq	0x00e30c00
    2458:	17030000 	strne	r0, [r3, -r0]
    245c:	00005301 	andeq	r5, r0, r1, lsl #6
    2460:	1c040400 	cfstrsne	mvf0, [r4], {-0}
    2464:	0c002302 	stceq	3, cr2, [r0], {2}
    2468:	000012c6 	andeq	r1, r0, r6, asr #5
    246c:	53011803 	movwpl	r1, #6147	; 0x1803
    2470:	04000000 	streq	r0, [r0], #-0
    2474:	23021804 	movwcs	r1, #10244	; 0x2804
    2478:	132d0c00 	teqne	sp, #0
    247c:	19030000 	stmdbne	r3, {}	; <UNPREDICTABLE>
    2480:	00005301 	andeq	r5, r0, r1, lsl #6
    2484:	15030400 	strne	r0, [r3, #-1024]	; 0x400
    2488:	0c002302 	stceq	3, cr2, [r0], {2}
    248c:	000012d0 	ldrdeq	r1, [r0], -r0
    2490:	53011a03 	movwpl	r1, #6659	; 0x1a03
    2494:	04000000 	streq	r0, [r0], #-0
    2498:	23021005 	movwcs	r1, #8197	; 0x2005
    249c:	067a0c00 	ldrbteq	r0, [sl], -r0, lsl #24
    24a0:	1b030000 	blne	c24a8 <__dram_freq_start+0xc24a8>
    24a4:	00005301 	andeq	r5, r0, r1, lsl #6
    24a8:	0e020400 	cfcpyseq	mvf0, mvf2
    24ac:	0c002302 	stceq	3, cr2, [r0], {2}
    24b0:	000012da 	ldrdeq	r1, [r0], -sl
    24b4:	53011c03 	movwpl	r1, #7171	; 0x1c03
    24b8:	04000000 	streq	r0, [r0], #-0
    24bc:	23020c02 	movwcs	r0, #11266	; 0x2c02
    24c0:	14140c00 	ldrne	r0, [r4], #-3072	; 0xc00
    24c4:	1d030000 	stcne	0, cr0, [r3, #-0]
    24c8:	00005301 	andeq	r5, r0, r1, lsl #6
    24cc:	09030400 	stmdbeq	r3, {sl}
    24d0:	0c002302 	stceq	3, cr2, [r0], {2}
    24d4:	000012e4 	andeq	r1, r0, r4, ror #5
    24d8:	53011e03 	movwpl	r1, #7683	; 0x1e03
    24dc:	04000000 	streq	r0, [r0], #-0
    24e0:	23020801 	movwcs	r0, #10241	; 0x2801
    24e4:	07490c00 	strbeq	r0, [r9, -r0, lsl #24]
    24e8:	1f030000 	svcne	0x00030000
    24ec:	00005301 	andeq	r5, r0, r1, lsl #6
    24f0:	06020400 	streq	r0, [r2], -r0, lsl #8
    24f4:	0c002302 	stceq	3, cr2, [r0], {2}
    24f8:	000012ee 	andeq	r1, r0, lr, ror #5
    24fc:	53012003 	movwpl	r2, #4099	; 0x1003
    2500:	04000000 	streq	r0, [r0], #-0
    2504:	23020105 	movwcs	r0, #8453	; 0x2105
    2508:	14b80c00 	ldrtne	r0, [r8], #3072	; 0xc00
    250c:	21030000 	mrscs	r0, (UNDEF: 3)
    2510:	00005301 	andeq	r5, r0, r1, lsl #6
    2514:	00010400 	andeq	r0, r1, r0, lsl #8
    2518:	00002302 	andeq	r2, r0, r2, lsl #6
    251c:	0011850d 	andseq	r8, r1, sp, lsl #10
    2520:	01220300 	teqeq	r2, r0, lsl #6
    2524:	00000fb4 			; <UNDEFINED> instruction: 0x00000fb4
    2528:	0006e50e 	andeq	lr, r6, lr, lsl #10
    252c:	26030400 	strcs	r0, [r3], -r0, lsl #8
    2530:	0010ea01 	andseq	lr, r0, r1, lsl #20
    2534:	12c60c00 	sbcne	r0, r6, #0
    2538:	27030000 	strcs	r0, [r3, -r0]
    253c:	00005301 	andeq	r5, r0, r1, lsl #6
    2540:	10100400 	andsne	r0, r0, r0, lsl #8
    2544:	0c002302 	stceq	3, cr2, [r0], {2}
    2548:	00000fe3 	andeq	r0, r0, r3, ror #31
    254c:	53012803 	movwpl	r2, #6147	; 0x1803
    2550:	04000000 	streq	r0, [r0], #-0
    2554:	23020e02 	movwcs	r0, #11778	; 0x2e02
    2558:	12d00c00 	sbcsne	r0, r0, #0
    255c:	29030000 	stmdbcs	r3, {}	; <UNPREDICTABLE>
    2560:	00005301 	andeq	r5, r0, r1, lsl #6
    2564:	010d0400 	tsteq	sp, r0, lsl #8
    2568:	0c002302 	stceq	3, cr2, [r0], {2}
    256c:	000014b8 			; <UNDEFINED> instruction: 0x000014b8
    2570:	53012a03 	movwpl	r2, #6659	; 0x1a03
    2574:	04000000 	streq	r0, [r0], #-0
    2578:	23020001 	movwcs	r0, #8193	; 0x2001
    257c:	700d0000 	andvc	r0, sp, r0
    2580:	03000009 	movweq	r0, #9
    2584:	1094012b 	addsne	r0, r4, fp, lsr #2
    2588:	8a0e0000 	bhi	382590 <__dram_freq_start+0x382590>
    258c:	04000013 	streq	r0, [r0], #-19
    2590:	82012d03 	andhi	r2, r1, #192	; 0xc0
    2594:	0c000011 	stceq	0, cr0, [r0], {17}
    2598:	00000fe3 	andeq	r0, r0, r3, ror #31
    259c:	53012e03 	movwpl	r2, #7683	; 0x1e03
    25a0:	04000000 	streq	r0, [r0], #-0
    25a4:	23021b05 	movwcs	r1, #11013	; 0x2b05
    25a8:	12c60c00 	sbcne	r0, r6, #0
    25ac:	2f030000 	svccs	0x00030000
    25b0:	00005301 	andeq	r5, r0, r1, lsl #6
    25b4:	100b0400 	andne	r0, fp, r0, lsl #8
    25b8:	0c002302 	stceq	3, cr2, [r0], {2}
    25bc:	0000067a 	andeq	r0, r0, sl, ror r6
    25c0:	53013003 	movwpl	r3, #4099	; 0x1003
    25c4:	04000000 	streq	r0, [r0], #-0
    25c8:	23020e02 	movwcs	r0, #11778	; 0x2e02
    25cc:	12d00c00 	sbcsne	r0, r0, #0
    25d0:	31030000 	mrscc	r0, (UNDEF: 3)
    25d4:	00005301 	andeq	r5, r0, r1, lsl #6
    25d8:	08060400 	stmdaeq	r6, {sl}
    25dc:	0c002302 	stceq	3, cr2, [r0], {2}
    25e0:	00000749 	andeq	r0, r0, r9, asr #14
    25e4:	53013203 	movwpl	r3, #4611	; 0x1203
    25e8:	04000000 	streq	r0, [r0], #-0
    25ec:	23020602 	movwcs	r0, #9730	; 0x2602
    25f0:	12da0c00 	sbcsne	r0, sl, #0
    25f4:	33030000 	movwcc	r0, #12288	; 0x3000
    25f8:	00005301 	andeq	r5, r0, r1, lsl #6
    25fc:	01050400 	tsteq	r5, r0, lsl #8
    2600:	0c002302 	stceq	3, cr2, [r0], {2}
    2604:	000014b8 			; <UNDEFINED> instruction: 0x000014b8
    2608:	53013403 	movwpl	r3, #5123	; 0x1403
    260c:	04000000 	streq	r0, [r0], #-0
    2610:	23020001 	movwcs	r0, #8193	; 0x2001
    2614:	270d0000 	strcs	r0, [sp, -r0]
    2618:	0300000c 	movweq	r0, #12
    261c:	10f60135 	rscsne	r0, r6, r5, lsr r1
    2620:	aa0e0000 	bge	382628 <__dram_freq_start+0x382628>
    2624:	0400000d 	streq	r0, [r0], #-13
    2628:	e4013703 	str	r3, [r1], #-1795	; 0x703
    262c:	0c000011 	stceq	0, cr0, [r0], {17}
    2630:	000012c6 	andeq	r1, r0, r6, asr #5
    2634:	53013803 	movwpl	r3, #6147	; 0x1803
    2638:	04000000 	streq	r0, [r0], #-0
    263c:	23020818 	movwcs	r0, #10264	; 0x2818
    2640:	07490c00 	strbeq	r0, [r9, -r0, lsl #24]
    2644:	39030000 	stmdbcc	r3, {}	; <UNPREDICTABLE>
    2648:	00005301 	andeq	r5, r0, r1, lsl #6
    264c:	07010400 	streq	r0, [r1, -r0, lsl #8]
    2650:	0c002302 	stceq	3, cr2, [r0], {2}
    2654:	000012d0 	ldrdeq	r1, [r0], -r0
    2658:	53013a03 	movwpl	r3, #6659	; 0x1a03
    265c:	04000000 	streq	r0, [r0], #-0
    2660:	23020106 	movwcs	r0, #8454	; 0x2106
    2664:	14b80c00 	ldrtne	r0, [r8], #3072	; 0xc00
    2668:	3b030000 	blcc	c2670 <__dram_freq_start+0xc2670>
    266c:	00005301 	andeq	r5, r0, r1, lsl #6
    2670:	00010400 	andeq	r0, r1, r0, lsl #8
    2674:	00002302 	andeq	r2, r0, r2, lsl #6
    2678:	000b390d 	andeq	r3, fp, sp, lsl #18
    267c:	013c0300 	teqeq	ip, r0, lsl #6
    2680:	0000118e 	andeq	r1, r0, lr, lsl #3
    2684:	000d530e 	andeq	r5, sp, lr, lsl #6
    2688:	3e030400 	cfcpyscc	mvf0, mvf3
    268c:	00128e01 	andseq	r8, r2, r1, lsl #28
    2690:	10ae0c00 	adcne	r0, lr, r0, lsl #24
    2694:	3f030000 	svccc	0x00030000
    2698:	00005301 	andeq	r5, r0, r1, lsl #6
    269c:	1f010400 	svcne	0x00010400
    26a0:	0c002302 	stceq	3, cr2, [r0], {2}
    26a4:	0000150d 	andeq	r1, r0, sp, lsl #10
    26a8:	53014003 	movwpl	r4, #4099	; 0x1003
    26ac:	04000000 	streq	r0, [r0], #-0
    26b0:	23021e01 	movwcs	r1, #11777	; 0x2e01
    26b4:	0dec0c00 	stcleq	12, cr0, [ip]
    26b8:	41030000 	mrsmi	r0, (UNDEF: 3)
    26bc:	00005301 	andeq	r5, r0, r1, lsl #6
    26c0:	1d010400 	cfstrsne	mvf0, [r1, #-0]
    26c4:	0c002302 	stceq	3, cr2, [r0], {2}
    26c8:	000012c6 	andeq	r1, r0, r6, asr #5
    26cc:	53014203 	movwpl	r4, #4611	; 0x1203
    26d0:	04000000 	streq	r0, [r0], #-0
    26d4:	23021a03 	movwcs	r1, #10755	; 0x2a03
    26d8:	14b30c00 	ldrtne	r0, [r3], #3072	; 0xc00
    26dc:	43030000 	movwmi	r0, #12288	; 0x3000
    26e0:	00005301 	andeq	r5, r0, r1, lsl #6
    26e4:	19010400 	stmdbne	r1, {sl}
    26e8:	0c002302 	stceq	3, cr2, [r0], {2}
    26ec:	00000882 	andeq	r0, r0, r2, lsl #17
    26f0:	53014403 	movwpl	r4, #5123	; 0x1403
    26f4:	04000000 	streq	r0, [r0], #-0
    26f8:	23021801 	movwcs	r1, #10241	; 0x2801
    26fc:	08d90c00 	ldmeq	r9, {sl, fp}^
    2700:	45030000 	strmi	r0, [r3, #-0]
    2704:	00005301 	andeq	r5, r0, r1, lsl #6
    2708:	17010400 	strne	r0, [r1, -r0, lsl #8]
    270c:	0c002302 	stceq	3, cr2, [r0], {2}
    2710:	000012da 	ldrdeq	r1, [r0], -sl
    2714:	53014603 	movwpl	r4, #5635	; 0x1603
    2718:	04000000 	streq	r0, [r0], #-0
    271c:	23020017 	movwcs	r0, #8215	; 0x2017
    2720:	f10d0000 			; <UNDEFINED> instruction: 0xf10d0000
    2724:	03000008 	movweq	r0, #8
    2728:	11f00147 	mvnsne	r0, r7, asr #2
    272c:	010e0000 	mrseq	r0, (UNDEF: 14)
    2730:	04000006 	streq	r0, [r0], #-6
    2734:	da015303 	ble	57348 <__dram_freq_start+0x57348>
    2738:	0c000013 	stceq	0, cr0, [r0], {19}
    273c:	00000e5a 	andeq	r0, r0, sl, asr lr
    2740:	53015403 	movwpl	r5, #5123	; 0x1403
    2744:	04000000 	streq	r0, [r0], #-0
    2748:	23021f01 	movwcs	r1, #12033	; 0x2f01
    274c:	16b40c00 	ldrtne	r0, [r4], r0, lsl #24
    2750:	55030000 	strpl	r0, [r3, #-0]
    2754:	00005301 	andeq	r5, r0, r1, lsl #6
    2758:	1e010400 	cfcpysne	mvf0, mvf1
    275c:	0c002302 	stceq	3, cr2, [r0], {2}
    2760:	0000154b 	andeq	r1, r0, fp, asr #10
    2764:	53015603 	movwpl	r5, #5635	; 0x1603
    2768:	04000000 	streq	r0, [r0], #-0
    276c:	23021d01 	movwcs	r1, #11521	; 0x2d01
    2770:	0de50c00 	stcleq	12, cr0, [r5]
    2774:	57030000 	strpl	r0, [r3, -r0]
    2778:	00005301 	andeq	r5, r0, r1, lsl #6
    277c:	1c010400 	cfstrsne	mvf0, [r1], {-0}
    2780:	0c002302 	stceq	3, cr2, [r0], {2}
    2784:	0000061a 	andeq	r0, r0, sl, lsl r6
    2788:	53015803 	movwpl	r5, #6147	; 0x1803
    278c:	04000000 	streq	r0, [r0], #-0
    2790:	23021b01 	movwcs	r1, #11009	; 0x2b01
    2794:	0ca20c00 	stceq	12, cr0, [r2]
    2798:	59030000 	stmdbpl	r3, {}	; <UNPREDICTABLE>
    279c:	00005301 	andeq	r5, r0, r1, lsl #6
    27a0:	1a010400 	bne	437a8 <__dram_freq_start+0x437a8>
    27a4:	0c002302 	stceq	3, cr2, [r0], {2}
    27a8:	000005d2 	ldrdeq	r0, [r0], -r2
    27ac:	53015a03 	movwpl	r5, #6659	; 0x1a03
    27b0:	04000000 	streq	r0, [r0], #-0
    27b4:	23021901 	movwcs	r1, #10497	; 0x2901
    27b8:	12c60c00 	sbcne	r0, r6, #0
    27bc:	5b030000 	blpl	c27c4 <__dram_freq_start+0xc27c4>
    27c0:	00005301 	andeq	r5, r0, r1, lsl #6
    27c4:	11080400 	tstne	r8, r0, lsl #8
    27c8:	0c002302 	stceq	3, cr2, [r0], {2}
    27cc:	00000b93 	muleq	r0, r3, fp
    27d0:	53015c03 	movwpl	r5, #7171	; 0x1c03
    27d4:	04000000 	streq	r0, [r0], #-0
    27d8:	23021001 	movwcs	r1, #8193	; 0x2001
    27dc:	12d00c00 	sbcsne	r0, r0, #0
    27e0:	5d030000 	stcpl	0, cr0, [r3, #-0]
    27e4:	00005301 	andeq	r5, r0, r1, lsl #6
    27e8:	08080400 	stmdaeq	r8, {sl}
    27ec:	0c002302 	stceq	3, cr2, [r0], {2}
    27f0:	00000f27 	andeq	r0, r0, r7, lsr #30
    27f4:	53015e03 	movwpl	r5, #7683	; 0x1e03
    27f8:	04000000 	streq	r0, [r0], #-0
    27fc:	23020701 	movwcs	r0, #9985	; 0x2701
    2800:	15410c00 	strbne	r0, [r1, #-3072]	; 0xc00
    2804:	5f030000 	svcpl	0x00030000
    2808:	00005301 	andeq	r5, r0, r1, lsl #6
    280c:	06010400 	streq	r0, [r1], -r0, lsl #8
    2810:	0c002302 	stceq	3, cr2, [r0], {2}
    2814:	00001282 	andeq	r1, r0, r2, lsl #5
    2818:	53016003 	movwpl	r6, #4099	; 0x1003
    281c:	04000000 	streq	r0, [r0], #-0
    2820:	23020501 	movwcs	r0, #9473	; 0x2501
    2824:	0a4e0c00 	beq	138582c <__dram_freq_start+0x138582c>
    2828:	61030000 	mrsvs	r0, (UNDEF: 3)
    282c:	00005301 	andeq	r5, r0, r1, lsl #6
    2830:	04010400 	streq	r0, [r1], #-1024	; 0x400
    2834:	0c002302 	stceq	3, cr2, [r0], {2}
    2838:	000006b4 			; <UNDEFINED> instruction: 0x000006b4
    283c:	53016203 	movwpl	r6, #4611	; 0x1203
    2840:	04000000 	streq	r0, [r0], #-0
    2844:	23020301 	movwcs	r0, #8961	; 0x2301
    2848:	10790c00 	rsbsne	r0, r9, r0, lsl #24
    284c:	63030000 	movwvs	r0, #12288	; 0x3000
    2850:	00005301 	andeq	r5, r0, r1, lsl #6
    2854:	02010400 	andeq	r0, r1, #0
    2858:	0c002302 	stceq	3, cr2, [r0], {2}
    285c:	000012da 	ldrdeq	r1, [r0], -sl
    2860:	53016403 	movwpl	r6, #5123	; 0x1403
    2864:	04000000 	streq	r0, [r0], #-0
    2868:	23020002 	movwcs	r0, #8194	; 0x2002
    286c:	3c0d0000 	stccc	0, cr0, [sp], {-0}
    2870:	03000006 	movweq	r0, #6
    2874:	129a0165 	addsne	r0, sl, #1073741849	; 0x40000019
    2878:	e60e0000 	str	r0, [lr], -r0
    287c:	04000005 	streq	r0, [r0], #-5
    2880:	60016903 	andvs	r6, r1, r3, lsl #18
    2884:	0c000014 	stceq	0, cr0, [r0], {20}
    2888:	00000fe3 	andeq	r0, r0, r3, ror #31
    288c:	53016a03 	movwpl	r6, #6659	; 0x1a03
    2890:	04000000 	streq	r0, [r0], #-0
    2894:	23021c04 	movwcs	r1, #11268	; 0x2c04
    2898:	12c60c00 	sbcne	r0, r6, #0
    289c:	6b030000 	blvs	c28a4 <__dram_freq_start+0xc28a4>
    28a0:	00005301 	andeq	r5, r0, r1, lsl #6
    28a4:	08140400 	ldmdaeq	r4, {sl}
    28a8:	0c002302 	stceq	3, cr2, [r0], {2}
    28ac:	00000749 	andeq	r0, r0, r9, asr #14
    28b0:	53016c03 	movwpl	r6, #7171	; 0x1c03
    28b4:	04000000 	streq	r0, [r0], #-0
    28b8:	23020602 	movwcs	r0, #9730	; 0x2602
    28bc:	12d00c00 	sbcsne	r0, r0, #0
    28c0:	6d030000 	stcvs	0, cr0, [r3, #-0]
    28c4:	00005301 	andeq	r5, r0, r1, lsl #6
    28c8:	02040400 	andeq	r0, r4, #0
    28cc:	0c002302 	stceq	3, cr2, [r0], {2}
    28d0:	00000528 	andeq	r0, r0, r8, lsr #10
    28d4:	53016e03 	movwpl	r6, #7683	; 0x1e03
    28d8:	04000000 	streq	r0, [r0], #-0
    28dc:	23020101 	movwcs	r0, #8449	; 0x2101
    28e0:	14b80c00 	ldrtne	r0, [r8], #3072	; 0xc00
    28e4:	6f030000 	svcvs	0x00030000
    28e8:	00005301 	andeq	r5, r0, r1, lsl #6
    28ec:	00010400 	andeq	r0, r1, r0, lsl #8
    28f0:	00002302 	andeq	r2, r0, r2, lsl #6
    28f4:	0014330d 	andseq	r3, r4, sp, lsl #6
    28f8:	01700300 	cmneq	r0, r0, lsl #6
    28fc:	000013e6 	andeq	r1, r0, r6, ror #7
    2900:	0015790e 	andseq	r7, r5, lr, lsl #18
    2904:	74030400 	strvc	r0, [r3], #-1024	; 0x400
    2908:	0014d401 	andseq	sp, r4, r1, lsl #8
    290c:	12c60c00 	sbcne	r0, r6, #0
    2910:	75030000 	strvc	r0, [r3, #-0]
    2914:	00005301 	andeq	r5, r0, r1, lsl #6
    2918:	08180400 	ldmdaeq	r8, {sl}
    291c:	0c002302 	stceq	3, cr2, [r0], {2}
    2920:	00000749 	andeq	r0, r0, r9, asr #14
    2924:	53017603 	movwpl	r7, #5635	; 0x1603
    2928:	04000000 	streq	r0, [r0], #-0
    292c:	23020602 	movwcs	r0, #9730	; 0x2602
    2930:	12d00c00 	sbcsne	r0, r0, #0
    2934:	77030000 	strvc	r0, [r3, -r0]
    2938:	00005301 	andeq	r5, r0, r1, lsl #6
    293c:	02040400 	andeq	r0, r4, #0
    2940:	0c002302 	stceq	3, cr2, [r0], {2}
    2944:	00000528 	andeq	r0, r0, r8, lsr #10
    2948:	53017803 	movwpl	r7, #6147	; 0x1803
    294c:	04000000 	streq	r0, [r0], #-0
    2950:	23020101 	movwcs	r0, #8449	; 0x2101
    2954:	14b80c00 	ldrtne	r0, [r8], #3072	; 0xc00
    2958:	79030000 	stmdbvc	r3, {}	; <UNPREDICTABLE>
    295c:	00005301 	andeq	r5, r0, r1, lsl #6
    2960:	00010400 	andeq	r0, r1, r0, lsl #8
    2964:	00002302 	andeq	r2, r0, r2, lsl #6
    2968:	0007650d 	andeq	r6, r7, sp, lsl #10
    296c:	017a0300 	cmneq	sl, r0, lsl #6
    2970:	0000146c 	andeq	r1, r0, ip, ror #8
    2974:	00078c0e 	andeq	r8, r7, lr, lsl #24
    2978:	7c030400 	cfstrsvc	mvf0, [r3], {-0}
    297c:	00154801 	andseq	r4, r5, r1, lsl #16
    2980:	0fe30c00 	svceq	0x00e30c00
    2984:	7d030000 	stcvc	0, cr0, [r3, #-0]
    2988:	00005301 	andeq	r5, r0, r1, lsl #6
    298c:	1c040400 	cfstrsne	mvf0, [r4], {-0}
    2990:	0c002302 	stceq	3, cr2, [r0], {2}
    2994:	000012c6 	andeq	r1, r0, r6, asr #5
    2998:	53017e03 	movwpl	r7, #7683	; 0x1e03
    299c:	04000000 	streq	r0, [r0], #-0
    29a0:	23020814 	movwcs	r0, #10260	; 0x2814
    29a4:	07490c00 	strbeq	r0, [r9, -r0, lsl #24]
    29a8:	7f030000 	svcvc	0x00030000
    29ac:	00005301 	andeq	r5, r0, r1, lsl #6
    29b0:	06020400 	streq	r0, [r2], -r0, lsl #8
    29b4:	0c002302 	stceq	3, cr2, [r0], {2}
    29b8:	000012d0 	ldrdeq	r1, [r0], -r0
    29bc:	53018003 	movwpl	r8, #4099	; 0x1003
    29c0:	04000000 	streq	r0, [r0], #-0
    29c4:	23020105 	movwcs	r0, #8453	; 0x2105
    29c8:	14b80c00 	ldrtne	r0, [r8], #3072	; 0xc00
    29cc:	81030000 	mrshi	r0, (UNDEF: 3)
    29d0:	00005301 	andeq	r5, r0, r1, lsl #6
    29d4:	00010400 	andeq	r0, r1, r0, lsl #8
    29d8:	00002302 	andeq	r2, r0, r2, lsl #6
    29dc:	000af10d 	andeq	pc, sl, sp, lsl #2
    29e0:	01820300 	orreq	r0, r2, r0, lsl #6
    29e4:	000014e0 	andeq	r1, r0, r0, ror #9
    29e8:	00112a0e 	andseq	r2, r1, lr, lsl #20
    29ec:	84030400 	strhi	r0, [r3], #-1024	; 0x400
    29f0:	00161601 	andseq	r1, r6, r1, lsl #12
    29f4:	0e520c00 	cdpeq	12, 5, cr0, cr2, cr0, {0}
    29f8:	85030000 	strhi	r0, [r3, #-0]
    29fc:	00005301 	andeq	r5, r0, r1, lsl #6
    2a00:	1c040400 	cfstrsne	mvf0, [r4], {-0}
    2a04:	0c002302 	stceq	3, cr2, [r0], {2}
    2a08:	000012c6 	andeq	r1, r0, r6, asr #5
    2a0c:	53018603 	movwpl	r8, #5635	; 0x1603
    2a10:	04000000 	streq	r0, [r0], #-0
    2a14:	23021804 	movwcs	r1, #10244	; 0x2804
    2a18:	081b0c00 	ldmdaeq	fp, {sl, fp}
    2a1c:	87030000 	strhi	r0, [r3, -r0]
    2a20:	00005301 	andeq	r5, r0, r1, lsl #6
    2a24:	17010400 	strne	r0, [r1, -r0, lsl #8]
    2a28:	0c002302 	stceq	3, cr2, [r0], {2}
    2a2c:	000012d0 	ldrdeq	r1, [r0], -r0
    2a30:	53018803 	movwpl	r8, #6147	; 0x1803
    2a34:	04000000 	streq	r0, [r0], #-0
    2a38:	23021106 	movwcs	r1, #8454	; 0x2106
    2a3c:	131a0c00 	tstne	sl, #0
    2a40:	89030000 	stmdbhi	r3, {}	; <UNPREDICTABLE>
    2a44:	00005301 	andeq	r5, r0, r1, lsl #6
    2a48:	10010400 	andne	r0, r1, r0, lsl #8
    2a4c:	0c002302 	stceq	3, cr2, [r0], {2}
    2a50:	00001362 	andeq	r1, r0, r2, ror #6
    2a54:	53018a03 	movwpl	r8, #6659	; 0x1a03
    2a58:	04000000 	streq	r0, [r0], #-0
    2a5c:	23020c04 	movwcs	r0, #11268	; 0x2c04
    2a60:	12da0c00 	sbcsne	r0, sl, #0
    2a64:	8b030000 	blhi	c2a6c <__dram_freq_start+0xc2a6c>
    2a68:	00005301 	andeq	r5, r0, r1, lsl #6
    2a6c:	08040400 	stmdaeq	r4, {sl}
    2a70:	0c002302 	stceq	3, cr2, [r0], {2}
    2a74:	0000133d 	andeq	r1, r0, sp, lsr r3
    2a78:	53018c03 	movwpl	r8, #7171	; 0x1c03
    2a7c:	04000000 	streq	r0, [r0], #-0
    2a80:	23020701 	movwcs	r0, #9985	; 0x2701
    2a84:	12e40c00 	rscne	r0, r4, #0
    2a88:	8d030000 	stchi	0, cr0, [r3, #-0]
    2a8c:	00005301 	andeq	r5, r0, r1, lsl #6
    2a90:	01060400 	tsteq	r6, r0, lsl #8
    2a94:	0c002302 	stceq	3, cr2, [r0], {2}
    2a98:	00000cd3 	ldrdeq	r0, [r0], -r3
    2a9c:	53018e03 	movwpl	r8, #7683	; 0x1e03
    2aa0:	04000000 	streq	r0, [r0], #-0
    2aa4:	23020001 	movwcs	r0, #8193	; 0x2001
    2aa8:	c40d0000 	strgt	r0, [sp], #-0
    2aac:	03000014 	movweq	r0, #20
    2ab0:	1554018f 	ldrbne	r0, [r4, #-399]	; 0x18f
    2ab4:	5d0e0000 	stcpl	0, cr0, [lr, #-0]
    2ab8:	0400000f 	streq	r0, [r0], #-15
    2abc:	d2019303 	andle	r9, r1, #201326592	; 0xc000000
    2ac0:	0c000016 	stceq	0, cr0, [r0], {22}
    2ac4:	00000fe3 	andeq	r0, r0, r3, ror #31
    2ac8:	53019403 	movwpl	r9, #5123	; 0x1403
    2acc:	04000000 	streq	r0, [r0], #-0
    2ad0:	23021c04 	movwcs	r1, #11268	; 0x2c04
    2ad4:	12c60c00 	sbcne	r0, r6, #0
    2ad8:	95030000 	strls	r0, [r3, #-0]
    2adc:	00005301 	andeq	r5, r0, r1, lsl #6
    2ae0:	15070400 	strne	r0, [r7, #-1024]	; 0x400
    2ae4:	0c002302 	stceq	3, cr2, [r0], {2}
    2ae8:	00000817 	andeq	r0, r0, r7, lsl r8
    2aec:	53019603 	movwpl	r9, #5635	; 0x1603
    2af0:	04000000 	streq	r0, [r0], #-0
    2af4:	23021401 	movwcs	r1, #9217	; 0x2401
    2af8:	12d00c00 	sbcsne	r0, r0, #0
    2afc:	97030000 	strls	r0, [r3, -r0]
    2b00:	00005301 	andeq	r5, r0, r1, lsl #6
    2b04:	11030400 	tstne	r3, r0, lsl #8
    2b08:	0c002302 	stceq	3, cr2, [r0], {2}
    2b0c:	00001316 	andeq	r1, r0, r6, lsl r3
    2b10:	53019803 	movwpl	r9, #6147	; 0x1803
    2b14:	04000000 	streq	r0, [r0], #-0
    2b18:	23021001 	movwcs	r1, #8193	; 0x2001
    2b1c:	12da0c00 	sbcsne	r0, sl, #0
    2b20:	99030000 	stmdbls	r3, {}	; <UNPREDICTABLE>
    2b24:	00005301 	andeq	r5, r0, r1, lsl #6
    2b28:	08080400 	stmdaeq	r8, {sl}
    2b2c:	0c002302 	stceq	3, cr2, [r0], {2}
    2b30:	00001339 	andeq	r1, r0, r9, lsr r3
    2b34:	53019a03 	movwpl	r9, #6659	; 0x1a03
    2b38:	04000000 	streq	r0, [r0], #-0
    2b3c:	23020602 	movwcs	r0, #9730	; 0x2602
    2b40:	12e40c00 	rscne	r0, r4, #0
    2b44:	9b030000 	blls	c2b4c <__dram_freq_start+0xc2b4c>
    2b48:	00005301 	andeq	r5, r0, r1, lsl #6
    2b4c:	01050400 	tsteq	r5, r0, lsl #8
    2b50:	0c002302 	stceq	3, cr2, [r0], {2}
    2b54:	00000ccf 	andeq	r0, r0, pc, asr #25
    2b58:	53019c03 	movwpl	r9, #7171	; 0x1c03
    2b5c:	04000000 	streq	r0, [r0], #-0
    2b60:	23020001 	movwcs	r0, #8193	; 0x2001
    2b64:	670d0000 	strvs	r0, [sp, -r0]
    2b68:	03000012 	movweq	r0, #18
    2b6c:	1622019d 			; <UNDEFINED> instruction: 0x1622019d
    2b70:	0f0e0000 	svceq	0x000e0000
    2b74:	0400000c 	streq	r0, [r0], #-12
    2b78:	5801a103 	stmdapl	r1, {r0, r1, r8, sp, pc}
    2b7c:	0c000017 	stceq	0, cr0, [r0], {23}
    2b80:	00000fe3 	andeq	r0, r0, r3, ror #31
    2b84:	5301a203 	movwpl	sl, #4611	; 0x1203
    2b88:	04000000 	streq	r0, [r0], #-0
    2b8c:	23021b05 	movwcs	r1, #11013	; 0x2b05
    2b90:	12c60c00 	sbcne	r0, r6, #0
    2b94:	a3030000 	movwge	r0, #12288	; 0x3000
    2b98:	00005301 	andeq	r5, r0, r1, lsl #6
    2b9c:	08130400 	ldmdaeq	r3, {sl}
    2ba0:	0c002302 	stceq	3, cr2, [r0], {2}
    2ba4:	00000749 	andeq	r0, r0, r9, asr #14
    2ba8:	5301a403 	movwpl	sl, #5123	; 0x1403
    2bac:	04000000 	streq	r0, [r0], #-0
    2bb0:	23020503 	movwcs	r0, #9475	; 0x2503
    2bb4:	12d00c00 	sbcsne	r0, r0, #0
    2bb8:	a5030000 	strge	r0, [r3, #-0]
    2bbc:	00005301 	andeq	r5, r0, r1, lsl #6
    2bc0:	02030400 	andeq	r0, r3, #0
    2bc4:	0c002302 	stceq	3, cr2, [r0], {2}
    2bc8:	00000528 	andeq	r0, r0, r8, lsr #10
    2bcc:	5301a603 	movwpl	sl, #5635	; 0x1603
    2bd0:	04000000 	streq	r0, [r0], #-0
    2bd4:	23020101 	movwcs	r0, #8449	; 0x2101
    2bd8:	14b80c00 	ldrtne	r0, [r8], #3072	; 0xc00
    2bdc:	a7030000 	strge	r0, [r3, -r0]
    2be0:	00005301 	andeq	r5, r0, r1, lsl #6
    2be4:	00010400 	andeq	r0, r1, r0, lsl #8
    2be8:	00002302 	andeq	r2, r0, r2, lsl #6
    2bec:	000b6d0d 	andeq	r6, fp, sp, lsl #26
    2bf0:	01a80300 			; <UNDEFINED> instruction: 0x01a80300
    2bf4:	000016de 	ldrdeq	r1, [r0], -lr
    2bf8:	0015a60e 	andseq	sl, r5, lr, lsl #12
    2bfc:	aa030400 	bge	c3c04 <__dram_freq_start+0xc3c04>
    2c00:	0017cc01 	andseq	ip, r7, r1, lsl #24
    2c04:	05280c00 	streq	r0, [r8, #-3072]!	; 0xc00
    2c08:	ab030000 	blge	c2c10 <__dram_freq_start+0xc2c10>
    2c0c:	00005301 	andeq	r5, r0, r1, lsl #6
    2c10:	1f010400 	svcne	0x00010400
    2c14:	0c002302 	stceq	3, cr2, [r0], {2}
    2c18:	000012c6 	andeq	r1, r0, r6, asr #5
    2c1c:	5301ac03 	movwpl	sl, #7171	; 0x1c03
    2c20:	04000000 	streq	r0, [r0], #-0
    2c24:	2302100f 	movwcs	r1, #8207	; 0x200f
    2c28:	0fe30c00 	svceq	0x00e30c00
    2c2c:	ad030000 	stcge	0, cr0, [r3, #-0]
    2c30:	00005301 	andeq	r5, r0, r1, lsl #6
    2c34:	0d030400 	cfstrseq	mvf0, [r3, #-0]
    2c38:	0c002302 	stceq	3, cr2, [r0], {2}
    2c3c:	000012d0 	ldrdeq	r1, [r0], -r0
    2c40:	5301ae03 	movwpl	sl, #7683	; 0x1e03
    2c44:	04000000 	streq	r0, [r0], #-0
    2c48:	2302010c 	movwcs	r0, #8460	; 0x210c
    2c4c:	14b80c00 	ldrtne	r0, [r8], #3072	; 0xc00
    2c50:	af030000 	svcge	0x00030000
    2c54:	00005301 	andeq	r5, r0, r1, lsl #6
    2c58:	00010400 	andeq	r0, r1, r0, lsl #8
    2c5c:	00002302 	andeq	r2, r0, r2, lsl #6
    2c60:	0011fe0d 	andseq	pc, r1, sp, lsl #28
    2c64:	01b00300 	lslseq	r0, r0, #6
    2c68:	00001764 	andeq	r1, r0, r4, ror #14
    2c6c:	000fac0e 	andeq	sl, pc, lr, lsl #24
    2c70:	b2030400 	andlt	r0, r3, #0
    2c74:	00180a01 	andseq	r0, r8, r1, lsl #20
    2c78:	12c60c00 	sbcne	r0, r6, #0
    2c7c:	b3030000 	movwlt	r0, #12288	; 0x3000
    2c80:	00005301 	andeq	r5, r0, r1, lsl #6
    2c84:	011f0400 	tsteq	pc, r0, lsl #8
    2c88:	0c002302 	stceq	3, cr2, [r0], {2}
    2c8c:	000014b8 			; <UNDEFINED> instruction: 0x000014b8
    2c90:	5301b403 	movwpl	fp, #5123	; 0x1403
    2c94:	04000000 	streq	r0, [r0], #-0
    2c98:	23020001 	movwcs	r0, #8193	; 0x2001
    2c9c:	220d0000 	andcs	r0, sp, #0
    2ca0:	03000006 	movweq	r0, #6
    2ca4:	17d801b5 			; <UNDEFINED> instruction: 0x17d801b5
    2ca8:	880e0000 	stmdahi	lr, {}	; <UNPREDICTABLE>
    2cac:	0400000a 	streq	r0, [r0], #-10
    2cb0:	4801b703 	stmdami	r1, {r0, r1, r8, r9, sl, ip, sp, pc}
    2cb4:	0c000018 	stceq	0, cr0, [r0], {24}
    2cb8:	000012c6 	andeq	r1, r0, r6, asr #5
    2cbc:	5301b803 	movwpl	fp, #6147	; 0x1803
    2cc0:	04000000 	streq	r0, [r0], #-0
    2cc4:	2302011f 	movwcs	r0, #8479	; 0x211f
    2cc8:	14b80c00 	ldrtne	r0, [r8], #3072	; 0xc00
    2ccc:	b9030000 	stmdblt	r3, {}	; <UNPREDICTABLE>
    2cd0:	00005301 	andeq	r5, r0, r1, lsl #6
    2cd4:	00010400 	andeq	r0, r1, r0, lsl #8
    2cd8:	00002302 	andeq	r2, r0, r2, lsl #6
    2cdc:	0015bc0d 	andseq	fp, r5, sp, lsl #24
    2ce0:	01ba0300 			; <UNDEFINED> instruction: 0x01ba0300
    2ce4:	00001816 	andeq	r1, r0, r6, lsl r8
    2ce8:	0012160e 	andseq	r1, r2, lr, lsl #12
    2cec:	bc030400 	cfstrslt	mvf0, [r3], {-0}
    2cf0:	0018e001 	andseq	lr, r8, r1
    2cf4:	0fe30c00 	svceq	0x00e30c00
    2cf8:	bd030000 	stclt	0, cr0, [r3, #-0]
    2cfc:	00005301 	andeq	r5, r0, r1, lsl #6
    2d00:	1c040400 	cfstrsne	mvf0, [r4], {-0}
    2d04:	0c002302 	stceq	3, cr2, [r0], {2}
    2d08:	000012c6 	andeq	r1, r0, r6, asr #5
    2d0c:	5301be03 	movwpl	fp, #7683	; 0x1e03
    2d10:	04000000 	streq	r0, [r0], #-0
    2d14:	2302100c 	movwcs	r1, #8204	; 0x200c
    2d18:	05280c00 	streq	r0, [r8, #-3072]!	; 0xc00
    2d1c:	bf030000 	svclt	0x00030000
    2d20:	00005301 	andeq	r5, r0, r1, lsl #6
    2d24:	0f010400 	svceq	0x00010400
    2d28:	0c002302 	stceq	3, cr2, [r0], {2}
    2d2c:	000012d0 	ldrdeq	r1, [r0], -r0
    2d30:	5301c003 	movwpl	ip, #4099	; 0x1003
    2d34:	04000000 	streq	r0, [r0], #-0
    2d38:	23020807 	movwcs	r0, #10247	; 0x2807
    2d3c:	07490c00 	strbeq	r0, [r9, -r0, lsl #24]
    2d40:	c1030000 	mrsgt	r0, (UNDEF: 3)
    2d44:	00005301 	andeq	r5, r0, r1, lsl #6
    2d48:	07010400 	streq	r0, [r1, -r0, lsl #8]
    2d4c:	0c002302 	stceq	3, cr2, [r0], {2}
    2d50:	000012da 	ldrdeq	r1, [r0], -sl
    2d54:	5301c203 	movwpl	ip, #4611	; 0x1203
    2d58:	04000000 	streq	r0, [r0], #-0
    2d5c:	23020106 	movwcs	r0, #8454	; 0x2106
    2d60:	14b80c00 	ldrtne	r0, [r8], #3072	; 0xc00
    2d64:	c3030000 	movwgt	r0, #12288	; 0x3000
    2d68:	00005301 	andeq	r5, r0, r1, lsl #6
    2d6c:	00010400 	andeq	r0, r1, r0, lsl #8
    2d70:	00002302 	andeq	r2, r0, r2, lsl #6
    2d74:	00116c0d 	andseq	r6, r1, sp, lsl #24
    2d78:	01c40300 	biceq	r0, r4, r0, lsl #6
    2d7c:	00001854 	andeq	r1, r0, r4, asr r8
    2d80:	0006bd0e 	andeq	fp, r6, lr, lsl #26
    2d84:	c6030400 	strgt	r0, [r3], -r0, lsl #8
    2d88:	00191e01 	andseq	r1, r9, r1, lsl #28
    2d8c:	05280c00 	streq	r0, [r8, #-3072]!	; 0xc00
    2d90:	c7030000 	strgt	r0, [r3, -r0]
    2d94:	00005301 	andeq	r5, r0, r1, lsl #6
    2d98:	1f010400 	svcne	0x00010400
    2d9c:	0c002302 	stceq	3, cr2, [r0], {2}
    2da0:	000012c6 	andeq	r1, r0, r6, asr #5
    2da4:	5301c803 	movwpl	ip, #6147	; 0x1803
    2da8:	04000000 	streq	r0, [r0], #-0
    2dac:	2302001f 	movwcs	r0, #8223	; 0x201f
    2db0:	dc0d0000 	stcle	0, cr0, [sp], {-0}
    2db4:	03000011 	movweq	r0, #17
    2db8:	18ec01c9 	stmiane	ip!, {r0, r3, r6, r7, r8}^
    2dbc:	d30e0000 	movwle	r0, #57344	; 0xe000
    2dc0:	04000007 	streq	r0, [r0], #-7
    2dc4:	9201cb03 	andls	ip, r1, #3072	; 0xc00
    2dc8:	0c000019 	stceq	0, cr0, [r0], {25}
    2dcc:	00000fe3 	andeq	r0, r0, r3, ror #31
    2dd0:	5301cc03 	movwpl	ip, #7171	; 0x1c03
    2dd4:	04000000 	streq	r0, [r0], #-0
    2dd8:	23021c04 	movwcs	r1, #11268	; 0x2c04
    2ddc:	12c60c00 	sbcne	r0, r6, #0
    2de0:	cd030000 	stcgt	0, cr0, [r3, #-0]
    2de4:	00005301 	andeq	r5, r0, r1, lsl #6
    2de8:	08140400 	ldmdaeq	r4, {sl}
    2dec:	0c002302 	stceq	3, cr2, [r0], {2}
    2df0:	00000749 	andeq	r0, r0, r9, asr #14
    2df4:	5301ce03 	movwpl	ip, #7683	; 0x1e03
    2df8:	04000000 	streq	r0, [r0], #-0
    2dfc:	23020602 	movwcs	r0, #9730	; 0x2602
    2e00:	12d00c00 	sbcsne	r0, r0, #0
    2e04:	cf030000 	svcgt	0x00030000
    2e08:	00005301 	andeq	r5, r0, r1, lsl #6
    2e0c:	01050400 	tsteq	r5, r0, lsl #8
    2e10:	0c002302 	stceq	3, cr2, [r0], {2}
    2e14:	000014b8 			; <UNDEFINED> instruction: 0x000014b8
    2e18:	5301d003 	movwpl	sp, #4099	; 0x1003
    2e1c:	04000000 	streq	r0, [r0], #-0
    2e20:	23020001 	movwcs	r0, #8193	; 0x2001
    2e24:	740d0000 	strvc	r0, [sp], #-0
    2e28:	03000005 	movweq	r0, #5
    2e2c:	192a01d1 	stmdbne	sl!, {r0, r4, r6, r7, r8}
    2e30:	0e0e0000 	cdpeq	0, 0, cr0, cr14, cr0, {0}
    2e34:	0400000d 	streq	r0, [r0], #-13
    2e38:	1801d303 	stmdane	r1, {r0, r1, r8, r9, ip, lr, pc}
    2e3c:	0c00001a 	stceq	0, cr0, [r0], {26}
    2e40:	00000fe3 	andeq	r0, r0, r3, ror #31
    2e44:	5301d403 	movwpl	sp, #5123	; 0x1403
    2e48:	04000000 	streq	r0, [r0], #-0
    2e4c:	23021c04 	movwcs	r1, #11268	; 0x2c04
    2e50:	12c60c00 	sbcne	r0, r6, #0
    2e54:	d5030000 	strle	r0, [r3, #-0]
    2e58:	00005301 	andeq	r5, r0, r1, lsl #6
    2e5c:	08140400 	ldmdaeq	r4, {sl}
    2e60:	0c002302 	stceq	3, cr2, [r0], {2}
    2e64:	00000749 	andeq	r0, r0, r9, asr #14
    2e68:	5301d603 	movwpl	sp, #5635	; 0x1603
    2e6c:	04000000 	streq	r0, [r0], #-0
    2e70:	23020503 	movwcs	r0, #9475	; 0x2503
    2e74:	12d00c00 	sbcsne	r0, r0, #0
    2e78:	d7030000 	strle	r0, [r3, -r0]
    2e7c:	00005301 	andeq	r5, r0, r1, lsl #6
    2e80:	02030400 	andeq	r0, r3, #0
    2e84:	0c002302 	stceq	3, cr2, [r0], {2}
    2e88:	00000528 	andeq	r0, r0, r8, lsr #10
    2e8c:	5301d803 	movwpl	sp, #6147	; 0x1803
    2e90:	04000000 	streq	r0, [r0], #-0
    2e94:	23020101 	movwcs	r0, #8449	; 0x2101
    2e98:	14b80c00 	ldrtne	r0, [r8], #3072	; 0xc00
    2e9c:	d9030000 	stmdble	r3, {}	; <UNPREDICTABLE>
    2ea0:	00005301 	andeq	r5, r0, r1, lsl #6
    2ea4:	00010400 	andeq	r0, r1, r0, lsl #8
    2ea8:	00002302 	andeq	r2, r0, r2, lsl #6
    2eac:	000bbd0d 	andeq	fp, fp, sp, lsl #26
    2eb0:	01da0300 	bicseq	r0, sl, r0, lsl #6
    2eb4:	0000199e 	muleq	r0, lr, r9
    2eb8:	000c430e 	andeq	r4, ip, lr, lsl #6
    2ebc:	dc030400 	cfstrsle	mvf0, [r3], {-0}
    2ec0:	001ab001 	andseq	fp, sl, r1
    2ec4:	14ab0c00 	strtne	r0, [fp], #3072	; 0xc00
    2ec8:	dd030000 	stcle	0, cr0, [r3, #-0]
    2ecc:	00005301 	andeq	r5, r0, r1, lsl #6
    2ed0:	1c040400 	cfstrsne	mvf0, [r4], {-0}
    2ed4:	0c002302 	stceq	3, cr2, [r0], {2}
    2ed8:	000012c6 	andeq	r1, r0, r6, asr #5
    2edc:	5301de03 	movwpl	sp, #7683	; 0x1e03
    2ee0:	04000000 	streq	r0, [r0], #-0
    2ee4:	2302100c 	movwcs	r1, #8204	; 0x200c
    2ee8:	13ae0c00 			; <UNDEFINED> instruction: 0x13ae0c00
    2eec:	df030000 	svcle	0x00030000
    2ef0:	00005301 	andeq	r5, r0, r1, lsl #6
    2ef4:	0e020400 	cfcpyseq	mvf0, mvf2
    2ef8:	0c002302 	stceq	3, cr2, [r0], {2}
    2efc:	000012d0 	ldrdeq	r1, [r0], -r0
    2f00:	5301e003 	movwpl	lr, #4099	; 0x1003
    2f04:	04000000 	streq	r0, [r0], #-0
    2f08:	23020806 	movwcs	r0, #10246	; 0x2806
    2f0c:	07490c00 	strbeq	r0, [r9, -r0, lsl #24]
    2f10:	e1030000 	mrs	r0, (UNDEF: 3)
    2f14:	00005301 	andeq	r5, r0, r1, lsl #6
    2f18:	06020400 	streq	r0, [r2], -r0, lsl #8
    2f1c:	0c002302 	stceq	3, cr2, [r0], {2}
    2f20:	000012da 	ldrdeq	r1, [r0], -sl
    2f24:	5301e203 	movwpl	lr, #4611	; 0x1203
    2f28:	04000000 	streq	r0, [r0], #-0
    2f2c:	23020105 	movwcs	r0, #8453	; 0x2105
    2f30:	14bc0c00 	ldrtne	r0, [ip], #3072	; 0xc00
    2f34:	e3030000 	movw	r0, #12288	; 0x3000
    2f38:	00005301 	andeq	r5, r0, r1, lsl #6
    2f3c:	00010400 	andeq	r0, r1, r0, lsl #8
    2f40:	00002302 	andeq	r2, r0, r2, lsl #6
    2f44:	0007a60d 	andeq	sl, r7, sp, lsl #12
    2f48:	01e40300 	mvneq	r0, r0, lsl #6
    2f4c:	00001a24 	andeq	r1, r0, r4, lsr #20
    2f50:	0014f50e 	andseq	pc, r4, lr, lsl #10
    2f54:	e6030400 	str	r0, [r3], -r0, lsl #8
    2f58:	001b4801 	andseq	r4, fp, r1, lsl #16
    2f5c:	05aa0c00 	streq	r0, [sl, #3072]!	; 0xc00
    2f60:	e7030000 	str	r0, [r3, -r0]
    2f64:	00005301 	andeq	r5, r0, r1, lsl #6
    2f68:	1e020400 	cfcpysne	mvf0, mvf2
    2f6c:	0c002302 	stceq	3, cr2, [r0], {2}
    2f70:	0000161e 	andeq	r1, r0, lr, lsl r6
    2f74:	5301e803 	movwpl	lr, #6147	; 0x1803
    2f78:	04000000 	streq	r0, [r0], #-0
    2f7c:	23021d01 	movwcs	r1, #11521	; 0x2d01
    2f80:	0cab0c00 	stceq	12, cr0, [fp]
    2f84:	e9030000 	stmdb	r3, {}	; <UNPREDICTABLE>
    2f88:	00005301 	andeq	r5, r0, r1, lsl #6
    2f8c:	1c010400 	cfstrsne	mvf0, [r1], {-0}
    2f90:	0c002302 	stceq	3, cr2, [r0], {2}
    2f94:	000005f8 	strdeq	r0, [r0], -r8
    2f98:	5301ea03 	movwpl	lr, #6659	; 0x1a03
    2f9c:	04000000 	streq	r0, [r0], #-0
    2fa0:	23021b01 	movwcs	r1, #11009	; 0x2b01
    2fa4:	075a0c00 	ldrbeq	r0, [sl, -r0, lsl #24]
    2fa8:	eb030000 	bl	c2fb0 <__dram_freq_start+0xc2fb0>
    2fac:	00005301 	andeq	r5, r0, r1, lsl #6
    2fb0:	18030400 	stmdane	r3, {sl}
    2fb4:	0c002302 	stceq	3, cr2, [r0], {2}
    2fb8:	00000fe3 	andeq	r0, r0, r3, ror #31
    2fbc:	5301ec03 	movwpl	lr, #7171	; 0x1c03
    2fc0:	04000000 	streq	r0, [r0], #-0
    2fc4:	23021602 	movwcs	r1, #9730	; 0x2602
    2fc8:	12c60c00 	sbcne	r0, r6, #0
    2fcc:	ed030000 	stc	0, cr0, [r3, #-0]
    2fd0:	00005301 	andeq	r5, r0, r1, lsl #6
    2fd4:	00160400 	andseq	r0, r6, r0, lsl #8
    2fd8:	00002302 	andeq	r2, r0, r2, lsl #6
    2fdc:	0010810d 	andseq	r8, r0, sp, lsl #2
    2fe0:	01ee0300 	mvneq	r0, r0, lsl #6
    2fe4:	00001abc 			; <UNDEFINED> instruction: 0x00001abc
    2fe8:	000cee0e 	andeq	lr, ip, lr, lsl #28
    2fec:	f0030400 			; <UNDEFINED> instruction: 0xf0030400
    2ff0:	001baa01 	andseq	sl, fp, r1, lsl #20
    2ff4:	0dd60c00 	ldcleq	12, cr0, [r6]
    2ff8:	f1030000 			; <UNDEFINED> instruction: 0xf1030000
    2ffc:	00005301 	andeq	r5, r0, r1, lsl #6
    3000:	1f010400 	svcne	0x00010400
    3004:	0c002302 	stceq	3, cr2, [r0], {2}
    3008:	000007fd 	strdeq	r0, [r0], -sp
    300c:	5301f203 	movwpl	pc, #4611	; 0x1203	; <UNPREDICTABLE>
    3010:	04000000 	streq	r0, [r0], #-0
    3014:	23021e01 	movwcs	r1, #11777	; 0x2e01
    3018:	0c030c00 	stceq	12, cr0, [r3], {-0}
    301c:	f3030000 	vhadd.u8	d0, d3, d0
    3020:	00005301 	andeq	r5, r0, r1, lsl #6
    3024:	1d010400 	cfstrsne	mvf0, [r1, #-0]
    3028:	0c002302 	stceq	3, cr2, [r0], {2}
    302c:	000012c6 	andeq	r1, r0, r6, asr #5
    3030:	5301f403 	movwpl	pc, #5123	; 0x1403	; <UNPREDICTABLE>
    3034:	04000000 	streq	r0, [r0], #-0
    3038:	2302001d 	movwcs	r0, #8221	; 0x201d
    303c:	c90d0000 	stmdbgt	sp, {}	; <UNPREDICTABLE>
    3040:	0300000e 	movweq	r0, #14
    3044:	1b5401f5 	blne	1503820 <__dram_freq_start+0x1503820>
    3048:	c30e0000 	movwgt	r0, #57344	; 0xe000
    304c:	04000016 	streq	r0, [r0], #-22
    3050:	d301f703 	movwle	pc, #5891	; 0x1703	; <UNPREDICTABLE>
    3054:	0f00001b 	svceq	0x0000001b
    3058:	006c7463 	rsbeq	r7, ip, r3, ror #8
    305c:	5301f803 	movwpl	pc, #6147	; 0x1803	; <UNPREDICTABLE>
    3060:	02000000 	andeq	r0, r0, #0
    3064:	0d000023 	stceq	0, cr0, [r0, #-140]	; 0xffffff74
    3068:	00000df7 	strdeq	r0, [r0], -r7
    306c:	b601f903 	strlt	pc, [r1], -r3, lsl #18
    3070:	0e00001b 	mcreq	0, 0, r0, cr0, cr11, {0}
    3074:	00001345 	andeq	r1, r0, r5, asr #6
    3078:	01fb0304 	mvnseq	r0, r4, lsl #6
    307c:	00001c11 	andeq	r1, r0, r1, lsl ip
    3080:	0012c60c 	andseq	ip, r2, ip, lsl #12
    3084:	01fc0300 	mvnseq	r0, r0, lsl #6
    3088:	00000053 	andeq	r0, r0, r3, asr r0
    308c:	02011f04 	andeq	r1, r1, #16
    3090:	bd0c0023 	stclt	0, cr0, [ip, #-140]	; 0xffffff74
    3094:	03000016 	movweq	r0, #22
    3098:	005301fd 	ldrsheq	r0, [r3], #-29	; 0xffffffe3
    309c:	01040000 	mrseq	r0, (UNDEF: 4)
    30a0:	00230200 	eoreq	r0, r3, r0, lsl #4
    30a4:	0aaf0d00 	beq	febc64ac <__bss_end+0xebc3174>
    30a8:	fe030000 	cdp2	0, 0, cr0, cr3, cr0, {0}
    30ac:	001bdf01 	andseq	sp, fp, r1, lsl #30
    30b0:	090a0e00 	stmdbeq	sl, {r9, sl, fp}
    30b4:	03040000 	movweq	r0, #16384	; 0x4000
    30b8:	1c850200 	sfmne	f0, 4, [r5], {0}
    30bc:	e30c0000 	movw	r0, #49152	; 0xc000
    30c0:	0300000f 	movweq	r0, #15
    30c4:	00530201 	subseq	r0, r3, r1, lsl #4
    30c8:	04040000 	streq	r0, [r4], #-0
    30cc:	0023021c 	eoreq	r0, r3, ip, lsl r2
    30d0:	0012c60c 	andseq	ip, r2, ip, lsl #12
    30d4:	02020300 	andeq	r0, r2, #0
    30d8:	00000053 	andeq	r0, r0, r3, asr r0
    30dc:	02081404 	andeq	r1, r8, #67108864	; 0x4000000
    30e0:	490c0023 	stmdbmi	ip, {r0, r1, r5}
    30e4:	03000007 	movweq	r0, #7
    30e8:	00530203 	subseq	r0, r3, r3, lsl #4
    30ec:	02040000 	andeq	r0, r4, #0
    30f0:	00230206 	eoreq	r0, r3, r6, lsl #4
    30f4:	0012d00c 	andseq	sp, r2, ip
    30f8:	02040300 	andeq	r0, r4, #0
    30fc:	00000053 	andeq	r0, r0, r3, asr r0
    3100:	02010504 	andeq	r0, r1, #16777216	; 0x1000000
    3104:	bd0c0023 	stclt	0, cr0, [ip, #-140]	; 0xffffff74
    3108:	03000016 	movweq	r0, #22
    310c:	00530205 	subseq	r0, r3, r5, lsl #4
    3110:	01040000 	mrseq	r0, (UNDEF: 4)
    3114:	00230200 	eoreq	r0, r3, r0, lsl #4
    3118:	08ba0d00 	ldmeq	sl!, {r8, sl, fp}
    311c:	06030000 	streq	r0, [r3], -r0
    3120:	001c1d02 	andseq	r1, ip, r2, lsl #26
    3124:	05b30e00 	ldreq	r0, [r3, #3584]!	; 0xe00
    3128:	03040000 	movweq	r0, #16384	; 0x4000
    312c:	1d2f020a 	sfmne	f0, 4, [pc, #-40]!	; 310c <__dram_freq_start+0x310c>
    3130:	c60c0000 	strgt	r0, [ip], -r0
    3134:	03000012 	movweq	r0, #18
    3138:	0053020b 	subseq	r0, r3, fp, lsl #4
    313c:	08040000 	stmdaeq	r4, {}	; <UNPREDICTABLE>
    3140:	00230218 	eoreq	r0, r3, r8, lsl r2
    3144:	0014ab0c 	andseq	sl, r4, ip, lsl #22
    3148:	020c0300 	andeq	r0, ip, #0
    314c:	00000053 	andeq	r0, r0, r3, asr r0
    3150:	02130504 	andseq	r0, r3, #16777216	; 0x1000000
    3154:	d00c0023 	andle	r0, ip, r3, lsr #32
    3158:	03000012 	movweq	r0, #18
    315c:	0053020d 	subseq	r0, r3, sp, lsl #4
    3160:	07040000 	streq	r0, [r4, -r0]
    3164:	0023020c 	eoreq	r0, r3, ip, lsl #4
    3168:	0013ae0c 	andseq	sl, r3, ip, lsl #28
    316c:	020e0300 	andeq	r0, lr, #0
    3170:	00000053 	andeq	r0, r0, r3, asr r0
    3174:	020a0204 	andeq	r0, sl, #1073741824	; 0x40000000
    3178:	da0c0023 	ble	30320c <__dram_freq_start+0x30320c>
    317c:	03000012 	movweq	r0, #18
    3180:	0053020f 	subseq	r0, r3, pc, lsl #4
    3184:	02040000 	andeq	r0, r4, #0
    3188:	00230208 	eoreq	r0, r3, r8, lsl #4
    318c:	0007490c 	andeq	r4, r7, ip, lsl #18
    3190:	02100300 	andseq	r0, r0, #0
    3194:	00000053 	andeq	r0, r0, r3, asr r0
    3198:	02060204 	andeq	r0, r6, #1073741824	; 0x40000000
    319c:	e40c0023 	str	r0, [ip], #-35	; 0x23
    31a0:	03000012 	movweq	r0, #18
    31a4:	00530211 	subseq	r0, r3, r1, lsl r2
    31a8:	05040000 	streq	r0, [r4, #-0]
    31ac:	00230201 	eoreq	r0, r3, r1, lsl #4
    31b0:	0016bd0c 	andseq	fp, r6, ip, lsl #26
    31b4:	02120300 	andseq	r0, r2, #0
    31b8:	00000053 	andeq	r0, r0, r3, asr r0
    31bc:	02000104 	andeq	r0, r0, #1
    31c0:	0d000023 	stceq	0, cr0, [r0, #-140]	; 0xffffff74
    31c4:	00000f78 	andeq	r0, r0, r8, ror pc
    31c8:	91021303 	tstls	r2, r3, lsl #6
    31cc:	1000001c 	andne	r0, r0, ip, lsl r0
    31d0:	0000164f 	andeq	r1, r0, pc, asr #12
    31d4:	150301f8 	strne	r0, [r3, #-504]	; 0x1f8
    31d8:	00227102 	eoreq	r7, r2, r2, lsl #2
    31dc:	0d751100 	ldfeqe	f1, [r5, #-0]
    31e0:	16030000 	strne	r0, [r3], -r0
    31e4:	00227102 	eoreq	r7, r2, r2, lsl #2
    31e8:	00230200 	eoreq	r0, r3, r0, lsl #4
    31ec:	0012c611 	andseq	ip, r2, r1, lsl r6
    31f0:	02170300 	andseq	r0, r7, #0
    31f4:	00000098 	muleq	r0, r8, r0
    31f8:	11042302 	tstne	r4, r2, lsl #6
    31fc:	00001647 	andeq	r1, r0, r7, asr #12
    3200:	76021803 	strvc	r1, [r2], -r3, lsl #16
    3204:	02000022 	andeq	r0, r0, #34	; 0x22
    3208:	d0110823 	andsle	r0, r1, r3, lsr #16
    320c:	03000012 	movweq	r0, #18
    3210:	00980219 	addseq	r0, r8, r9, lsl r2
    3214:	23020000 	movwcs	r0, #8192	; 0x2000
    3218:	0f15110c 	svceq	0x0015110c
    321c:	1a030000 	bne	c3224 <__dram_freq_start+0xc3224>
    3220:	00227b02 	eoreq	r7, r2, r2, lsl #22
    3224:	10230200 	eorne	r0, r3, r0, lsl #4
    3228:	0012da11 	andseq	sp, r2, r1, lsl sl
    322c:	021b0300 	andseq	r0, fp, #0
    3230:	00000098 	muleq	r0, r8, r0
    3234:	11142302 	tstne	r4, r2, lsl #6
    3238:	000006dd 	ldrdeq	r0, [r0], -sp
    323c:	80021c03 	andhi	r1, r2, r3, lsl #24
    3240:	02000022 	andeq	r0, r0, #34	; 0x22
    3244:	e4111823 	ldr	r1, [r1], #-2083	; 0x823
    3248:	03000012 	movweq	r0, #18
    324c:	0098021d 	addseq	r0, r8, sp, lsl r2
    3250:	23020000 	movwcs	r0, #8192	; 0x2000
    3254:	11f6111c 	mvnsne	r1, ip, lsl r1
    3258:	1e030000 	cdpne	0, 0, cr0, cr3, cr0, {0}
    325c:	00228502 	eoreq	r8, r2, r2, lsl #10
    3260:	20230200 	eorcs	r0, r3, r0, lsl #4
    3264:	0012ee11 	andseq	lr, r2, r1, lsl lr
    3268:	021f0300 	andseq	r0, pc, #0
    326c:	00000098 	muleq	r0, r8, r0
    3270:	11242302 	teqne	r4, r2, lsl #6
    3274:	000009f0 	strdeq	r0, [r0], -r0	; <UNPREDICTABLE>
    3278:	8a022003 	bhi	8b28c <__dram_freq_start+0x8b28c>
    327c:	02000022 	andeq	r0, r0, #34	; 0x22
    3280:	f8112823 			; <UNDEFINED> instruction: 0xf8112823
    3284:	03000012 	movweq	r0, #18
    3288:	00980221 	addseq	r0, r8, r1, lsr #4
    328c:	23020000 	movwcs	r0, #8192	; 0x2000
    3290:	1489112c 	strne	r1, [r9], #300	; 0x12c
    3294:	22030000 	andcs	r0, r3, #0
    3298:	00228f02 	eoreq	r8, r2, r2, lsl #30
    329c:	30230200 	eorcc	r0, r3, r0, lsl #4
    32a0:	00130211 	andseq	r0, r3, r1, lsl r2
    32a4:	02230300 	eoreq	r0, r3, #0
    32a8:	000022a4 	andeq	r2, r0, r4, lsr #5
    32ac:	11342302 	teqne	r4, r2, lsl #6
    32b0:	00000f31 	andeq	r0, r0, r1, lsr pc
    32b4:	a9022403 	stmdbge	r2, {r0, r1, sl, sp}
    32b8:	02000022 	andeq	r0, r0, #34	; 0x22
    32bc:	0c114023 	ldceq	0, cr4, [r1], {35}	; 0x23
    32c0:	03000013 	movweq	r0, #19
    32c4:	22ae0225 	adccs	r0, lr, #1342177282	; 0x50000002
    32c8:	23020000 	movwcs	r0, #8192	; 0x2000
    32cc:	085a1144 	ldmdaeq	sl, {r2, r6, r8, ip}^
    32d0:	26030000 	strcs	r0, [r3], -r0
    32d4:	0022b302 	eoreq	fp, r2, r2, lsl #6
    32d8:	50230200 	eorpl	r0, r3, r0, lsl #4
    32dc:	000f1d11 	andeq	r1, pc, r1, lsl sp	; <UNPREDICTABLE>
    32e0:	02270300 	eoreq	r0, r7, #0
    32e4:	000022b8 			; <UNDEFINED> instruction: 0x000022b8
    32e8:	11542302 	cmpne	r4, r2, lsl #6
    32ec:	00000ce3 	andeq	r0, r0, r3, ror #25
    32f0:	bd022803 	stclt	8, cr2, [r2, #-12]
    32f4:	02000022 	andeq	r0, r0, #34	; 0x22
    32f8:	0d115823 	ldceq	8, cr5, [r1, #-140]	; 0xffffff74
    32fc:	03000008 	movweq	r0, #8
    3300:	00980229 	addseq	r0, r8, r9, lsr #4
    3304:	23020000 	movwcs	r0, #8192	; 0x2000
    3308:	0bf1115c 	bleq	ffc47880 <__bss_end+0xfc44548>
    330c:	2a030000 	bcs	c3314 <__dram_freq_start+0xc3314>
    3310:	0022c202 	eoreq	ip, r2, r2, lsl #4
    3314:	60230200 	eorvs	r0, r3, r0, lsl #4
    3318:	000bfa11 	andeq	pc, fp, r1, lsl sl	; <UNPREDICTABLE>
    331c:	022b0300 	eoreq	r0, fp, #0
    3320:	000022c7 	andeq	r2, r0, r7, asr #5
    3324:	11642302 	cmnne	r4, r2, lsl #6
    3328:	00000804 	andeq	r0, r0, r4, lsl #16
    332c:	cc022c03 	stcgt	12, cr2, [r2], {3}
    3330:	02000022 	andeq	r0, r0, #34	; 0x22
    3334:	15116823 	ldrne	r6, [r1, #-2083]	; 0x823
    3338:	03000016 	movweq	r0, #22
    333c:	22d1022d 	sbcscs	r0, r1, #-805306366	; 0xd0000002
    3340:	23020000 	movwcs	r0, #8192	; 0x2000
    3344:	1323116c 	teqne	r3, #27
    3348:	2e030000 	cdpcs	0, 0, cr0, cr3, cr0, {0}
    334c:	0022e602 	eoreq	lr, r2, r2, lsl #12
    3350:	70230200 	eorvc	r0, r3, r0, lsl #4
    3354:	0014a311 	andseq	sl, r4, r1, lsl r3
    3358:	022f0300 	eoreq	r0, pc, #0
    335c:	000022eb 	andeq	r2, r0, fp, ror #5
    3360:	01802303 	orreq	r2, r0, r3, lsl #6
    3364:	00096a11 	andeq	r6, r9, r1, lsl sl
    3368:	02300300 	eorseq	r0, r0, #0
    336c:	000022eb 	andeq	r2, r0, fp, ror #5
    3370:	01842303 	orreq	r2, r4, r3, lsl #6
    3374:	00067011 	andeq	r7, r6, r1, lsl r0
    3378:	02310300 	eorseq	r0, r1, #0
    337c:	000022eb 	andeq	r2, r0, fp, ror #5
    3380:	01882303 	orreq	r2, r8, r3, lsl #6
    3384:	00116211 	andseq	r6, r1, r1, lsl r2
    3388:	02320300 	eorseq	r0, r2, #0
    338c:	000022eb 	andeq	r2, r0, fp, ror #5
    3390:	018c2303 	orreq	r2, ip, r3, lsl #6
    3394:	0009af11 	andeq	sl, r9, r1, lsl pc
    3398:	02330300 	eorseq	r0, r3, #0
    339c:	000022eb 	andeq	r2, r0, fp, ror #5
    33a0:	01902303 	orrseq	r2, r0, r3, lsl #6
    33a4:	00144711 	andseq	r4, r4, r1, lsl r7
    33a8:	02340300 	eorseq	r0, r4, #0
    33ac:	000022eb 	andeq	r2, r0, fp, ror #5
    33b0:	01942303 	orrseq	r2, r4, r3, lsl #6
    33b4:	0013e811 	andseq	lr, r3, r1, lsl r8
    33b8:	02350300 	eorseq	r0, r5, #0
    33bc:	000022eb 	andeq	r2, r0, fp, ror #5
    33c0:	01982303 	orrseq	r2, r8, r3, lsl #6
    33c4:	00073711 	andeq	r3, r7, r1, lsl r7
    33c8:	02360300 	eorseq	r0, r6, #0
    33cc:	000022eb 	andeq	r2, r0, fp, ror #5
    33d0:	019c2303 	orrseq	r2, ip, r3, lsl #6
    33d4:	000e1211 	andeq	r1, lr, r1, lsl r2
    33d8:	02370300 	eorseq	r0, r7, #0
    33dc:	000022eb 	andeq	r2, r0, fp, ror #5
    33e0:	01a02303 	lsleq	r2, r3, #6
    33e4:	0005ca11 	andeq	ip, r5, r1, lsl sl
    33e8:	02380300 	eorseq	r0, r8, #0
    33ec:	000022eb 	andeq	r2, r0, fp, ror #5
    33f0:	01a42303 			; <UNDEFINED> instruction: 0x01a42303
    33f4:	00107111 	andseq	r7, r0, r1, lsl r1
    33f8:	02390300 	eorseq	r0, r9, #0
    33fc:	000022eb 	andeq	r2, r0, fp, ror #5
    3400:	01a82303 			; <UNDEFINED> instruction: 0x01a82303
    3404:	00078411 	andeq	r8, r7, r1, lsl r4
    3408:	023a0300 	eorseq	r0, sl, #0
    340c:	000022eb 	andeq	r2, r0, fp, ror #5
    3410:	01ac2303 			; <UNDEFINED> instruction: 0x01ac2303
    3414:	000cdc11 	andeq	sp, ip, r1, lsl ip
    3418:	023b0300 	eorseq	r0, fp, #0
    341c:	000022eb 	andeq	r2, r0, fp, ror #5
    3420:	01b02303 	lslseq	r2, r3, #6
    3424:	000be211 	andeq	lr, fp, r1, lsl r2
    3428:	023c0300 	eorseq	r0, ip, #0
    342c:	000022eb 	andeq	r2, r0, fp, ror #5
    3430:	01b42303 			; <UNDEFINED> instruction: 0x01b42303
    3434:	0012be11 	andseq	fp, r2, r1, lsl lr
    3438:	023d0300 	eorseq	r0, sp, #0
    343c:	000022f0 	strdeq	r2, [r0], -r0
    3440:	01b82303 			; <UNDEFINED> instruction: 0x01b82303
    3444:	000ad711 	andeq	sp, sl, r1, lsl r7
    3448:	023e0300 	eorseq	r0, lr, #0
    344c:	000022f0 	strdeq	r2, [r0], -r0
    3450:	01bc2303 			; <UNDEFINED> instruction: 0x01bc2303
    3454:	000fc411 	andeq	ip, pc, r1, lsl r4	; <UNPREDICTABLE>
    3458:	023f0300 	eorseq	r0, pc, #0
    345c:	000022f0 	strdeq	r2, [r0], -r0
    3460:	01c02303 	biceq	r2, r0, r3, lsl #6
    3464:	00140211 	andseq	r0, r4, r1, lsl r2
    3468:	02400300 	subeq	r0, r0, #0
    346c:	000022f5 	strdeq	r2, [r0], -r5
    3470:	01c42303 	biceq	r2, r4, r3, lsl #6
    3474:	0012b611 	andseq	fp, r2, r1, lsl r6
    3478:	02410300 	subeq	r0, r1, #0
    347c:	000022fa 	strdeq	r2, [r0], -sl
    3480:	01c82303 	biceq	r2, r8, r3, lsl #6
    3484:	00073d11 	andeq	r3, r7, r1, lsl sp
    3488:	02420300 	subeq	r0, r2, #0
    348c:	000022ff 	strdeq	r2, [r0], -pc	; <UNPREDICTABLE>
    3490:	01cc2303 	biceq	r2, ip, r3, lsl #6
    3494:	000d2911 	andeq	r2, sp, r1, lsl r9
    3498:	02430300 	subeq	r0, r3, #0
    349c:	00000098 	muleq	r0, r8, r0
    34a0:	01d02303 	bicseq	r2, r0, r3, lsl #6
    34a4:	00089311 	andeq	r9, r8, r1, lsl r3
    34a8:	02440300 	subeq	r0, r4, #0
    34ac:	000022eb 	andeq	r2, r0, fp, ror #5
    34b0:	01d42303 	bicseq	r2, r4, r3, lsl #6
    34b4:	000d9a11 	andeq	r9, sp, r1, lsl sl
    34b8:	02450300 	subeq	r0, r5, #0
    34bc:	000022f0 	strdeq	r2, [r0], -r0
    34c0:	01d82303 	bicseq	r2, r8, r3, lsl #6
    34c4:	00054c11 	andeq	r4, r5, r1, lsl ip
    34c8:	02460300 	subeq	r0, r6, #0
    34cc:	000022f0 	strdeq	r2, [r0], -r0
    34d0:	01dc2303 	bicseq	r2, ip, r3, lsl #6
    34d4:	000d3411 	andeq	r3, sp, r1, lsl r4
    34d8:	02470300 	subeq	r0, r7, #0
    34dc:	00002314 	andeq	r2, r0, r4, lsl r3
    34e0:	01e02303 	mvneq	r2, r3, lsl #6
    34e4:	0010a511 	andseq	sl, r0, r1, lsl r5
    34e8:	02480300 	subeq	r0, r8, #0
    34ec:	00002319 	andeq	r2, r0, r9, lsl r3
    34f0:	02802303 	addeq	r2, r0, #201326592	; 0xc000000
    34f4:	0010e111 	andseq	lr, r0, r1, lsl r1
    34f8:	02490300 	subeq	r0, r9, #0
    34fc:	0000231e 	andeq	r2, r0, lr, lsl r3
    3500:	02842303 	addeq	r2, r4, #201326592	; 0xc000000
    3504:	00098e11 	andeq	r8, r9, r1, lsl lr
    3508:	024a0300 	subeq	r0, sl, #0
    350c:	0000231e 	andeq	r2, r0, lr, lsl r3
    3510:	02882303 	addeq	r2, r8, #201326592	; 0xc000000
    3514:	000c9211 	andeq	r9, ip, r1, lsl r2
    3518:	024b0300 	subeq	r0, fp, #0
    351c:	0000231e 	andeq	r2, r0, lr, lsl r3
    3520:	028c2303 	addeq	r2, ip, #201326592	; 0xc000000
    3524:	000e3611 	andeq	r3, lr, r1, lsl r6
    3528:	024c0300 	subeq	r0, ip, #0
    352c:	0000231e 	andeq	r2, r0, lr, lsl r3
    3530:	02902303 	addseq	r2, r0, #201326592	; 0xc000000
    3534:	00065711 	andeq	r5, r6, r1, lsl r7
    3538:	024d0300 	subeq	r0, sp, #0
    353c:	0000231e 	andeq	r2, r0, lr, lsl r3
    3540:	02942303 	addseq	r2, r4, #201326592	; 0xc000000
    3544:	000e7e11 	andeq	r7, lr, r1, lsl lr
    3548:	024e0300 	subeq	r0, lr, #0
    354c:	00002323 	andeq	r2, r0, r3, lsr #6
    3550:	02982303 	addseq	r2, r8, #201326592	; 0xc000000
    3554:	000ef711 	andeq	pc, lr, r1, lsl r7	; <UNPREDICTABLE>
    3558:	024f0300 	subeq	r0, pc, #0
    355c:	00002323 	andeq	r2, r0, r3, lsr #6
    3560:	029c2303 	addseq	r2, ip, #201326592	; 0xc000000
    3564:	0013ee11 	andseq	lr, r3, r1, lsl lr
    3568:	02500300 	subseq	r0, r0, #0
    356c:	00002328 	andeq	r2, r0, r8, lsr #6
    3570:	02a02303 	adceq	r2, r0, #201326592	; 0xc000000
    3574:	000d3f11 	andeq	r3, sp, r1, lsl pc
    3578:	02510300 	subseq	r0, r1, #0
    357c:	00000098 	muleq	r0, r8, r0
    3580:	02a42303 	adceq	r2, r4, #201326592	; 0xc000000
    3584:	00127b11 	andseq	r7, r2, r1, lsl fp
    3588:	02520300 	subseq	r0, r2, #0
    358c:	0000232d 	andeq	r2, r0, sp, lsr #6
    3590:	02a82303 	adceq	r2, r8, #201326592	; 0xc000000
    3594:	00077911 	andeq	r7, r7, r1, lsl r9
    3598:	02530300 	subseq	r0, r3, #0
    359c:	00002332 	andeq	r2, r0, r2, lsr r3
    35a0:	02ac2303 	adceq	r2, ip, #201326592	; 0xc000000
    35a4:	0010fc11 	andseq	pc, r0, r1, lsl ip	; <UNPREDICTABLE>
    35a8:	02540300 	subseq	r0, r4, #0
    35ac:	00002332 	andeq	r2, r0, r2, lsr r3
    35b0:	02b02303 	adcseq	r2, r0, #201326592	; 0xc000000
    35b4:	000bda11 	andeq	sp, fp, r1, lsl sl
    35b8:	02550300 	subseq	r0, r5, #0
    35bc:	00002337 	andeq	r2, r0, r7, lsr r3
    35c0:	02b42303 	adcseq	r2, r4, #201326592	; 0xc000000
    35c4:	000eef11 	andeq	lr, lr, r1, lsl pc
    35c8:	02560300 	subseq	r0, r6, #0
    35cc:	00002337 	andeq	r2, r0, r7, lsr r3
    35d0:	02b82303 	adcseq	r2, r8, #201326592	; 0xc000000
    35d4:	00056e11 	andeq	r6, r5, r1, lsl lr
    35d8:	02570300 	subseq	r0, r7, #0
    35dc:	0000233c 	andeq	r2, r0, ip, lsr r3
    35e0:	02bc2303 	adcseq	r2, ip, #201326592	; 0xc000000
    35e4:	0013e011 	andseq	lr, r3, r1, lsl r0
    35e8:	02580300 	subseq	r0, r8, #0
    35ec:	00002341 	andeq	r2, r0, r1, asr #6
    35f0:	02c02303 	sbceq	r2, r0, #201326592	; 0xc000000
    35f4:	0014ee11 	andseq	lr, r4, r1, lsl lr
    35f8:	02590300 	subseq	r0, r9, #0
    35fc:	00002346 	andeq	r2, r0, r6, asr #6
    3600:	02c42303 	sbceq	r2, r4, #201326592	; 0xc000000
    3604:	000d0711 	andeq	r0, sp, r1, lsl r7
    3608:	025a0300 	subseq	r0, sl, #0
    360c:	0000234b 	andeq	r2, r0, fp, asr #6
    3610:	02c82303 	sbceq	r2, r8, #201326592	; 0xc000000
    3614:	000a9f11 	andeq	r9, sl, r1, lsl pc
    3618:	025b0300 	subseq	r0, fp, #0
    361c:	00002350 	andeq	r2, r0, r0, asr r3
    3620:	02cc2303 	sbceq	r2, ip, #201326592	; 0xc000000
    3624:	000e6111 	andeq	r6, lr, r1, lsl r1
    3628:	025c0300 	subseq	r0, ip, #0
    362c:	00002355 	andeq	r2, r0, r5, asr r3
    3630:	02d02303 	sbcseq	r2, r0, #201326592	; 0xc000000
    3634:	0014e611 	andseq	lr, r4, r1, lsl r6
    3638:	025d0300 	subseq	r0, sp, #0
    363c:	0000235a 	andeq	r2, r0, sl, asr r3
    3640:	02d42303 	sbcseq	r2, r4, #201326592	; 0xc000000
    3644:	000e6911 	andeq	r6, lr, r1, lsl r9
    3648:	025e0300 	subseq	r0, lr, #0
    364c:	00000098 	muleq	r0, r8, r0
    3650:	02d82303 	sbcseq	r2, r8, #201326592	; 0xc000000
    3654:	00110711 	andseq	r0, r1, r1, lsl r7
    3658:	025f0300 	subseq	r0, pc, #0
    365c:	0000235f 	andeq	r2, r0, pc, asr r3
    3660:	02dc2303 	sbcseq	r2, ip, #201326592	; 0xc000000
    3664:	000fea11 	andeq	lr, pc, r1, lsl sl	; <UNPREDICTABLE>
    3668:	02600300 	rsbeq	r0, r0, #0
    366c:	00000098 	muleq	r0, r8, r0
    3670:	02e02303 	rsceq	r2, r0, #201326592	; 0xc000000
    3674:	00068411 	andeq	r8, r6, r1, lsl r4
    3678:	02610300 	rsbeq	r0, r1, #0
    367c:	00002364 	andeq	r2, r0, r4, ror #6
    3680:	02e42303 	rsceq	r2, r4, #201326592	; 0xc000000
    3684:	000d6a11 	andeq	r6, sp, r1, lsl sl
    3688:	02620300 	rsbeq	r0, r2, #0
    368c:	00002369 	andeq	r2, r0, r9, ror #6
    3690:	02e82303 	rsceq	r2, r8, #201326592	; 0xc000000
    3694:	00082311 	andeq	r2, r8, r1, lsl r3
    3698:	02630300 	rsbeq	r0, r3, #0
    369c:	0000236e 	andeq	r2, r0, lr, ror #6
    36a0:	02f02303 	rscseq	r2, r0, #201326592	; 0xc000000
    36a4:	000a6311 	andeq	r6, sl, r1, lsl r3
    36a8:	02640300 	rsbeq	r0, r4, #0
    36ac:	00002373 	andeq	r2, r0, r3, ror r3
    36b0:	02f42303 	rscseq	r2, r4, #201326592	; 0xc000000
    36b4:	00083611 	andeq	r3, r8, r1, lsl r6
    36b8:	02650300 	rsbeq	r0, r5, #0
    36bc:	00002378 	andeq	r2, r0, r8, ror r3
    36c0:	02f82303 	rscseq	r2, r8, #201326592	; 0xc000000
    36c4:	0006fe11 	andeq	pc, r6, r1, lsl lr	; <UNPREDICTABLE>
    36c8:	02660300 	rsbeq	r0, r6, #0
    36cc:	0000237d 	andeq	r2, r0, sp, ror r3
    36d0:	02fc2303 	rscseq	r2, ip, #201326592	; 0xc000000
    36d4:	00103511 	andseq	r3, r0, r1, lsl r5
    36d8:	02670300 	rsbeq	r0, r7, #0
    36dc:	00002392 	muleq	r0, r2, r3
    36e0:	03802303 	orreq	r2, r0, #201326592	; 0xc000000
    36e4:	00100911 	andseq	r0, r0, r1, lsl r9
    36e8:	02680300 	rsbeq	r0, r8, #0
    36ec:	00002397 	muleq	r0, r7, r3
    36f0:	03f02303 	mvnseq	r2, #201326592	; 0xc000000
    36f4:	00101111 	andseq	r1, r0, r1, lsl r1
    36f8:	02690300 	rsbeq	r0, r9, #0
    36fc:	00002397 	muleq	r0, r7, r3
    3700:	03f42303 	mvnseq	r2, #201326592	; 0xc000000
    3704:	01a80700 			; <UNDEFINED> instruction: 0x01a80700
    3708:	59070000 	stmdbpl	r7, {}	; <UNPREDICTABLE>
    370c:	07000002 	streq	r0, [r0, -r2]
    3710:	0000032c 	andeq	r0, r0, ip, lsr #6
    3714:	00041007 	andeq	r1, r4, r7
    3718:	05270700 	streq	r0, [r7, #-1792]!	; 0x700
    371c:	1c070000 	stcne	0, cr0, [r7], {-0}
    3720:	07000006 	streq	r0, [r0, -r6]
    3724:	000006ef 	andeq	r0, r0, pc, ror #13
    3728:	00005308 	andeq	r5, r0, r8, lsl #6
    372c:	0022a400 	eoreq	sl, r2, r0, lsl #8
    3730:	005e0900 	subseq	r0, lr, r0, lsl #18
    3734:	00020000 	andeq	r0, r2, r0
    3738:	00229407 	eoreq	r9, r2, r7, lsl #8
    373c:	07d30700 	ldrbeq	r0, [r3, r0, lsl #14]
    3740:	94070000 	strls	r0, [r7], #-0
    3744:	07000022 	streq	r0, [r0, -r2, lsr #32]
    3748:	00000884 	andeq	r0, r0, r4, lsl #17
    374c:	00095707 	andeq	r5, r9, r7, lsl #14
    3750:	09d50700 	ldmibeq	r5, {r8, r9, sl}^
    3754:	da070000 	ble	1c375c <__dram_freq_start+0x1c375c>
    3758:	0700000b 	streq	r0, [r0, -fp]
    375c:	00000d57 	andeq	r0, r0, r7, asr sp
    3760:	000e3b07 	andeq	r3, lr, r7, lsl #22
    3764:	0fa80700 	svceq	0x00a80700
    3768:	53080000 	movwpl	r0, #32768	; 0x8000
    376c:	e6000000 	str	r0, [r0], -r0
    3770:	09000022 	stmdbeq	r0, {r1, r5}
    3774:	0000005e 	andeq	r0, r0, lr, asr r0
    3778:	d6070003 	strle	r0, [r7], -r3
    377c:	07000022 	streq	r0, [r0, -r2, lsr #32]
    3780:	00001088 	andeq	r1, r0, r8, lsl #1
    3784:	0010ea07 	andseq	lr, r0, r7, lsl #20
    3788:	11820700 	orrne	r0, r2, r0, lsl #14
    378c:	e4070000 	str	r0, [r7], #-0
    3790:	07000011 	smladeq	r0, r1, r0, r0
    3794:	0000128e 	andeq	r1, r0, lr, lsl #5
    3798:	00005308 	andeq	r5, r0, r8, lsl #6
    379c:	00231400 	eoreq	r1, r3, r0, lsl #8
    37a0:	005e0900 	subseq	r0, lr, r0, lsl #18
    37a4:	00070000 	andeq	r0, r7, r0
    37a8:	00230407 	eoreq	r0, r3, r7, lsl #8
    37ac:	13da0700 	bicsne	r0, sl, #0
    37b0:	60070000 	andvs	r0, r7, r0
    37b4:	07000014 	smladeq	r0, r4, r0, r0
    37b8:	000014d4 	ldrdeq	r1, [r0], -r4
    37bc:	00154807 	andseq	r4, r5, r7, lsl #16
    37c0:	16160700 	ldrne	r0, [r6], -r0, lsl #14
    37c4:	d2070000 	andle	r0, r7, #0
    37c8:	07000016 	smladeq	r0, r6, r0, r0
    37cc:	00001758 	andeq	r1, r0, r8, asr r7
    37d0:	0017cc07 	andseq	ip, r7, r7, lsl #24
    37d4:	180a0700 	stmdane	sl, {r8, r9, sl}
    37d8:	48070000 	stmdami	r7, {}	; <UNPREDICTABLE>
    37dc:	07000018 	smladeq	r0, r8, r0, r0
    37e0:	000018e0 	andeq	r1, r0, r0, ror #17
    37e4:	00191e07 	andseq	r1, r9, r7, lsl #28
    37e8:	19920700 	ldmibne	r2, {r8, r9, sl}
    37ec:	18070000 	stmdane	r7, {}	; <UNPREDICTABLE>
    37f0:	0700001a 	smladeq	r0, sl, r0, r0
    37f4:	00001ab0 			; <UNDEFINED> instruction: 0x00001ab0
    37f8:	001b4807 	andseq	r4, fp, r7, lsl #16
    37fc:	009d0700 	addseq	r0, sp, r0, lsl #14
    3800:	aa070000 	bge	1c3808 <__dram_freq_start+0x1c3808>
    3804:	0700001b 	smladeq	r0, fp, r0, r0
    3808:	00001bd3 	ldrdeq	r1, [r0], -r3
    380c:	001c1107 	andseq	r1, ip, r7, lsl #2
    3810:	1c850700 	stcne	7, cr0, [r5], {0}
    3814:	53080000 	movwpl	r0, #32768	; 0x8000
    3818:	92000000 	andls	r0, r0, #0
    381c:	09000023 	stmdbeq	r0, {r0, r1, r5}
    3820:	0000005e 	andeq	r0, r0, lr, asr r0
    3824:	8207001b 	andhi	r0, r7, #27
    3828:	07000023 	streq	r0, [r0, -r3, lsr #32]
    382c:	00001d2f 	andeq	r1, r0, pc, lsr #26
    3830:	0014910d 	andseq	r9, r4, sp, lsl #2
    3834:	026a0300 	rsbeq	r0, sl, #0
    3838:	00001d3b 	andeq	r1, r0, fp, lsr sp
    383c:	0eba0112 	mrceq	1, 5, r0, cr10, cr2, {0}
    3840:	3e010000 	cdpcc	0, 0, cr0, cr1, cr0, {0}
    3844:	00005301 	andeq	r5, r0, r1, lsl #6
    3848:	23c60100 	biccs	r0, r6, #0
    384c:	31130000 	tstcc	r3, r0
    3850:	01000019 	tsteq	r0, r9, lsl r0
    3854:	00005340 	andeq	r5, r0, r0, asr #6
    3858:	f5140000 			; <UNDEFINED> instruction: 0xf5140000
    385c:	0100000f 	tsteq	r0, pc
    3860:	005301c4 	subseq	r0, r3, r4, asr #3
    3864:	ee010000 	cdp	0, 0, cr0, cr1, cr0, {0}
    3868:	15000023 	strne	r0, [r0, #-35]	; 0x23
    386c:	00000326 	andeq	r0, r0, r6, lsr #6
    3870:	0073c401 	rsbseq	ip, r3, r1, lsl #8
    3874:	4a130000 	bmi	4c387c <__dram_freq_start+0x4c387c>
    3878:	01000011 	tsteq	r0, r1, lsl r0
    387c:	00004cc6 	andeq	r4, r0, r6, asr #25
    3880:	01160000 	tsteq	r6, r0
    3884:	000007eb 	andeq	r0, r0, fp, ror #15
    3888:	bc010b01 	stclt	11, cr0, [r1], {1}
    388c:	e8f0000f 	ldm	r0!, {r0, r1, r2, r3}^
    3890:	02f0000f 	rscseq	r0, r0, #15
    3894:	2432007d 	ldrtcs	r0, [r2], #-125	; 0x7d
    3898:	73170000 	tstvc	r7, #0
    389c:	01000013 	tsteq	r0, r3, lsl r0
    38a0:	0000530b 	andeq	r5, r0, fp, lsl #6
    38a4:	00103700 	andseq	r3, r0, r0, lsl #14
    38a8:	0c831800 	stceq	8, cr1, [r3], {0}
    38ac:	0b010000 	bleq	438b4 <__dram_freq_start+0x438b4>
    38b0:	00000053 	andeq	r0, r0, r3, asr r0
    38b4:	31195101 	tstcc	r9, r1, lsl #2
    38b8:	01000019 	tsteq	r0, r9, lsl r0
    38bc:	0000530e 	andeq	r5, r0, lr, lsl #6
    38c0:	00104a00 	andseq	r4, r0, r0, lsl #20
    38c4:	011a0000 	tsteq	sl, r0
    38c8:	000007c0 	andeq	r0, r0, r0, asr #15
    38cc:	e8012901 	stmda	r1, {r0, r8, fp, sp}
    38d0:	04f0000f 	ldrbteq	r0, [r0], #15
    38d4:	02f00010 	rscseq	r0, r0, #16
    38d8:	011a007d 	tsteq	sl, sp, ror r0
    38dc:	00000a20 	andeq	r0, r0, r0, lsr #20
    38e0:	04013301 	streq	r3, [r1], #-769	; 0x301
    38e4:	28f00010 	ldmcs	r0!, {r4}^
    38e8:	02f00010 	rscseq	r0, r0, #16
    38ec:	a81b007d 	ldmdage	fp, {r0, r2, r3, r4, r5, r6}
    38f0:	28000023 	stmdacs	r0, {r0, r1, r5}
    38f4:	30f00010 	rscscc	r0, r0, r0, lsl r0
    38f8:	02f00010 	rscseq	r0, r0, #16
    38fc:	2476007d 	ldrbtcs	r0, [r6], #-125	; 0x7d
    3900:	ba1c0000 	blt	703908 <__dram_freq_start+0x703908>
    3904:	01000023 	tsteq	r0, r3, lsr #32
    3908:	01160050 	tsteq	r6, r0, asr r0
    390c:	000013b6 			; <UNDEFINED> instruction: 0x000013b6
    3910:	30014601 	andcc	r4, r1, r1, lsl #12
    3914:	44f00010 	ldrbtmi	r0, [r0], #16
    3918:	02f00010 	rscseq	r0, r0, #16
    391c:	249e007d 	ldrcs	r0, [lr], #125	; 0x7d
    3920:	31190000 	tstcc	r9, r0
    3924:	01000019 	tsteq	r0, r9, lsl r0
    3928:	00005348 	andeq	r5, r0, r8, asr #6
    392c:	00109300 	andseq	r9, r0, r0, lsl #6
    3930:	011d0000 	tsteq	sp, r0
    3934:	00000696 	muleq	r0, r6, r6
    3938:	44015101 	strmi	r5, [r1], #-257	; 0x101
    393c:	e0f00010 	rscs	r0, r0, r0, lsl r0
    3940:	b3f00010 	mvnslt	r0, #16
    3944:	85000010 	strhi	r0, [r0, #-16]
    3948:	17000025 	strne	r0, [r0, -r5, lsr #32]
    394c:	000011cb 	andeq	r1, r0, fp, asr #3
    3950:	00535101 	subseq	r5, r3, r1, lsl #2
    3954:	10d30000 	sbcsne	r0, r3, r0
    3958:	a2190000 	andsge	r0, r9, #0
    395c:	01000016 	tsteq	r0, r6, lsl r0
    3960:	00005353 	andeq	r5, r0, r3, asr r3
    3964:	0010e600 	andseq	lr, r0, r0, lsl #12
    3968:	15941900 	ldrne	r1, [r4, #2304]	; 0x900
    396c:	54010000 	strpl	r0, [r1], #-0
    3970:	00000053 	andeq	r0, r0, r3, asr r0
    3974:	000010e6 	andeq	r1, r0, r6, ror #1
    3978:	00114119 	andseq	r4, r1, r9, lsl r1
    397c:	53550100 	cmppl	r5, #0
    3980:	e6000000 	str	r0, [r0], -r0
    3984:	19000010 	stmdbne	r0, {r4}
    3988:	00000879 	andeq	r0, r0, r9, ror r8
    398c:	00535601 	subseq	r5, r3, r1, lsl #12
    3990:	10fa0000 	rscsne	r0, sl, r0
    3994:	ae190000 	cdpge	0, 1, cr0, cr9, cr0, {0}
    3998:	01000001 	tsteq	r0, r1
    399c:	00005357 	andeq	r5, r0, r7, asr r3
    39a0:	00111900 	andseq	r1, r1, r0, lsl #18
    39a4:	0be91900 	bleq	ffa49dac <__bss_end+0xfa46a74>
    39a8:	58010000 	stmdapl	r1, {}	; <UNPREDICTABLE>
    39ac:	00000053 	andeq	r0, r0, r3, asr r0
    39b0:	0000112d 	andeq	r1, r0, sp, lsr #2
    39b4:	0011d419 	andseq	sp, r1, r9, lsl r4
    39b8:	85590100 	ldrbhi	r0, [r9, #-256]	; 0x100
    39bc:	4c000025 	stcmi	0, cr0, [r0], {37}	; 0x25
    39c0:	13000011 	movwne	r0, #17
    39c4:	00000e49 	andeq	r0, r0, r9, asr #28
    39c8:	01a85a01 			; <UNDEFINED> instruction: 0x01a85a01
    39cc:	a81e0000 	ldmdage	lr, {}	; <UNPREDICTABLE>
    39d0:	60000023 	andvs	r0, r0, r3, lsr #32
    39d4:	64f00010 	ldrbtvs	r0, [r0], #16
    39d8:	01f00010 	mvnseq	r0, r0, lsl r0
    39dc:	00256164 	eoreq	r6, r5, r4, ror #2
    39e0:	10601f00 	rsbne	r1, r0, r0, lsl #30
    39e4:	1064f000 	rsbne	pc, r4, r0
    39e8:	ba20f000 	blt	83f9f0 <__dram_freq_start+0x83f9f0>
    39ec:	5f000023 	svcpl	0x00000023
    39f0:	00000011 	andeq	r0, r0, r1, lsl r0
    39f4:	23a82100 			; <UNDEFINED> instruction: 0x23a82100
    39f8:	10640000 	rsbne	r0, r4, r0
    39fc:	1068f000 	rsbne	pc, r8, r0
    3a00:	6501f000 	strvs	pc, [r1, #-0]
    3a04:	0010641f 	andseq	r6, r0, pc, lsl r4
    3a08:	001068f0 			; <UNDEFINED> instruction: 0x001068f0
    3a0c:	23ba20f0 			; <UNDEFINED> instruction: 0x23ba20f0
    3a10:	11720000 	cmnne	r2, r0
    3a14:	00000000 	andeq	r0, r0, r0
    3a18:	8b042200 	blhi	10c220 <__dram_freq_start+0x10c220>
    3a1c:	07000025 	streq	r0, [r0, -r5, lsr #32]
    3a20:	0000239c 	muleq	r0, ip, r3
    3a24:	1567011d 	strbne	r0, [r7, #-285]!	; 0x11d
    3a28:	85010000 	strhi	r0, [r1, #-0]
    3a2c:	0010e001 	andseq	lr, r0, r1
    3a30:	001138f0 			; <UNDEFINED> instruction: 0x001138f0
    3a34:	001185f0 			; <UNDEFINED> instruction: 0x001185f0
    3a38:	00262f00 	eoreq	r2, r6, r0, lsl #30
    3a3c:	73752300 	cmnvc	r5, #0
    3a40:	53850100 	orrpl	r0, r5, #0
    3a44:	a5000000 	strge	r0, [r0, #-0]
    3a48:	19000011 	stmdbne	r0, {r0, r4}
    3a4c:	00000c9b 	muleq	r0, fp, ip
    3a50:	00538701 	subseq	r8, r3, r1, lsl #14
    3a54:	11c30000 	bicne	r0, r3, r0
    3a58:	63240000 	teqvs	r4, #0
    3a5c:	01007275 	tsteq	r0, r5, ror r2
    3a60:	00005388 	andeq	r5, r0, r8, lsl #7
    3a64:	0011e700 	andseq	lr, r1, r0, lsl #14
    3a68:	0b321900 	bleq	c89e70 <__dram_freq_start+0xc89e70>
    3a6c:	89010000 	stmdbhi	r1, {}	; <UNPREDICTABLE>
    3a70:	00000053 	andeq	r0, r0, r3, asr r0
    3a74:	00001211 	andeq	r1, r0, r1, lsl r2
    3a78:	0023a81e 	eoreq	sl, r3, lr, lsl r8
    3a7c:	00110000 	andseq	r0, r1, r0
    3a80:	001104f0 			; <UNDEFINED> instruction: 0x001104f0
    3a84:	0b9401f0 	bleq	fe50424c <__bss_end+0xe500f14>
    3a88:	1f000026 	svcne	0x00000026
    3a8c:	f0001100 			; <UNDEFINED> instruction: 0xf0001100
    3a90:	f0001104 			; <UNDEFINED> instruction: 0xf0001104
    3a94:	0023ba20 	eoreq	fp, r3, r0, lsr #20
    3a98:	00123f00 	andseq	r3, r2, r0, lsl #30
    3a9c:	21000000 	mrscs	r0, (UNDEF: 0)
    3aa0:	000023a8 	andeq	r2, r0, r8, lsr #7
    3aa4:	f0001120 			; <UNDEFINED> instruction: 0xf0001120
    3aa8:	f0001124 			; <UNDEFINED> instruction: 0xf0001124
    3aac:	201f9901 	andscs	r9, pc, r1, lsl #18
    3ab0:	24f00011 	ldrbtcs	r0, [r0], #17
    3ab4:	20f00011 	rscscs	r0, r0, r1, lsl r0
    3ab8:	000023ba 			; <UNDEFINED> instruction: 0x000023ba
    3abc:	00001252 	andeq	r1, r0, r2, asr r2
    3ac0:	16000000 	strne	r0, [r0], -r0
    3ac4:	000c1e01 	andeq	r1, ip, r1, lsl #28
    3ac8:	01bc0100 			; <UNDEFINED> instruction: 0x01bc0100
    3acc:	f0001138 			; <UNDEFINED> instruction: 0xf0001138
    3ad0:	f0001144 			; <UNDEFINED> instruction: 0xf0001144
    3ad4:	56007d02 	strpl	r7, [r0], -r2, lsl #26
    3ad8:	23000026 	movwcs	r0, #38	; 0x26
    3adc:	0100736d 	tsteq	r0, sp, ror #6
    3ae0:	000053bc 			; <UNDEFINED> instruction: 0x000053bc
    3ae4:	00126500 	andseq	r6, r2, r0, lsl #10
    3ae8:	01160000 	tsteq	r6, r0
    3aec:	00001554 	andeq	r1, r0, r4, asr r5
    3af0:	4401de01 	strmi	sp, [r1], #-3585	; 0xe01
    3af4:	70f00011 	rscsvc	r0, r0, r1, lsl r0
    3af8:	02f00011 	rscseq	r0, r0, #17
    3afc:	269a007d 			; <UNDEFINED> instruction: 0x269a007d
    3b00:	73170000 	tstvc	r7, #0
    3b04:	01000013 	tsteq	r0, r3, lsl r0
    3b08:	000053de 	ldrdeq	r5, [r0], -lr
    3b0c:	00127800 	andseq	r7, r2, r0, lsl #16
    3b10:	0c831800 	stceq	8, cr1, [r3], {0}
    3b14:	de010000 	cdple	0, 0, cr0, cr1, cr0, {0}
    3b18:	00000053 	andeq	r0, r0, r3, asr r0
    3b1c:	31195101 	tstcc	r9, r1, lsl #2
    3b20:	01000019 	tsteq	r0, r9, lsl r0
    3b24:	000053e1 	andeq	r5, r0, r1, ror #7
    3b28:	00128b00 	andseq	r8, r2, r0, lsl #22
    3b2c:	01160000 	tsteq	r6, r0
    3b30:	00000fcd 	andeq	r0, r0, sp, asr #31
    3b34:	7001fc01 	andvc	pc, r1, r1, lsl #24
    3b38:	9cf00011 	ldclls	0, cr0, [r0], #68	; 0x44
    3b3c:	02f00011 	rscseq	r0, r0, #17
    3b40:	26e7007d 	uxtabcs	r0, r7, sp
    3b44:	26180000 	ldrcs	r0, [r8], -r0
    3b48:	01000003 	tsteq	r0, r3
    3b4c:	000073fc 	strdeq	r7, [r0], -ip
    3b50:	19500100 	ldmdbne	r0, {r8}^
    3b54:	0000114a 	andeq	r1, r0, sl, asr #2
    3b58:	0053ff01 	subseq	pc, r3, r1, lsl #30
    3b5c:	12d40000 	sbcsne	r0, r4, #0
    3b60:	c6250000 	strtgt	r0, [r5], -r0
    3b64:	70000023 	andvc	r0, r0, r3, lsr #32
    3b68:	84f00011 	ldrbthi	r0, [r0], #17
    3b6c:	01f00011 	mvnseq	r0, r1, lsl r0
    3b70:	d7260100 	strle	r0, [r6, -r0, lsl #2]!
    3b74:	01000023 	tsteq	r0, r3, lsr #32
    3b78:	27000050 	smlsdcs	r0, r0, r0, r0
    3b7c:	00162c01 	andseq	r2, r6, r1, lsl #24
    3b80:	010f0100 	mrseq	r0, (UNDEF: 31)
    3b84:	00004c01 	andeq	r4, r0, r1, lsl #24
    3b88:	00119c00 	andseq	r9, r1, r0, lsl #24
    3b8c:	0011c8f0 			; <UNDEFINED> instruction: 0x0011c8f0
    3b90:	007d02f0 	ldrshteq	r0, [sp], #-32	; 0xffffffe0
    3b94:	0000274f 	andeq	r2, r0, pc, asr #14
    3b98:	00032628 	andeq	r2, r3, r8, lsr #12
    3b9c:	010f0100 	mrseq	r0, (UNDEF: 31)
    3ba0:	00000073 	andeq	r0, r0, r3, ror r0
    3ba4:	000012e8 	andeq	r1, r0, r8, ror #5
    3ba8:	00114a29 	andseq	r4, r1, r9, lsr #20
    3bac:	01110100 	tsteq	r1, r0, lsl #2
    3bb0:	0000004c 	andeq	r0, r0, ip, asr #32
    3bb4:	00001308 	andeq	r1, r0, r8, lsl #6
    3bb8:	0013a429 	andseq	sl, r3, r9, lsr #8
    3bbc:	01120100 	tsteq	r2, r0, lsl #2
    3bc0:	0000004c 	andeq	r0, r0, ip, asr #32
    3bc4:	00001327 	andeq	r1, r0, r7, lsr #6
    3bc8:	0023c625 	eoreq	ip, r3, r5, lsr #12
    3bcc:	00119c00 	andseq	r9, r1, r0, lsl #24
    3bd0:	0011b0f0 	ldrsheq	fp, [r1], -r0
    3bd4:	011301f0 			; <UNDEFINED> instruction: 0x011301f0
    3bd8:	0023d72a 	eoreq	sp, r3, sl, lsr #14
    3bdc:	00134600 	andseq	r4, r3, r0, lsl #12
    3be0:	2b000000 	blcs	3be8 <__dram_freq_start+0x3be8>
    3be4:	00000c5b 	andeq	r0, r0, fp, asr ip
    3be8:	00530401 	subseq	r0, r3, r1, lsl #8
    3bec:	03050000 	movweq	r0, #20480	; 0x5000
    3bf0:	f00031a0 			; <UNDEFINED> instruction: 0xf00031a0
    3bf4:	000e1a2b 	andeq	r1, lr, fp, lsr #20
    3bf8:	53050100 	movwpl	r0, #20736	; 0x5100
    3bfc:	05000000 	streq	r0, [r0, #-0]
    3c00:	00319c03 	eorseq	r9, r1, r3, lsl #24
    3c04:	0d7d2bf0 	vldmdbeq	sp!, {d18-<overflow reg d73>}
    3c08:	06010000 	streq	r0, [r1], -r0
    3c0c:	00000053 	andeq	r0, r0, r3, asr r0
    3c10:	31940305 	orrscc	r0, r4, r5, lsl #6
    3c14:	f82bf000 			; <UNDEFINED> instruction: 0xf82bf000
    3c18:	01000009 	tsteq	r0, r9
    3c1c:	00005307 	andeq	r5, r0, r7, lsl #6
    3c20:	98030500 	stmdals	r3, {r8, sl}
    3c24:	00f00031 	rscseq	r0, r0, r1, lsr r0
    3c28:	000000a1 	andeq	r0, r0, r1, lsr #1
    3c2c:	09820002 	stmibeq	r2, {r1}
    3c30:	01040000 	mrseq	r0, (UNDEF: 4)
    3c34:	0000085c 	andeq	r0, r0, ip, asr r8
    3c38:	f00011e0 			; <UNDEFINED> instruction: 0xf00011e0
    3c3c:	f0001634 			; <UNDEFINED> instruction: 0xf0001634
    3c40:	2e2e2f2e 	cdpcs	15, 2, cr2, cr14, cr14, {1}
    3c44:	6d656d2f 	stclvs	13, cr6, [r5, #-188]!	; 0xffffff44
    3c48:	756d6d5f 	strbvc	r6, [sp, #-3423]!	; 0xd5f
    3c4c:	5f63705f 	svcpl	0x0063705f
    3c50:	2e6d7361 	cdpcs	3, 6, cr7, cr13, cr1, {3}
    3c54:	642f0053 	strtvs	r0, [pc], #-83	; 3c5c <__dram_freq_start+0x3c5c>
    3c58:	326b7369 	rsbcc	r7, fp, #-1543503871	; 0xa4000001
    3c5c:	6c796b2f 	ldclvs	11, cr6, [r9], #-188	; 0xffffff44
    3c60:	e52f6e69 	str	r6, [pc, #-3689]!	; 2dff <__dram_freq_start+0x2dff>
    3c64:	8fe580bc 	svchi	0x00e580bc
    3c68:	bf9de691 	svclt	0x009de691
    3c6c:	e4b185e5 	ldrt	r8, [r1], #1509	; 0x5e5
    3c70:	9be7abba 	blls	ff9eeb60 <__bss_end+0xf9eb828>
    3c74:	95bde5ae 	ldrls	lr, [sp, #1454]!	; 0x5ae
    3c78:	829ce82f 	addshi	lr, ip, #3080192	; 0x2f0000
    3c7c:	2f9fb8e9 	svccs	0x009fb8e9
    3c80:	302e3376 	eorcc	r3, lr, r6, ror r3
    3c84:	2f33562f 	svccs	0x0033562f
    3c88:	7272654d 	rsbsvc	r6, r2, #322961408	; 0x13400000
    3c8c:	694c6969 	stmdbvs	ip, {r0, r3, r5, r6, r8, fp, sp, lr}^
    3c90:	2f78756e 	svccs	0x0078756e
    3c94:	756e696c 	strbvc	r6, [lr, #-2412]!	; 0x96c
    3c98:	2e332d78 	mrccs	13, 1, r2, cr3, cr8, {3}
    3c9c:	72612f34 	rsbvc	r2, r1, #208	; 0xd0
    3ca0:	612f6863 	teqvs	pc, r3, ror #16
    3ca4:	6d2f6d72 	stcvs	13, cr6, [pc, #-456]!	; 3ae4 <__dram_freq_start+0x3ae4>
    3ca8:	2d686361 	stclcs	3, cr6, [r8, #-388]!	; 0xfffffe7c
    3cac:	376e7573 			; <UNDEFINED> instruction: 0x376e7573
    3cb0:	6d702f69 	ldclvs	15, cr2, [r0, #-420]!	; 0xfffffe5c
    3cb4:	6172642f 	cmnvs	r2, pc, lsr #8
    3cb8:	72662d6d 	rsbvc	r2, r6, #6976	; 0x1b40
    3cbc:	47007165 	strmi	r7, [r0, -r5, ror #2]
    3cc0:	4120554e 	teqmi	r0, lr, asr #10
    3cc4:	2e322053 	mrccs	0, 1, r2, cr2, cr3, {2}
    3cc8:	01003232 	tsteq	r0, r2, lsr r2
    3ccc:	00072a80 	andeq	r2, r7, r0, lsl #21
    3cd0:	96000200 	strls	r0, [r0], -r0, lsl #4
    3cd4:	04000009 	streq	r0, [r0], #-9
    3cd8:	00013401 	andeq	r3, r1, r1, lsl #8
    3cdc:	17c60100 	strbne	r0, [r6, r0, lsl #2]
    3ce0:	00350000 	eorseq	r0, r5, r0
    3ce4:	16400000 	strbne	r0, [r0], -r0
    3ce8:	303cf000 	eorscc	pc, ip, r0
    3cec:	09baf000 	ldmibeq	sl!, {ip, sp, lr, pc}
    3cf0:	04020000 	streq	r0, [r2], #-0
    3cf4:	0001cc07 	andeq	ip, r1, r7, lsl #24
    3cf8:	06010200 	streq	r0, [r1], -r0, lsl #4
    3cfc:	000001b6 			; <UNDEFINED> instruction: 0x000001b6
    3d00:	0018e803 	andseq	lr, r8, r3, lsl #16
    3d04:	3e0f0200 	cdpcc	2, 0, cr0, cr15, cr0, {0}
    3d08:	02000000 	andeq	r0, r0, #0
    3d0c:	01b40801 			; <UNDEFINED> instruction: 0x01b40801
    3d10:	02020000 	andeq	r0, r2, #0
    3d14:	00001905 	andeq	r1, r0, r5, lsl #18
    3d18:	07020200 	streq	r0, [r2, -r0, lsl #4]
    3d1c:	0000021a 	andeq	r0, r0, sl, lsl r2
    3d20:	00038403 	andeq	r8, r3, r3, lsl #8
    3d24:	5e120200 	cdppl	2, 1, cr0, cr2, cr0, {0}
    3d28:	04000000 	streq	r0, [r0], #-0
    3d2c:	6e690504 	cdpvs	5, 6, cr0, cr9, cr4, {0}
    3d30:	bf030074 	svclt	0x00030074
    3d34:	02000000 	andeq	r0, r0, #0
    3d38:	00002513 	andeq	r2, r0, r3, lsl r5
    3d3c:	05080200 	streq	r0, [r8, #-512]	; 0x200
    3d40:	00000113 	andeq	r0, r0, r3, lsl r1
    3d44:	c2070802 	andgt	r0, r7, #131072	; 0x20000
    3d48:	05000001 	streq	r0, [r0, #-1]
    3d4c:	00000065 	andeq	r0, r0, r5, rrx
    3d50:	00020806 	andeq	r0, r2, r6, lsl #16
    3d54:	5c035000 	stcpl	0, cr5, [r3], {-0}
    3d58:	000001a8 	andeq	r0, r0, r8, lsr #3
    3d5c:	00027e07 	andeq	r7, r2, r7, lsl #28
    3d60:	255e0300 	ldrbcs	r0, [lr, #-768]	; 0x300
    3d64:	02000000 	andeq	r0, r0, #0
    3d68:	e9070023 	stmdb	r7, {r0, r1, r5}
    3d6c:	03000002 	movweq	r0, #2
    3d70:	0000255f 	andeq	r2, r0, pc, asr r5
    3d74:	04230200 	strteq	r0, [r3], #-512	; 0x200
    3d78:	00032107 	andeq	r2, r3, r7, lsl #2
    3d7c:	25600300 	strbcs	r0, [r0, #-768]!	; 0x300
    3d80:	02000000 	andeq	r0, r0, #0
    3d84:	68070823 	stmdavs	r7, {r0, r1, r5, fp}
    3d88:	03000002 	movweq	r0, #2
    3d8c:	00002561 	andeq	r2, r0, r1, ror #10
    3d90:	0c230200 	sfmeq	f0, 4, [r3], #-0
    3d94:	0001e507 	andeq	lr, r1, r7, lsl #10
    3d98:	25620300 	strbcs	r0, [r2, #-768]!	; 0x300
    3d9c:	02000000 	andeq	r0, r0, #0
    3da0:	13071023 	movwne	r1, #28707	; 0x7023
    3da4:	03000003 	movweq	r0, #3
    3da8:	00002563 	andeq	r2, r0, r3, ror #10
    3dac:	14230200 	strtne	r0, [r3], #-512	; 0x200
    3db0:	0002f207 	andeq	pc, r2, r7, lsl #4
    3db4:	25640300 	strbcs	r0, [r4, #-768]!	; 0x300
    3db8:	02000000 	andeq	r0, r0, #0
    3dbc:	2b071823 	blcs	1c9e50 <__dram_freq_start+0x1c9e50>
    3dc0:	03000003 	movweq	r0, #3
    3dc4:	00002565 	andeq	r2, r0, r5, ror #10
    3dc8:	1c230200 	sfmne	f0, 4, [r3], #-0
    3dcc:	0002a707 	andeq	sl, r2, r7, lsl #14
    3dd0:	25660300 	strbcs	r0, [r6, #-768]!	; 0x300
    3dd4:	02000000 	andeq	r0, r0, #0
    3dd8:	d9072023 	stmdble	r7, {r0, r1, r5, sp}
    3ddc:	03000001 	movweq	r0, #1
    3de0:	00002567 	andeq	r2, r0, r7, ror #10
    3de4:	24230200 	strtcs	r0, [r3], #-512	; 0x200
    3de8:	00176607 	andseq	r6, r7, r7, lsl #12
    3dec:	25680300 	strbcs	r0, [r8, #-768]!	; 0x300
    3df0:	02000000 	andeq	r0, r0, #0
    3df4:	d7072823 	strle	r2, [r7, -r3, lsr #16]
    3df8:	03000000 	movweq	r0, #0
    3dfc:	00002569 	andeq	r2, r0, r9, ror #10
    3e00:	2c230200 	sfmcs	f0, 4, [r3], #-0
    3e04:	0000e107 	andeq	lr, r0, r7, lsl #2
    3e08:	256a0300 	strbcs	r0, [sl, #-768]!	; 0x300
    3e0c:	02000000 	andeq	r0, r0, #0
    3e10:	eb073023 	bl	1cfea4 <__dram_freq_start+0x1cfea4>
    3e14:	03000000 	movweq	r0, #0
    3e18:	0000256b 	andeq	r2, r0, fp, ror #10
    3e1c:	34230200 	strtcc	r0, [r3], #-512	; 0x200
    3e20:	0000f507 	andeq	pc, r0, r7, lsl #10
    3e24:	256c0300 	strbcs	r0, [ip, #-768]!	; 0x300
    3e28:	02000000 	andeq	r0, r0, #0
    3e2c:	ff073823 			; <UNDEFINED> instruction: 0xff073823
    3e30:	03000000 	movweq	r0, #0
    3e34:	0000256d 	andeq	r2, r0, sp, ror #10
    3e38:	3c230200 	sfmcc	f0, 4, [r3], #-0
    3e3c:	00010907 	andeq	r0, r1, r7, lsl #18
    3e40:	256e0300 	strbcs	r0, [lr, #-768]!	; 0x300
    3e44:	02000000 	andeq	r0, r0, #0
    3e48:	2a074023 	bcs	1d3edc <__dram_freq_start+0x1d3edc>
    3e4c:	03000001 	movweq	r0, #1
    3e50:	0000256f 	andeq	r2, r0, pc, ror #10
    3e54:	44230200 	strtmi	r0, [r3], #-512	; 0x200
    3e58:	0002af07 	andeq	sl, r2, r7, lsl #30
    3e5c:	25700300 	ldrbcs	r0, [r0, #-768]!	; 0x300
    3e60:	02000000 	andeq	r0, r0, #0
    3e64:	b9074823 	stmdblt	r7, {r0, r1, r5, fp, lr}
    3e68:	03000002 	movweq	r0, #2
    3e6c:	00002571 	andeq	r2, r0, r1, ror r5
    3e70:	4c230200 	sfmmi	f0, 4, [r3], #-0
    3e74:	01610300 	cmneq	r1, r0, lsl #6
    3e78:	72030000 	andvc	r0, r3, #0
    3e7c:	00000083 	andeq	r0, r0, r3, lsl #1
    3e80:	00177f03 	andseq	r7, r7, r3, lsl #30
    3e84:	a86b0400 	stmdage	fp!, {sl}^
    3e88:	02000001 	andeq	r0, r0, #1
    3e8c:	01bd0801 			; <UNDEFINED> instruction: 0x01bd0801
    3e90:	01080000 	mrseq	r0, (UNDEF: 8)
    3e94:	000018ed 	andeq	r1, r0, sp, ror #17
    3e98:	40016301 	andmi	r6, r1, r1, lsl #6
    3e9c:	b4f00016 	ldrbtlt	r0, [r0], #22
    3ea0:	66f00016 	usatvs	r0, #16, r6
    3ea4:	fc000013 	stc2	0, cr0, [r0], {19}
    3ea8:	09000001 	stmdbeq	r0, {r0}
    3eac:	00000be9 	andeq	r0, r0, r9, ror #23
    3eb0:	00656501 	rsbeq	r6, r5, r1, lsl #10
    3eb4:	91020000 	mrsls	r0, (UNDEF: 2)
    3eb8:	e4010a74 	str	r0, [r1], #-2676	; 0xa74
    3ebc:	01000017 	tsteq	r0, r7, lsl r0
    3ec0:	00005e6a 	andeq	r5, r0, sl, ror #28
    3ec4:	000b0100 	andeq	r0, fp, r0, lsl #2
    3ec8:	d9010800 	stmdble	r1, {fp}
    3ecc:	01000018 	tsteq	r0, r8, lsl r0
    3ed0:	16b40170 			; <UNDEFINED> instruction: 0x16b40170
    3ed4:	1720f000 	strne	pc, [r0, -r0]!
    3ed8:	1392f000 	orrsne	pc, r2, #0
    3edc:	02240000 	eoreq	r0, r4, #0
    3ee0:	e9090000 	stmdb	r9, {}	; <UNPREDICTABLE>
    3ee4:	0100000b 	tsteq	r0, fp
    3ee8:	00006572 	andeq	r6, r0, r2, ror r5
    3eec:	74910200 	ldrvc	r0, [r1], #512	; 0x200
    3ef0:	c0010800 	andgt	r0, r1, r0, lsl #16
    3ef4:	01000018 	tsteq	r0, r8, lsl r0
    3ef8:	1720017d 			; <UNDEFINED> instruction: 0x1720017d
    3efc:	1778f000 	ldrbne	pc, [r8, -r0]!	; <UNPREDICTABLE>
    3f00:	13bef000 			; <UNDEFINED> instruction: 0x13bef000
    3f04:	024c0000 	subeq	r0, ip, #0
    3f08:	e9090000 	stmdb	r9, {}	; <UNPREDICTABLE>
    3f0c:	0100000b 	tsteq	r0, fp
    3f10:	0000657f 	andeq	r6, r0, pc, ror r5
    3f14:	74910200 	ldrvc	r0, [r1], #512	; 0x200
    3f18:	15010800 	strne	r0, [r1, #-2048]	; 0x800
    3f1c:	01000019 	tsteq	r0, r9, lsl r0
    3f20:	17780187 	ldrbne	r0, [r8, -r7, lsl #3]!
    3f24:	17c4f000 	strbne	pc, [r4, r0]	; <UNPREDICTABLE>
    3f28:	13eaf000 	mvnne	pc, #0
    3f2c:	02740000 	rsbseq	r0, r4, #0
    3f30:	e9090000 	stmdb	r9, {}	; <UNPREDICTABLE>
    3f34:	0100000b 	tsteq	r0, fp
    3f38:	00006589 	andeq	r6, r0, r9, lsl #11
    3f3c:	74910200 	ldrvc	r0, [r1], #512	; 0x200
    3f40:	7d010800 	stcvc	8, cr0, [r1, #-0]
    3f44:	01000018 	tsteq	r0, r8, lsl r0
    3f48:	17c40190 	bfine	r0, r0, #3, #2
    3f4c:	1880f000 	stmne	r0, {ip, sp, lr, pc}
    3f50:	1416f000 	ldrne	pc, [r6], #-0
    3f54:	029c0000 	addseq	r0, ip, #0
    3f58:	190c0000 	stmdbne	ip, {}	; <UNPREDICTABLE>
    3f5c:	01000018 	tsteq	r0, r8, lsl r0
    3f60:	00006590 	muleq	r0, r0, r5
    3f64:	74910200 	ldrvc	r0, [r1], #512	; 0x200
    3f68:	41010800 	tstmi	r1, r0, lsl #16
    3f6c:	01000017 	tsteq	r0, r7, lsl r0
    3f70:	188001a2 	stmne	r0, {r1, r5, r7, r8}
    3f74:	1a84f000 	bne	fe13ff7c <__bss_end+0xe13cc44>
    3f78:	1442f000 	strbne	pc, [r2], #-0	; <UNPREDICTABLE>
    3f7c:	02fa0000 	rscseq	r0, sl, #0
    3f80:	190c0000 	stmdbne	ip, {}	; <UNPREDICTABLE>
    3f84:	01000018 	tsteq	r0, r8, lsl r0
    3f88:	000065a2 	andeq	r6, r0, r2, lsr #11
    3f8c:	64910200 	ldrvs	r0, [r1], #512	; 0x200
    3f90:	0100690d 	tsteq	r0, sp, lsl #18
    3f94:	000065a4 	andeq	r6, r0, r4, lsr #11
    3f98:	74910200 	ldrvc	r0, [r1], #512	; 0x200
    3f9c:	000be909 	andeq	lr, fp, r9, lsl #18
    3fa0:	65a50100 	strvs	r0, [r5, #256]!	; 0x100
    3fa4:	02000000 	andeq	r0, r0, #0
    3fa8:	52096891 	andpl	r6, r9, #9502720	; 0x910000
    3fac:	01000019 	tsteq	r0, r9, lsl r0
    3fb0:	000065a6 	andeq	r6, r0, r6, lsr #11
    3fb4:	70910200 	addsvc	r0, r1, r0, lsl #4
    3fb8:	00181509 	andseq	r1, r8, r9, lsl #10
    3fbc:	65a70100 	strvs	r0, [r7, #256]!	; 0x100
    3fc0:	02000000 	andeq	r0, r0, #0
    3fc4:	08006c91 	stmdaeq	r0, {r0, r4, r7, sl, fp, sp, lr}
    3fc8:	00183501 	andseq	r3, r8, r1, lsl #10
    3fcc:	01cb0100 	biceq	r0, fp, r0, lsl #2
    3fd0:	f0001a84 			; <UNDEFINED> instruction: 0xf0001a84
    3fd4:	f0001bb4 			; <UNDEFINED> instruction: 0xf0001bb4
    3fd8:	0000146e 	andeq	r1, r0, lr, ror #8
    3fdc:	00000322 	andeq	r0, r0, r2, lsr #6
    3fe0:	000be909 	andeq	lr, fp, r9, lsl #18
    3fe4:	65cd0100 	strbvs	r0, [sp, #256]	; 0x100
    3fe8:	02000000 	andeq	r0, r0, #0
    3fec:	08007491 	stmdaeq	r0, {r0, r4, r7, sl, ip, sp, lr}
    3ff0:	00172001 	andseq	r2, r7, r1
    3ff4:	01f30100 	mvnseq	r0, r0, lsl #2
    3ff8:	f0001bb4 			; <UNDEFINED> instruction: 0xf0001bb4
    3ffc:	f0001ca4 			; <UNDEFINED> instruction: 0xf0001ca4
    4000:	0000149a 	muleq	r0, sl, r4
    4004:	00000348 	andeq	r0, r0, r8, asr #6
    4008:	0100690d 	tsteq	r0, sp, lsl #18
    400c:	000065f5 	strdeq	r6, [r0], -r5
    4010:	74910200 	ldrvc	r0, [r1], #512	; 0x200
    4014:	03010e00 	movweq	r0, #7680	; 0x1e00
    4018:	01000017 	tsteq	r0, r7, lsl r0
    401c:	a4010106 	strge	r0, [r1], #-262	; 0x106
    4020:	c0f0001c 	rscsgt	r0, r0, ip, lsl r0
    4024:	c6f0001e 	usatgt	r0, #16, lr
    4028:	90000014 	andls	r0, r0, r4, lsl r0
    402c:	0f000003 	svceq	0x00000003
    4030:	006b6c63 	rsbeq	r6, fp, r3, ror #24
    4034:	65010601 	strvs	r0, [r1, #-1537]	; 0x601
    4038:	02000000 	andeq	r0, r0, #0
    403c:	1f106c91 	svcne	0x00106c91
    4040:	01000018 	tsteq	r0, r8, lsl r0
    4044:	00650106 	rsbeq	r0, r5, r6, lsl #2
    4048:	91020000 	mrsls	r0, (UNDEF: 2)
    404c:	0be91168 	bleq	ffa485f4 <__bss_end+0xfa452bc>
    4050:	08010000 	stmdaeq	r1, {}	; <UNPREDICTABLE>
    4054:	00006501 	andeq	r6, r0, r1, lsl #10
    4058:	74910200 	ldrvc	r0, [r1], #512	; 0x200
    405c:	2a011200 	bcs	48864 <__dram_freq_start+0x48864>
    4060:	01000018 	tsteq	r0, r8, lsl r0
    4064:	53010146 	movwpl	r0, #4422	; 0x1146
    4068:	c0000000 	andgt	r0, r0, r0
    406c:	78f0001e 	ldmvc	r0!, {r1, r2, r3, r4}^
    4070:	f2f00026 	vext.8	d16, d0, d22, #0
    4074:	06000014 			; <UNDEFINED> instruction: 0x06000014
    4078:	10000004 	andne	r0, r0, r4
    407c:	000017ae 	andeq	r1, r0, lr, lsr #15
    4080:	06014601 	streq	r4, [r1], -r1, lsl #12
    4084:	02000004 	andeq	r0, r0, #4
    4088:	e9116491 	ldmdb	r1, {r0, r4, r7, sl, sp, lr}
    408c:	0100000b 	tsteq	r0, fp
    4090:	00650148 	rsbeq	r0, r5, r8, asr #2
    4094:	91020000 	mrsls	r0, (UNDEF: 2)
    4098:	17521174 			; <UNDEFINED> instruction: 0x17521174
    409c:	49010000 	stmdbmi	r1, {}	; <UNPREDICTABLE>
    40a0:	00006501 	andeq	r6, r0, r1, lsl #10
    40a4:	70910200 	addsvc	r0, r1, r0, lsl #4
    40a8:	00192d13 	andseq	r2, r9, r3, lsl sp
    40ac:	014a0100 	mrseq	r0, (UNDEF: 90)
    40b0:	00000033 	andeq	r0, r0, r3, lsr r0
    40b4:	00192511 	andseq	r2, r9, r1, lsl r5
    40b8:	014b0100 	mrseq	r0, (UNDEF: 91)
    40bc:	00000053 	andeq	r0, r0, r3, asr r0
    40c0:	0a6c9102 	beq	1b284d0 <__dram_freq_start+0x1b284d0>
    40c4:	0017e401 	andseq	lr, r7, r1, lsl #8
    40c8:	5e6a0100 	powple	f0, f2, f0
    40cc:	01000000 	mrseq	r0, (UNDEF: 0)
    40d0:	1400000b 	strne	r0, [r0], #-11
    40d4:	0001b304 	andeq	fp, r1, r4, lsl #6
    40d8:	69011200 	stmdbvs	r1, {r9, ip}
    40dc:	01000018 	tsteq	r0, r8, lsl r0
    40e0:	5301024f 	movwpl	r0, #4687	; 0x124f
    40e4:	78000000 	stmdavc	r0, {}	; <UNPREDICTABLE>
    40e8:	34f00026 	ldrbtcc	r0, [r0], #38	; 0x26
    40ec:	1ef00027 	cdpne	0, 15, cr0, cr0, cr7, {1}
    40f0:	3a000015 	bcc	414c <__dram_freq_start+0x414c>
    40f4:	11000004 	tstne	r0, r4
    40f8:	00000be9 	andeq	r0, r0, r9, ror #23
    40fc:	65025101 	strvs	r5, [r2, #-257]	; 0x101
    4100:	02000000 	andeq	r0, r0, #0
    4104:	0e007491 	mcreq	4, 0, r7, cr0, cr1, {4}
    4108:	00188e01 	andseq	r8, r8, r1, lsl #28
    410c:	02860100 	addeq	r0, r6, #0
    4110:	00273401 	eoreq	r3, r7, r1, lsl #8
    4114:	002798f0 	strdeq	r9, [r7], -r0	; <UNPREDICTABLE>
    4118:	00154af0 			; <UNDEFINED> instruction: 0x00154af0
    411c:	00047200 	andeq	r7, r4, r0, lsl #4
    4120:	6e6f0f00 	cdpvs	15, 6, cr0, cr15, cr0, {0}
    4124:	02860100 	addeq	r0, r6, #0
    4128:	00000065 	andeq	r0, r0, r5, rrx
    412c:	116c9102 	cmnne	ip, r2, lsl #2
    4130:	00000be9 	andeq	r0, r0, r9, ror #23
    4134:	65028801 	strvs	r8, [r2, #-2049]	; 0x801
    4138:	02000000 	andeq	r0, r0, #0
    413c:	0e007491 	mcreq	4, 0, r7, cr0, cr1, {4}
    4140:	0018a401 	andseq	sl, r8, r1, lsl #8
    4144:	029e0100 	addseq	r0, lr, #0
    4148:	00279801 	eoreq	r9, r7, r1, lsl #16
    414c:	002818f0 	strdeq	r1, [r8], -r0	; <UNPREDICTABLE>
    4150:	001576f0 			; <UNDEFINED> instruction: 0x001576f0
    4154:	0004ba00 	andeq	fp, r4, r0, lsl #20
    4158:	6c630f00 	stclvs	15, cr0, [r3], #-0
    415c:	9e01006b 	cdpls	0, 0, cr0, cr1, cr11, {3}
    4160:	00006502 	andeq	r6, r0, r2, lsl #10
    4164:	6c910200 	lfmvs	f0, 4, [r1], {0}
    4168:	000be911 	andeq	lr, fp, r1, lsl r9
    416c:	02a00100 	adceq	r0, r0, #0
    4170:	00000065 	andeq	r0, r0, r5, rrx
    4174:	11749102 	cmnne	r4, r2, lsl #2
    4178:	000018d1 	ldrdeq	r1, [r0], -r1	; <UNPREDICTABLE>
    417c:	6502a201 	strvs	sl, [r2, #-513]	; 0x201
    4180:	02000000 	andeq	r0, r0, #0
    4184:	12007091 	andne	r7, r0, #145	; 0x91
    4188:	00175c01 	andseq	r5, r7, r1, lsl #24
    418c:	02ca0100 	sbceq	r0, sl, #0
    4190:	00006501 	andeq	r6, r0, r1, lsl #10
    4194:	00281800 	eoreq	r1, r8, r0, lsl #16
    4198:	002938f0 	strdeq	r3, [r9], -r0	; <UNPREDICTABLE>
    419c:	0015a2f0 			; <UNDEFINED> instruction: 0x0015a2f0
    41a0:	00050600 	andeq	r0, r5, r0, lsl #12
    41a4:	0be91100 	bleq	ffa485ac <__bss_end+0xfa45274>
    41a8:	cc010000 	stcgt	0, cr0, [r1], {-0}
    41ac:	00006502 	andeq	r6, r0, r2, lsl #10
    41b0:	70910200 	addsvc	r0, r1, r0, lsl #4
    41b4:	00176611 	andseq	r6, r7, r1, lsl r6
    41b8:	02cd0100 	sbceq	r0, sp, #0
    41bc:	00000065 	andeq	r0, r0, r5, rrx
    41c0:	11749102 	cmnne	r4, r2, lsl #2
    41c4:	00001738 	andeq	r1, r0, r8, lsr r7
    41c8:	6502ce01 	strvs	ip, [r2, #-3585]	; 0xe01
    41cc:	02000000 	andeq	r0, r0, #0
    41d0:	15006c91 	strne	r6, [r0, #-3217]	; 0xc91
    41d4:	00185f01 	andseq	r5, r8, r1, lsl #30
    41d8:	02ea0100 	rsceq	r0, sl, #0
    41dc:	00005301 	andeq	r5, r0, r1, lsl #6
    41e0:	00293800 	eoreq	r3, r9, r0, lsl #16
    41e4:	002954f0 	strdeq	r5, [r9], -r0	; <UNPREDICTABLE>
    41e8:	0015cef0 			; <UNDEFINED> instruction: 0x0015cef0
    41ec:	42010e00 	andmi	r0, r1, #0
    41f0:	01000019 	tsteq	r0, r9, lsl r0
    41f4:	540102f1 	strpl	r0, [r1], #-753	; 0x2f1
    41f8:	70f00029 	rscsvc	r0, r0, r9, lsr #32
    41fc:	faf00029 	blx	ffc042a8 <__bss_end+0xfc00f70>
    4200:	4a000015 	bmi	425c <__dram_freq_start+0x425c>
    4204:	0f000005 	svceq	0x00000005
    4208:	006c6176 	rsbeq	r6, ip, r6, ror r1
    420c:	7e02f101 	mvfvcs	f7, f1
    4210:	02000000 	andeq	r0, r0, #0
    4214:	0e007491 	mcreq	4, 0, r7, cr0, cr1, {4}
    4218:	0018fd01 	andseq	pc, r8, r1, lsl #26
    421c:	03000100 	movweq	r0, #256	; 0x100
    4220:	00297001 	eoreq	r7, r9, r1
    4224:	002a08f0 	strdeq	r0, [sl], -r0	; <UNPREDICTABLE>
    4228:	001626f0 			; <UNDEFINED> instruction: 0x001626f0
    422c:	00057400 	andeq	r7, r5, r0, lsl #8
    4230:	0be91100 	bleq	ffa48638 <__bss_end+0xfa45300>
    4234:	02010000 	andeq	r0, r1, #0
    4238:	00006503 	andeq	r6, r0, r3, lsl #10
    423c:	74910200 	ldrvc	r0, [r1], #512	; 0x200
    4240:	50010e00 	andpl	r0, r1, r0, lsl #28
    4244:	01000018 	tsteq	r0, r8, lsl r0
    4248:	08010314 	stmdaeq	r1, {r2, r4, r8, r9}
    424c:	58f0002a 	ldmpl	r0!, {r1, r3, r5}^
    4250:	52f0002b 	rscspl	r0, r0, #43	; 0x2b
    4254:	ad000016 	stcge	0, cr0, [r0, #-88]	; 0xffffffa8
    4258:	0f000005 	svceq	0x00000005
    425c:	006b6c63 	rsbeq	r6, fp, r3, ror #24
    4260:	65031401 	strvs	r1, [r3, #-1025]	; 0x401
    4264:	02000000 	andeq	r0, r0, #0
    4268:	e9116c91 	ldmdb	r1, {r0, r4, r7, sl, fp, sp, lr}
    426c:	0100000b 	tsteq	r0, fp
    4270:	00650316 	rsbeq	r0, r5, r6, lsl r3
    4274:	91020000 	mrsls	r0, (UNDEF: 2)
    4278:	01120074 	tsteq	r2, r4, ror r0
    427c:	00000174 	andeq	r0, r0, r4, ror r1
    4280:	01033801 	tsteq	r3, r1, lsl #16
    4284:	00000053 	andeq	r0, r0, r3, asr r0
    4288:	f0002b58 			; <UNDEFINED> instruction: 0xf0002b58
    428c:	f0002f34 			; <UNDEFINED> instruction: 0xf0002f34
    4290:	0000167e 	andeq	r1, r0, lr, ror r6
    4294:	00000603 	andeq	r0, r0, r3, lsl #12
    4298:	00171910 	andseq	r1, r7, r0, lsl r9
    429c:	03380100 	teqeq	r8, #0
    42a0:	0000003e 	andeq	r0, r0, lr, lsr r0
    42a4:	106f9102 	rsbne	r9, pc, r2, lsl #2
    42a8:	0000019e 	muleq	r0, lr, r1
    42ac:	06033801 	streq	r3, [r3], -r1, lsl #16
    42b0:	02000004 	andeq	r0, r0, #4
    42b4:	e9116891 	ldmdb	r1, {r0, r4, r7, fp, sp, lr}
    42b8:	0100000b 	tsteq	r0, fp
    42bc:	0065033a 	rsbeq	r0, r5, sl, lsr r3
    42c0:	91020000 	mrsls	r0, (UNDEF: 2)
    42c4:	00691674 	rsbeq	r1, r9, r4, ror r6
    42c8:	65033d01 	strvs	r3, [r3, #-3329]	; 0xd01
    42cc:	00000000 	andeq	r0, r0, r0
    42d0:	18460112 	stmdane	r6, {r1, r4, r8}^
    42d4:	f4010000 	vst4.8	{d0-d3}, [r1], r0
    42d8:	00530103 	subseq	r0, r3, r3, lsl #2
    42dc:	2f340000 	svccs	0x00340000
    42e0:	2f98f000 	svccs	0x0098f000
    42e4:	16aaf000 	strtne	pc, [sl], r0
    42e8:	064d0000 	strbeq	r0, [sp], -r0
    42ec:	a8100000 	ldmdage	r0, {}	; <UNPREDICTABLE>
    42f0:	01000017 	tsteq	r0, r7, lsl r0
    42f4:	064d03f4 			; <UNDEFINED> instruction: 0x064d03f4
    42f8:	91020000 	mrsls	r0, (UNDEF: 2)
    42fc:	0069176c 	rsbeq	r1, r9, ip, ror #14
    4300:	6503f601 	strvs	pc, [r3, #-1537]	; 0x601
    4304:	02000000 	andeq	r0, r0, #0
    4308:	25117491 	ldrcs	r7, [r1, #-1169]	; 0x491
    430c:	01000019 	tsteq	r0, r9, lsl r0
    4310:	005303f7 	ldrsheq	r0, [r3], #-55	; 0xffffffc9
    4314:	91020000 	mrsls	r0, (UNDEF: 2)
    4318:	04140070 	ldreq	r0, [r4], #-112	; 0x70
    431c:	000001a8 	andeq	r0, r0, r8, lsr #3
    4320:	17fd0115 			; <UNDEFINED> instruction: 0x17fd0115
    4324:	0a010000 	beq	4432c <__dram_freq_start+0x4432c>
    4328:	00530104 	subseq	r0, r3, r4, lsl #2
    432c:	2f980000 	svccs	0x00980000
    4330:	2fb4f000 	svccs	0x00b4f000
    4334:	16d6f000 	ldrbne	pc, [r6], r0	; <UNPREDICTABLE>
    4338:	01150000 	tsteq	r5, r0
    433c:	00001807 	andeq	r1, r0, r7, lsl #16
    4340:	01040f01 	tsteq	r4, r1, lsl #30
    4344:	00000053 	andeq	r0, r0, r3, asr r0
    4348:	f0002fb4 			; <UNDEFINED> instruction: 0xf0002fb4
    434c:	f0002fcc 			; <UNDEFINED> instruction: 0xf0002fcc
    4350:	00001702 	andeq	r1, r0, r2, lsl #14
    4354:	1770010e 	ldrbne	r0, [r0, -lr, lsl #2]!
    4358:	14010000 	strne	r0, [r1], #-0
    435c:	2fcc0104 	svccs	0x00cc0104
    4360:	2ff4f000 	svccs	0x00f4f000
    4364:	172ef000 	strne	pc, [lr, -r0]!
    4368:	06b10000 	ldrteq	r0, [r1], r0
    436c:	630f0000 	movwvs	r0, #61440	; 0xf000
    4370:	01006b6c 	tsteq	r0, ip, ror #22
    4374:	005e0414 	subseq	r0, lr, r4, lsl r4
    4378:	91020000 	mrsls	r0, (UNDEF: 2)
    437c:	01180074 	tsteq	r8, r4, ror r0
    4380:	000017ee 	andeq	r1, r0, lr, ror #15
    4384:	01041901 	tsteq	r4, r1, lsl #18
    4388:	f0002ff4 			; <UNDEFINED> instruction: 0xf0002ff4
    438c:	f0003004 			; <UNDEFINED> instruction: 0xf0003004
    4390:	0000175a 	andeq	r1, r0, sl, asr r7
    4394:	178d010e 	strne	r0, [sp, lr, lsl #2]
    4398:	1e010000 	cdpne	0, 0, cr0, cr1, cr0, {0}
    439c:	30040104 	andcc	r0, r4, r4, lsl #2
    43a0:	3024f000 	eorcc	pc, r4, r0
    43a4:	1786f000 	strne	pc, [r6, r0]
    43a8:	06f10000 	ldrbteq	r0, [r1], r0
    43ac:	630f0000 	movwvs	r0, #61440	; 0xf000
    43b0:	01006b6c 	tsteq	r0, ip, ror #22
    43b4:	0065041e 	rsbeq	r0, r5, lr, lsl r4
    43b8:	91020000 	mrsls	r0, (UNDEF: 2)
    43bc:	01150074 	tsteq	r5, r4, ror r0
    43c0:	000017b3 			; <UNDEFINED> instruction: 0x000017b3
    43c4:	01042301 	tsteq	r4, r1, lsl #6
    43c8:	00000053 	andeq	r0, r0, r3, asr r0
    43cc:	f0003024 			; <UNDEFINED> instruction: 0xf0003024
    43d0:	f000303c 			; <UNDEFINED> instruction: 0xf000303c
    43d4:	000017b2 			; <UNDEFINED> instruction: 0x000017b2
    43d8:	00006519 	andeq	r6, r0, r9, lsl r5
    43dc:	00071b00 	andeq	r1, r7, r0, lsl #22
    43e0:	00251a00 	eoreq	r1, r5, r0, lsl #20
    43e4:	001f0000 	andseq	r0, pc, r0
    43e8:	0019371b 	andseq	r3, r9, fp, lsl r7
    43ec:	0be90100 	bleq	ffa447f4 <__bss_end+0xfa414bc>
    43f0:	01000007 	tsteq	r0, r7
    43f4:	30900305 	addscc	r0, r0, r5, lsl #6
    43f8:	Address 0x000043f8 is out of bounds.


Disassembly of section .debug_abbrev:

00000000 <.debug_abbrev>:
   0:	25011101 	strcs	r1, [r1, #-257]	; 0x101
   4:	030b130e 	movweq	r1, #45838	; 0xb30e
   8:	110e1b0e 	tstne	lr, lr, lsl #22
   c:	55015201 	strpl	r5, [r1, #-513]	; 0x201
  10:	00061006 	andeq	r1, r6, r6
  14:	00240200 	eoreq	r0, r4, r0, lsl #4
  18:	0b3e0b0b 	bleq	f82c4c <__dram_freq_start+0xf82c4c>
  1c:	00000e03 	andeq	r0, r0, r3, lsl #28
  20:	0b002403 	bleq	9034 <__dram_freq_start+0x9034>
  24:	030b3e0b 	movweq	r3, #48651	; 0xbe0b
  28:	04000008 	streq	r0, [r0], #-8
  2c:	0e030016 	mcreq	0, 0, r0, cr3, cr6, {0}
  30:	0b3b0b3a 	bleq	ec2d20 <__dram_freq_start+0xec2d20>
  34:	00001349 	andeq	r1, r0, r9, asr #6
  38:	03011305 	movweq	r1, #4869	; 0x1305
  3c:	3a0b0b0e 	bcc	2c2c7c <__dram_freq_start+0x2c2c7c>
  40:	010b3b0b 	tsteq	fp, fp, lsl #22
  44:	06000013 			; <UNDEFINED> instruction: 0x06000013
  48:	0e03000d 	cdpeq	0, 0, cr0, cr3, cr13, {0}
  4c:	0b3b0b3a 	bleq	ec2d3c <__dram_freq_start+0xec2d3c>
  50:	0a381349 	beq	e04d7c <__dram_freq_start+0xe04d7c>
  54:	0f070000 	svceq	0x00070000
  58:	000b0b00 	andeq	r0, fp, r0, lsl #22
  5c:	012e0800 	teqeq	lr, r0, lsl #16
  60:	0b3a0e03 	bleq	e83874 <__dram_freq_start+0xe83874>
  64:	0c270b3b 	stceq	11, cr0, [r7], #-236	; 0xffffff14
  68:	13010b20 	movwne	r0, #6944	; 0x1b20
  6c:	05090000 	streq	r0, [r9, #-0]
  70:	3a0e0300 	bcc	380c78 <__dram_freq_start+0x380c78>
  74:	490b3b0b 	stmdbmi	fp, {r0, r1, r3, r8, r9, fp, ip, sp}
  78:	0a000013 	beq	cc <__dram_freq_start+0xcc>
  7c:	08030005 	stmdaeq	r3, {r0, r2}
  80:	0b3b0b3a 	bleq	ec2d70 <__dram_freq_start+0xec2d70>
  84:	00001349 	andeq	r1, r0, r9, asr #6
  88:	0300340b 	movweq	r3, #1035	; 0x40b
  8c:	3b0b3a0e 	blcc	2ce8cc <__dram_freq_start+0x2ce8cc>
  90:	0013490b 	andseq	r4, r3, fp, lsl #18
  94:	000f0c00 	andeq	r0, pc, r0, lsl #24
  98:	13490b0b 	movtne	r0, #39691	; 0x9b0b
  9c:	2e0d0000 	cdpcs	0, 0, cr0, cr13, cr0, {0}
  a0:	030c3f01 	movweq	r3, #52993	; 0xcf01
  a4:	3b0b3a0e 	blcc	2ce8e4 <__dram_freq_start+0x2ce8e4>
  a8:	200c270b 	andcs	r2, ip, fp, lsl #14
  ac:	0013010b 	andseq	r0, r3, fp, lsl #2
  b0:	00340e00 	eorseq	r0, r4, r0, lsl #28
  b4:	0b3a0803 	bleq	e820c8 <__dram_freq_start+0xe820c8>
  b8:	13490b3b 	movtne	r0, #39739	; 0x9b3b
  bc:	2e0f0000 	cdpcs	0, 0, cr0, cr15, cr0, {0}
  c0:	030c3f01 	movweq	r3, #52993	; 0xcf01
  c4:	3b0b3a0e 	blcc	2ce904 <__dram_freq_start+0x2ce904>
  c8:	490c270b 	stmdbmi	ip, {r0, r1, r3, r8, r9, sl, sp}
  cc:	010b2013 	tsteq	fp, r3, lsl r0
  d0:	10000013 	andne	r0, r0, r3, lsl r0
  d4:	1331012e 	teqne	r1, #-2147483637	; 0x8000000b
  d8:	01120111 	tsteq	r2, r1, lsl r1
  dc:	13010a40 	movwne	r0, #6720	; 0x1a40
  e0:	05110000 	ldreq	r0, [r1, #-0]
  e4:	02133100 	andseq	r3, r3, #0
  e8:	12000006 	andne	r0, r0, #6
  ec:	13310005 	teqne	r1, #5
  f0:	00000a02 	andeq	r0, r0, r2, lsl #20
  f4:	31003413 	tstcc	r0, r3, lsl r4
  f8:	000a0213 	andeq	r0, sl, r3, lsl r2
  fc:	011d1400 	tsteq	sp, r0, lsl #8
 100:	01111331 	tsteq	r1, r1, lsr r3
 104:	0b580112 	bleq	1600554 <__dram_freq_start+0x1600554>
 108:	00000b59 	andeq	r0, r0, r9, asr fp
 10c:	31000515 	tstcc	r0, r5, lsl r5
 110:	16000013 			; <UNDEFINED> instruction: 0x16000013
 114:	0111010b 	tsteq	r1, fp, lsl #2
 118:	00000112 	andeq	r0, r0, r2, lsl r1
 11c:	31003417 	tstcc	r0, r7, lsl r4
 120:	00060213 	andeq	r0, r6, r3, lsl r2
 124:	012e1800 	teqeq	lr, r0, lsl #16
 128:	0e030c3f 	mcreq	12, 0, r0, cr3, cr15, {1}
 12c:	0b3b0b3a 	bleq	ec2e1c <__dram_freq_start+0xec2e1c>
 130:	01110c27 	tsteq	r1, r7, lsr #24
 134:	0a400112 	beq	1000584 <__dram_freq_start+0x1000584>
 138:	00001301 	andeq	r1, r0, r1, lsl #6
 13c:	03000519 	movweq	r0, #1305	; 0x519
 140:	3b0b3a0e 	blcc	2ce980 <__dram_freq_start+0x2ce980>
 144:	0213490b 	andseq	r4, r3, #180224	; 0x2c000
 148:	1a00000a 	bne	178 <__dram_freq_start+0x178>
 14c:	0e030034 	mcreq	0, 0, r0, cr3, cr4, {1}
 150:	0b3b0b3a 	bleq	ec2e40 <__dram_freq_start+0xec2e40>
 154:	0a021349 	beq	84e80 <__dram_freq_start+0x84e80>
 158:	341b0000 	ldrcc	r0, [fp], #-0
 15c:	1c133100 	ldfnes	f3, [r3], {-0}
 160:	1c00000d 	stcne	0, cr0, [r0], {13}
 164:	1331012e 	teqne	r1, #-2147483637	; 0x8000000b
 168:	01120111 	tsteq	r2, r1, lsl r1
 16c:	13010640 	movwne	r0, #5696	; 0x1640
 170:	341d0000 	ldrcc	r0, [sp], #-0
 174:	3a0e0300 	bcc	380d7c <__dram_freq_start+0x380d7c>
 178:	490b3b0b 	stmdbmi	fp, {r0, r1, r3, r8, r9, fp, ip, sp}
 17c:	000d1c13 	andeq	r1, sp, r3, lsl ip
 180:	00341e00 	eorseq	r1, r4, r0, lsl #28
 184:	0b3a0e03 	bleq	e83998 <__dram_freq_start+0xe83998>
 188:	13490b3b 	movtne	r0, #39739	; 0x9b3b
 18c:	00000602 	andeq	r0, r0, r2, lsl #12
 190:	3f012e1f 	svccc	0x00012e1f
 194:	3a0e030c 	bcc	380dcc <__dram_freq_start+0x380dcc>
 198:	270b3b0b 	strcs	r3, [fp, -fp, lsl #22]
 19c:	1113490c 	tstne	r3, ip, lsl #18
 1a0:	40011201 	andmi	r1, r1, r1, lsl #4
 1a4:	00130106 	andseq	r0, r3, r6, lsl #2
 1a8:	00052000 	andeq	r2, r5, r0
 1ac:	0b3a0e03 	bleq	e839c0 <__dram_freq_start+0xe839c0>
 1b0:	13490b3b 	movtne	r0, #39739	; 0x9b3b
 1b4:	00000602 	andeq	r0, r0, r2, lsl #12
 1b8:	3f012e21 	svccc	0x00012e21
 1bc:	3a0e030c 	bcc	380df4 <__dram_freq_start+0x380df4>
 1c0:	490b3b0b 	stmdbmi	fp, {r0, r1, r3, r8, r9, fp, ip, sp}
 1c4:	010c3c13 	tsteq	ip, r3, lsl ip
 1c8:	22000013 	andcs	r0, r0, #19
 1cc:	00000018 	andeq	r0, r0, r8, lsl r0
 1d0:	31011d23 	tstcc	r1, r3, lsr #26
 1d4:	55015213 	strpl	r5, [r1, #-531]	; 0x213
 1d8:	590b5806 	stmdbpl	fp, {r1, r2, fp, ip, lr}
 1dc:	0013010b 	andseq	r0, r3, fp, lsl #2
 1e0:	010b2400 	tsteq	fp, r0, lsl #8
 1e4:	00000655 	andeq	r0, r0, r5, asr r6
 1e8:	31011d25 	tstcc	r1, r5, lsr #26
 1ec:	55015213 	strpl	r5, [r1, #-531]	; 0x213
 1f0:	590b5806 	stmdbpl	fp, {r1, r2, fp, ip, lr}
 1f4:	2600000b 	strcs	r0, [r0], -fp
 1f8:	13490101 	movtne	r0, #37121	; 0x9101
 1fc:	00001301 	andeq	r1, r0, r1, lsl #6
 200:	49002127 	stmdbmi	r0, {r0, r1, r2, r5, r8, sp}
 204:	000b2f13 	andeq	r2, fp, r3, lsl pc
 208:	00342800 	eorseq	r2, r4, r0, lsl #16
 20c:	0b3a0e03 	bleq	e83a20 <__dram_freq_start+0xe83a20>
 210:	13490b3b 	movtne	r0, #39739	; 0x9b3b
 214:	0c3c0c3f 	ldceq	12, cr0, [ip], #-252	; 0xffffff04
 218:	34290000 	strtcc	r0, [r9], #-0
 21c:	3a0e0300 	bcc	380e24 <__dram_freq_start+0x380e24>
 220:	490b3b0b 	stmdbmi	fp, {r0, r1, r3, r8, r9, fp, ip, sp}
 224:	020c3f13 	andeq	r3, ip, #76	; 0x4c
 228:	0000000a 	andeq	r0, r0, sl
 22c:	25011101 	strcs	r1, [r1, #-257]	; 0x101
 230:	030b130e 	movweq	r1, #45838	; 0xb30e
 234:	110e1b0e 	tstne	lr, lr, lsl #22
 238:	10011201 	andne	r1, r1, r1, lsl #4
 23c:	02000006 	andeq	r0, r0, #6
 240:	0b0b0024 	bleq	2c02d8 <__dram_freq_start+0x2c02d8>
 244:	0e030b3e 	vmoveq.16	d3[0], r0
 248:	16030000 	strne	r0, [r3], -r0
 24c:	3a0e0300 	bcc	380e54 <__dram_freq_start+0x380e54>
 250:	490b3b0b 	stmdbmi	fp, {r0, r1, r3, r8, r9, fp, ip, sp}
 254:	04000013 	streq	r0, [r0], #-19
 258:	0b0b0024 	bleq	2c02f0 <__dram_freq_start+0x2c02f0>
 25c:	08030b3e 	stmdaeq	r3, {r1, r2, r3, r4, r5, r8, r9, fp}
 260:	2e050000 	cdpcs	0, 0, cr0, cr5, cr0, {0}
 264:	3a0e0301 	bcc	380e70 <__dram_freq_start+0x380e70>
 268:	270b3b0b 	strcs	r3, [fp, -fp, lsl #22]
 26c:	2013490c 	andscs	r4, r3, ip, lsl #18
 270:	0013010b 	andseq	r0, r3, fp, lsl #2
 274:	00340600 	eorseq	r0, r4, r0, lsl #12
 278:	0b3a0e03 	bleq	e83a8c <__dram_freq_start+0xe83a8c>
 27c:	13490b3b 	movtne	r0, #39739	; 0x9b3b
 280:	2e070000 	cdpcs	0, 0, cr0, cr7, cr0, {0}
 284:	3a0e0301 	bcc	380e90 <__dram_freq_start+0x380e90>
 288:	270b3b0b 	strcs	r3, [fp, -fp, lsl #22]
 28c:	010b200c 	tsteq	fp, ip
 290:	08000013 	stmdaeq	r0, {r0, r1, r4}
 294:	08030005 	stmdaeq	r3, {r0, r2}
 298:	0b3b0b3a 	bleq	ec2f88 <__dram_freq_start+0xec2f88>
 29c:	00001349 	andeq	r1, r0, r9, asr #6
 2a0:	3f002e09 	svccc	0x00002e09
 2a4:	3a0e030c 	bcc	380edc <__dram_freq_start+0x380edc>
 2a8:	270b3b0b 	strcs	r3, [fp, -fp, lsl #22]
 2ac:	1201110c 	andne	r1, r1, #3
 2b0:	000a4001 	andeq	r4, sl, r1
 2b4:	012e0a00 	teqeq	lr, r0, lsl #20
 2b8:	0e030c3f 	mcreq	12, 0, r0, cr3, cr15, {1}
 2bc:	0b3b0b3a 	bleq	ec2fac <__dram_freq_start+0xec2fac>
 2c0:	13490c27 	movtne	r0, #39975	; 0x9c27
 2c4:	01120111 	tsteq	r2, r1, lsl r1
 2c8:	13010a40 	movwne	r0, #6720	; 0x1a40
 2cc:	050b0000 	streq	r0, [fp, #-0]
 2d0:	3a0e0300 	bcc	380ed8 <__dram_freq_start+0x380ed8>
 2d4:	490b3b0b 	stmdbmi	fp, {r0, r1, r3, r8, r9, fp, ip, sp}
 2d8:	00060213 	andeq	r0, r6, r3, lsl r2
 2dc:	000f0c00 	andeq	r0, pc, r0, lsl #24
 2e0:	13490b0b 	movtne	r0, #39691	; 0x9b0b
 2e4:	260d0000 	strcs	r0, [sp], -r0
 2e8:	00134900 	andseq	r4, r3, r0, lsl #18
 2ec:	00050e00 	andeq	r0, r5, r0, lsl #28
 2f0:	0b3a0803 	bleq	e82304 <__dram_freq_start+0xe82304>
 2f4:	13490b3b 	movtne	r0, #39739	; 0x9b3b
 2f8:	00000602 	andeq	r0, r0, r2, lsl #12
 2fc:	0300050f 	movweq	r0, #1295	; 0x50f
 300:	3b0b3a08 	blcc	2ceb28 <__dram_freq_start+0x2ceb28>
 304:	0213490b 	andseq	r4, r3, #180224	; 0x2c000
 308:	1000000a 	andne	r0, r0, sl
 30c:	08030034 	stmdaeq	r3, {r2, r4, r5}
 310:	0b3b0b3a 	bleq	ec3000 <__dram_freq_start+0xec3000>
 314:	06021349 	streq	r1, [r2], -r9, asr #6
 318:	34110000 	ldrcc	r0, [r1], #-0
 31c:	3a080300 	bcc	200f24 <__dram_freq_start+0x200f24>
 320:	490b3b0b 	stmdbmi	fp, {r0, r1, r3, r8, r9, fp, ip, sp}
 324:	12000013 	andne	r0, r0, #19
 328:	1331011d 	teqne	r1, #1073741831	; 0x40000007
 32c:	06550152 			; <UNDEFINED> instruction: 0x06550152
 330:	0b590b58 	bleq	1643098 <__dram_freq_start+0x1643098>
 334:	0b130000 	bleq	4c033c <__dram_freq_start+0x4c033c>
 338:	00065501 	andeq	r5, r6, r1, lsl #10
 33c:	00341400 	eorseq	r1, r4, r0, lsl #8
 340:	00001331 	andeq	r1, r0, r1, lsr r3
 344:	3f012e15 	svccc	0x00012e15
 348:	3a0e030c 	bcc	380f80 <__dram_freq_start+0x380f80>
 34c:	270b3b0b 	strcs	r3, [fp, -fp, lsl #22]
 350:	1201110c 	andne	r1, r1, #3
 354:	010a4001 	tsteq	sl, r1
 358:	16000013 			; <UNDEFINED> instruction: 0x16000013
 35c:	0e030034 	mcreq	0, 0, r0, cr3, cr4, {1}
 360:	0b3b0b3a 	bleq	ec3050 <__dram_freq_start+0xec3050>
 364:	061c1349 	ldreq	r1, [ip], -r9, asr #6
 368:	34170000 	ldrcc	r0, [r7], #-0
 36c:	3a080300 	bcc	200f74 <__dram_freq_start+0x200f74>
 370:	490b3b0b 	stmdbmi	fp, {r0, r1, r3, r8, r9, fp, ip, sp}
 374:	000b1c13 	andeq	r1, fp, r3, lsl ip
 378:	00341800 	eorseq	r1, r4, r0, lsl #16
 37c:	0b3a0803 	bleq	e82390 <__dram_freq_start+0xe82390>
 380:	13490b3b 	movtne	r0, #39739	; 0x9b3b
 384:	00000d1c 	andeq	r0, r0, ip, lsl sp
 388:	03003419 	movweq	r3, #1049	; 0x419
 38c:	3b0b3a0e 	blcc	2cebcc <__dram_freq_start+0x2cebcc>
 390:	1c13490b 	ldcne	9, cr4, [r3], {11}
 394:	1a00000b 	bne	3c8 <__dram_freq_start+0x3c8>
 398:	13490035 	movtne	r0, #36917	; 0x9035
 39c:	2e1b0000 	cdpcs	0, 1, cr0, cr11, cr0, {0}
 3a0:	030c3f01 	movweq	r3, #52993	; 0xcf01
 3a4:	3b0b3a0e 	blcc	2cebe4 <__dram_freq_start+0x2cebe4>
 3a8:	490c270b 	stmdbmi	ip, {r0, r1, r3, r8, r9, sl, sp}
 3ac:	12011113 	andne	r1, r1, #-1073741820	; 0xc0000004
 3b0:	01064001 	tsteq	r6, r1
 3b4:	1c000013 	stcne	0, cr0, [r0], {19}
 3b8:	1331011d 	teqne	r1, #1073741831	; 0x40000007
 3bc:	06550152 			; <UNDEFINED> instruction: 0x06550152
 3c0:	0b590b58 	bleq	1643128 <__dram_freq_start+0x1643128>
 3c4:	00001301 	andeq	r1, r0, r1, lsl #6
 3c8:	3100051d 	tstcc	r0, sp, lsl r5
 3cc:	1e000013 	mcrne	0, 0, r0, cr0, cr3, {0}
 3d0:	1331011d 	teqne	r1, #1073741831	; 0x40000007
 3d4:	01120111 	tsteq	r2, r1, lsl r1
 3d8:	0b590b58 	bleq	1643140 <__dram_freq_start+0x1643140>
 3dc:	051f0000 	ldreq	r0, [pc, #-0]	; 3e4 <__dram_freq_start+0x3e4>
 3e0:	02133100 	andseq	r3, r3, #0
 3e4:	20000006 	andcs	r0, r0, r6
 3e8:	0c3f012e 	ldfeqs	f0, [pc], #-184	; 338 <__dram_freq_start+0x338>
 3ec:	0b3a0e03 	bleq	e83c00 <__dram_freq_start+0xe83c00>
 3f0:	0c270b3b 	stceq	11, cr0, [r7], #-236	; 0xffffff14
 3f4:	01111349 	tsteq	r1, r9, asr #6
 3f8:	0a400112 	beq	1000848 <__dram_freq_start+0x1000848>
 3fc:	01000000 	mrseq	r0, (UNDEF: 0)
 400:	0e250111 	mcreq	1, 1, r0, cr5, cr1, {0}
 404:	0e030b13 	vmoveq.32	d3[0], r0
 408:	01110e1b 	tsteq	r1, fp, lsl lr
 40c:	06100112 			; <UNDEFINED> instruction: 0x06100112
 410:	24020000 	strcs	r0, [r2], #-0
 414:	3e0b0b00 	vmlacc.f64	d0, d11, d0
 418:	000e030b 	andeq	r0, lr, fp, lsl #6
 41c:	00160300 	andseq	r0, r6, r0, lsl #6
 420:	0b3a0e03 	bleq	e83c34 <__dram_freq_start+0xe83c34>
 424:	13490b3b 	movtne	r0, #39739	; 0x9b3b
 428:	24040000 	strcs	r0, [r4], #-0
 42c:	3e0b0b00 	vmlacc.f64	d0, d11, d0
 430:	0008030b 	andeq	r0, r8, fp, lsl #6
 434:	000f0500 	andeq	r0, pc, r0, lsl #10
 438:	00000b0b 	andeq	r0, r0, fp, lsl #22
 43c:	03011306 	movweq	r1, #4870	; 0x1306
 440:	3a0b0b0e 	bcc	2c3080 <__dram_freq_start+0x2c3080>
 444:	010b3b0b 	tsteq	fp, fp, lsl #22
 448:	07000013 	smladeq	r0, r3, r0, r0
 44c:	0e03000d 	cdpeq	0, 0, cr0, cr3, cr13, {0}
 450:	0a381349 	beq	e0517c <__dram_freq_start+0xe0517c>
 454:	00000c34 	andeq	r0, r0, r4, lsr ip
 458:	3f012e08 	svccc	0x00012e08
 45c:	3a0e030c 	bcc	381094 <__dram_freq_start+0x381094>
 460:	270b3b0b 	strcs	r3, [fp, -fp, lsl #22]
 464:	2013490c 	andscs	r4, r3, ip, lsl #18
 468:	0013010b 	andseq	r0, r3, fp, lsl #2
 46c:	00050900 	andeq	r0, r5, r0, lsl #18
 470:	0b3a0803 	bleq	e82484 <__dram_freq_start+0xe82484>
 474:	13490b3b 	movtne	r0, #39739	; 0x9b3b
 478:	340a0000 	strcc	r0, [sl], #-0
 47c:	3a080300 	bcc	201084 <__dram_freq_start+0x201084>
 480:	490b3b0b 	stmdbmi	fp, {r0, r1, r3, r8, r9, fp, ip, sp}
 484:	0b000013 	bleq	4d8 <__dram_freq_start+0x4d8>
 488:	0b0b000f 	bleq	2c04cc <__dram_freq_start+0x2c04cc>
 48c:	00001349 	andeq	r1, r0, r9, asr #6
 490:	4900260c 	stmdbmi	r0, {r2, r3, r9, sl, sp}
 494:	0d000013 	stceq	0, cr0, [r0, #-76]	; 0xffffffb4
 498:	0e030005 	cdpeq	0, 0, cr0, cr3, cr5, {0}
 49c:	0b3b0b3a 	bleq	ec318c <__dram_freq_start+0xec318c>
 4a0:	00001349 	andeq	r1, r0, r9, asr #6
 4a4:	31012e0e 	tstcc	r1, lr, lsl #28
 4a8:	12011113 	andne	r1, r1, #-1073741820	; 0xc0000004
 4ac:	010a4001 	tsteq	sl, r1
 4b0:	0f000013 	svceq	0x00000013
 4b4:	13310005 	teqne	r1, #5
 4b8:	00000602 	andeq	r0, r0, r2, lsl #12
 4bc:	31003410 	tstcc	r0, r0, lsl r4
 4c0:	00060213 	andeq	r0, r6, r3, lsl r2
 4c4:	00341100 	eorseq	r1, r4, r0, lsl #2
 4c8:	0a021331 	beq	85194 <__dram_freq_start+0x85194>
 4cc:	2e120000 	cdpcs	0, 1, cr0, cr2, cr0, {0}
 4d0:	030c3f01 	movweq	r3, #52993	; 0xcf01
 4d4:	3b0b3a0e 	blcc	2ced14 <__dram_freq_start+0x2ced14>
 4d8:	490c270b 	stmdbmi	ip, {r0, r1, r3, r8, r9, sl, sp}
 4dc:	12011113 	andne	r1, r1, #-1073741820	; 0xc0000004
 4e0:	010a4001 	tsteq	sl, r1
 4e4:	13000013 	movwne	r0, #19
 4e8:	0e030005 	cdpeq	0, 0, cr0, cr3, cr5, {0}
 4ec:	0b3b0b3a 	bleq	ec31dc <__dram_freq_start+0xec31dc>
 4f0:	0a021349 	beq	8521c <__dram_freq_start+0x8521c>
 4f4:	05140000 	ldreq	r0, [r4, #-0]
 4f8:	3a080300 	bcc	201100 <__dram_freq_start+0x201100>
 4fc:	490b3b0b 	stmdbmi	fp, {r0, r1, r3, r8, r9, fp, ip, sp}
 500:	000a0213 	andeq	r0, sl, r3, lsl r2
 504:	00051500 	andeq	r1, r5, r0, lsl #10
 508:	0b3a0e03 	bleq	e83d1c <__dram_freq_start+0xe83d1c>
 50c:	13490b3b 	movtne	r0, #39739	; 0x9b3b
 510:	00000602 	andeq	r0, r0, r2, lsl #12
 514:	03003416 	movweq	r3, #1046	; 0x416
 518:	3b0b3a08 	blcc	2ced40 <__dram_freq_start+0x2ced40>
 51c:	0213490b 	andseq	r4, r3, #180224	; 0x2c000
 520:	17000006 	strne	r0, [r0, -r6]
 524:	08030005 	stmdaeq	r3, {r0, r2}
 528:	0b3b0b3a 	bleq	ec3218 <__dram_freq_start+0xec3218>
 52c:	06021349 	streq	r1, [r2], -r9, asr #6
 530:	34180000 	ldrcc	r0, [r8], #-0
 534:	3a080300 	bcc	20113c <__dram_freq_start+0x20113c>
 538:	490b3b0b 	stmdbmi	fp, {r0, r1, r3, r8, r9, fp, ip, sp}
 53c:	000a0213 	andeq	r0, sl, r3, lsl r2
 540:	012e1900 	teqeq	lr, r0, lsl #18
 544:	0e030c3f 	mcreq	12, 0, r0, cr3, cr15, {1}
 548:	0b3b0b3a 	bleq	ec3238 <__dram_freq_start+0xec3238>
 54c:	13490c27 	movtne	r0, #39975	; 0x9c27
 550:	01120111 	tsteq	r2, r1, lsl r1
 554:	13010640 	movwne	r0, #5696	; 0x1640
 558:	341a0000 	ldrcc	r0, [sl], #-0
 55c:	3a0e0300 	bcc	381164 <__dram_freq_start+0x381164>
 560:	490b3b0b 	stmdbmi	fp, {r0, r1, r3, r8, r9, fp, ip, sp}
 564:	000a0213 	andeq	r0, sl, r3, lsl r2
 568:	00341b00 	eorseq	r1, r4, r0, lsl #22
 56c:	0b3a0e03 	bleq	e83d80 <__dram_freq_start+0xe83d80>
 570:	13490b3b 	movtne	r0, #39739	; 0x9b3b
 574:	00000602 	andeq	r0, r0, r2, lsl #12
 578:	4901011c 	stmdbmi	r1, {r2, r3, r4, r8}
 57c:	00130113 	andseq	r0, r3, r3, lsl r1
 580:	00211d00 	eoreq	r1, r1, r0, lsl #26
 584:	0b2f1349 	bleq	bc52b0 <__dram_freq_start+0xbc52b0>
 588:	2e1e0000 	cdpcs	0, 1, cr0, cr14, cr0, {0}
 58c:	030c3f01 	movweq	r3, #52993	; 0xcf01
 590:	3b0b3a0e 	blcc	2cedd0 <__dram_freq_start+0x2cedd0>
 594:	490c2705 	stmdbmi	ip, {r0, r2, r8, r9, sl, sp}
 598:	12011113 	andne	r1, r1, #-1073741820	; 0xc0000004
 59c:	01064001 	tsteq	r6, r1
 5a0:	1f000013 	svcne	0x00000013
 5a4:	0e030005 	cdpeq	0, 0, cr0, cr3, cr5, {0}
 5a8:	053b0b3a 	ldreq	r0, [fp, #-2874]!	; 0xb3a
 5ac:	06021349 	streq	r1, [r2], -r9, asr #6
 5b0:	05200000 	streq	r0, [r0, #-0]!
 5b4:	3a080300 	bcc	2011bc <__dram_freq_start+0x2011bc>
 5b8:	49053b0b 	stmdbmi	r5, {r0, r1, r3, r8, r9, fp, ip, sp}
 5bc:	00060213 	andeq	r0, r6, r3, lsl r2
 5c0:	00342100 	eorseq	r2, r4, r0, lsl #2
 5c4:	0b3a0e03 	bleq	e83dd8 <__dram_freq_start+0xe83dd8>
 5c8:	1349053b 	movtne	r0, #38203	; 0x953b
 5cc:	00000a02 	andeq	r0, r0, r2, lsl #20
 5d0:	00001822 	andeq	r1, r0, r2, lsr #16
 5d4:	00342300 	eorseq	r2, r4, r0, lsl #6
 5d8:	0b3a0e03 	bleq	e83dec <__dram_freq_start+0xe83dec>
 5dc:	1349053b 	movtne	r0, #38203	; 0x953b
 5e0:	00000602 	andeq	r0, r0, r2, lsl #12
 5e4:	03003424 	movweq	r3, #1060	; 0x424
 5e8:	3b0b3a08 	blcc	2cee10 <__dram_freq_start+0x2cee10>
 5ec:	02134905 	andseq	r4, r3, #81920	; 0x14000
 5f0:	25000006 	strcs	r0, [r0, #-6]
 5f4:	0655010b 	ldrbeq	r0, [r5], -fp, lsl #2
 5f8:	00001301 	andeq	r1, r0, r1, lsl #6
 5fc:	3f012e26 	svccc	0x00012e26
 600:	3a0e030c 	bcc	381238 <__dram_freq_start+0x381238>
 604:	49053b0b 	stmdbmi	r5, {r0, r1, r3, r8, r9, fp, ip, sp}
 608:	010c3c13 	tsteq	ip, r3, lsl ip
 60c:	27000013 	smladcs	r0, r3, r0, r0
 610:	1331011d 	teqne	r1, #1073741831	; 0x40000007
 614:	01120111 	tsteq	r2, r1, lsl r1
 618:	05590b58 	ldrbeq	r0, [r9, #-2904]	; 0xb58
 61c:	00001301 	andeq	r1, r0, r1, lsl #6
 620:	11010b28 	tstne	r1, r8, lsr #22
 624:	00011201 	andeq	r1, r1, r1, lsl #4
 628:	011d2900 	tsteq	sp, r0, lsl #18
 62c:	01111331 	tsteq	r1, r1, lsr r3
 630:	0b580112 	bleq	1600a80 <__dram_freq_start+0x1600a80>
 634:	00000559 	andeq	r0, r0, r9, asr r5
 638:	3100052a 	tstcc	r0, sl, lsr #10
 63c:	2b000013 	blcs	690 <__dram_freq_start+0x690>
 640:	0111010b 	tsteq	r1, fp, lsl #2
 644:	13010112 	movwne	r0, #4370	; 0x1112
 648:	052c0000 	streq	r0, [ip, #-0]!
 64c:	02133100 	andseq	r3, r3, #0
 650:	2d00000a 	stccs	0, cr0, [r0, #-40]	; 0xffffffd8
 654:	0e030034 	mcreq	0, 0, r0, cr3, cr4, {1}
 658:	053b0b3a 	ldreq	r0, [fp, #-2874]!	; 0xb3a
 65c:	0c3f1349 	ldceq	3, cr1, [pc], #-292	; 540 <__dram_freq_start+0x540>
 660:	00000a02 	andeq	r0, r0, r2, lsl #20
 664:	01110100 	tsteq	r1, r0, lsl #2
 668:	0b130e25 	bleq	4c3f04 <__dram_freq_start+0x4c3f04>
 66c:	0e1b0e03 	cdpeq	14, 1, cr0, cr11, cr3, {0}
 670:	01120111 	tsteq	r2, r1, lsl r1
 674:	00000610 	andeq	r0, r0, r0, lsl r6
 678:	0b002402 	bleq	9688 <__dram_freq_start+0x9688>
 67c:	030b3e0b 	movweq	r3, #48651	; 0xbe0b
 680:	0300000e 	movweq	r0, #14
 684:	0e030016 	mcreq	0, 0, r0, cr3, cr6, {0}
 688:	0b3b0b3a 	bleq	ec3378 <__dram_freq_start+0xec3378>
 68c:	00001349 	andeq	r1, r0, r9, asr #6
 690:	0b002404 	bleq	96a8 <__dram_freq_start+0x96a8>
 694:	030b3e0b 	movweq	r3, #48651	; 0xbe0b
 698:	05000008 	streq	r0, [r0, #-8]
 69c:	0c3f002e 	ldceq	0, cr0, [pc], #-184	; 5ec <__dram_freq_start+0x5ec>
 6a0:	0b3a0e03 	bleq	e83eb4 <__dram_freq_start+0xe83eb4>
 6a4:	0c270b3b 	stceq	11, cr0, [r7], #-236	; 0xffffff14
 6a8:	01120111 	tsteq	r2, r1, lsl r1
 6ac:	00000a40 	andeq	r0, r0, r0, asr #20
 6b0:	3f012e06 	svccc	0x00012e06
 6b4:	3a0e030c 	bcc	3812ec <__dram_freq_start+0x3812ec>
 6b8:	270b3b0b 	strcs	r3, [fp, -fp, lsl #22]
 6bc:	1113490c 	tstne	r3, ip, lsl #18
 6c0:	40011201 	andmi	r1, r1, r1, lsl #4
 6c4:	0700000a 	streq	r0, [r0, -sl]
 6c8:	0e030005 	cdpeq	0, 0, cr0, cr3, cr5, {0}
 6cc:	0b3b0b3a 	bleq	ec33bc <__dram_freq_start+0xec33bc>
 6d0:	06021349 	streq	r1, [r2], -r9, asr #6
 6d4:	34080000 	strcc	r0, [r8], #-0
 6d8:	3a0e0300 	bcc	3812e0 <__dram_freq_start+0x3812e0>
 6dc:	490b3b0b 	stmdbmi	fp, {r0, r1, r3, r8, r9, fp, ip, sp}
 6e0:	00060213 	andeq	r0, r6, r3, lsl r2
 6e4:	11010000 	mrsne	r0, (UNDEF: 1)
 6e8:	11061000 	mrsne	r1, (UNDEF: 6)
 6ec:	03011201 	movweq	r1, #4609	; 0x1201
 6f0:	25081b08 	strcs	r1, [r8, #-2824]	; 0xb08
 6f4:	00051308 	andeq	r1, r5, r8, lsl #6
 6f8:	11010000 	mrsne	r0, (UNDEF: 1)
 6fc:	11061000 	mrsne	r1, (UNDEF: 6)
 700:	03011201 	movweq	r1, #4609	; 0x1201
 704:	25081b08 	strcs	r1, [r8, #-2824]	; 0xb08
 708:	00051308 	andeq	r1, r5, r8, lsl #6
 70c:	11010000 	mrsne	r0, (UNDEF: 1)
 710:	130e2501 	movwne	r2, #58625	; 0xe501
 714:	1b0e030b 	blne	381348 <__dram_freq_start+0x381348>
 718:	1201110e 	andne	r1, r1, #-2147483645	; 0x80000003
 71c:	00061001 	andeq	r1, r6, r1
 720:	00240200 	eoreq	r0, r4, r0, lsl #4
 724:	0b3e0b0b 	bleq	f83358 <__dram_freq_start+0xf83358>
 728:	00000e03 	andeq	r0, r0, r3, lsl #28
 72c:	03001603 	movweq	r1, #1539	; 0x603
 730:	3b0b3a0e 	blcc	2cef70 <__dram_freq_start+0x2cef70>
 734:	0013490b 	andseq	r4, r3, fp, lsl #18
 738:	00240400 	eoreq	r0, r4, r0, lsl #8
 73c:	0b3e0b0b 	bleq	f83370 <__dram_freq_start+0xf83370>
 740:	00000803 	andeq	r0, r0, r3, lsl #16
 744:	03010405 	movweq	r0, #5125	; 0x1405
 748:	3a0b0b0e 	bcc	2c3388 <__dram_freq_start+0x2c3388>
 74c:	010b3b0b 	tsteq	fp, fp, lsl #22
 750:	06000013 			; <UNDEFINED> instruction: 0x06000013
 754:	0e030028 	cdpeq	0, 0, cr0, cr3, cr8, {1}
 758:	00000d1c 	andeq	r0, r0, ip, lsl sp
 75c:	49003507 	stmdbmi	r0, {r0, r1, r2, r8, sl, ip, sp}
 760:	08000013 	stmdaeq	r0, {r0, r1, r4}
 764:	13490101 	movtne	r0, #37121	; 0x9101
 768:	00001301 	andeq	r1, r0, r1, lsl #6
 76c:	49002109 	stmdbmi	r0, {r0, r3, r8, sp}
 770:	000b2f13 	andeq	r2, fp, r3, lsl pc
 774:	01130a00 	tsteq	r3, r0, lsl #20
 778:	0b0b0e03 	bleq	2c3f8c <__dram_freq_start+0x2c3f8c>
 77c:	0b3b0b3a 	bleq	ec346c <__dram_freq_start+0xec346c>
 780:	00001301 	andeq	r1, r0, r1, lsl #6
 784:	03000d0b 	movweq	r0, #3339	; 0xd0b
 788:	3b0b3a0e 	blcc	2cefc8 <__dram_freq_start+0x2cefc8>
 78c:	0b13490b 	bleq	4d2bc0 <__dram_freq_start+0x4d2bc0>
 790:	0c0b0d0b 	stceq	13, cr0, [fp], {11}
 794:	000a380b 	andeq	r3, sl, fp, lsl #16
 798:	000d0c00 	andeq	r0, sp, r0, lsl #24
 79c:	0b3a0e03 	bleq	e83fb0 <__dram_freq_start+0xe83fb0>
 7a0:	1349053b 	movtne	r0, #38203	; 0x953b
 7a4:	0b0d0b0b 	bleq	3433d8 <__dram_freq_start+0x3433d8>
 7a8:	0a380b0c 	beq	e033e0 <__dram_freq_start+0xe033e0>
 7ac:	160d0000 	strne	r0, [sp], -r0
 7b0:	3a0e0300 	bcc	3813b8 <__dram_freq_start+0x3813b8>
 7b4:	49053b0b 	stmdbmi	r5, {r0, r1, r3, r8, r9, fp, ip, sp}
 7b8:	0e000013 	mcreq	0, 0, r0, cr0, cr3, {0}
 7bc:	0e030113 	mcreq	1, 0, r0, cr3, cr3, {0}
 7c0:	0b3a0b0b 	bleq	e833f4 <__dram_freq_start+0xe833f4>
 7c4:	1301053b 	movwne	r0, #5435	; 0x153b
 7c8:	0d0f0000 	stceq	0, cr0, [pc, #-0]	; 7d0 <__dram_freq_start+0x7d0>
 7cc:	3a080300 	bcc	2013d4 <__dram_freq_start+0x2013d4>
 7d0:	49053b0b 	stmdbmi	r5, {r0, r1, r3, r8, r9, fp, ip, sp}
 7d4:	000a3813 	andeq	r3, sl, r3, lsl r8
 7d8:	01131000 	tsteq	r3, r0
 7dc:	050b0e03 	streq	r0, [fp, #-3587]	; 0xe03
 7e0:	053b0b3a 	ldreq	r0, [fp, #-2874]!	; 0xb3a
 7e4:	00001301 	andeq	r1, r0, r1, lsl #6
 7e8:	03000d11 	movweq	r0, #3345	; 0xd11
 7ec:	3b0b3a0e 	blcc	2cf02c <__dram_freq_start+0x2cf02c>
 7f0:	38134905 	ldmdacc	r3, {r0, r2, r8, fp, lr}
 7f4:	1200000a 	andne	r0, r0, #10
 7f8:	0c3f012e 	ldfeqs	f0, [pc], #-184	; 748 <__dram_freq_start+0x748>
 7fc:	0b3a0e03 	bleq	e84010 <__dram_freq_start+0xe84010>
 800:	0c270b3b 	stceq	11, cr0, [r7], #-236	; 0xffffff14
 804:	0b201349 	bleq	805530 <__dram_freq_start+0x805530>
 808:	00001301 	andeq	r1, r0, r1, lsl #6
 80c:	03003413 	movweq	r3, #1043	; 0x413
 810:	3b0b3a0e 	blcc	2cf050 <__dram_freq_start+0x2cf050>
 814:	0013490b 	andseq	r4, r3, fp, lsl #18
 818:	012e1400 	teqeq	lr, r0, lsl #8
 81c:	0b3a0e03 	bleq	e84030 <__dram_freq_start+0xe84030>
 820:	0c270b3b 	stceq	11, cr0, [r7], #-236	; 0xffffff14
 824:	0b201349 	bleq	805550 <__dram_freq_start+0x805550>
 828:	00001301 	andeq	r1, r0, r1, lsl #6
 82c:	03000515 	movweq	r0, #1301	; 0x515
 830:	3b0b3a0e 	blcc	2cf070 <__dram_freq_start+0x2cf070>
 834:	0013490b 	andseq	r4, r3, fp, lsl #18
 838:	012e1600 	teqeq	lr, r0, lsl #12
 83c:	0e030c3f 	mcreq	12, 0, r0, cr3, cr15, {1}
 840:	0b3b0b3a 	bleq	ec3530 <__dram_freq_start+0xec3530>
 844:	01110c27 	tsteq	r1, r7, lsr #24
 848:	0a400112 	beq	1000c98 <__dram_freq_start+0x1000c98>
 84c:	00001301 	andeq	r1, r0, r1, lsl #6
 850:	03000517 	movweq	r0, #1303	; 0x517
 854:	3b0b3a0e 	blcc	2cf094 <__dram_freq_start+0x2cf094>
 858:	0213490b 	andseq	r4, r3, #180224	; 0x2c000
 85c:	18000006 	stmdane	r0, {r1, r2}
 860:	0e030005 	cdpeq	0, 0, cr0, cr3, cr5, {0}
 864:	0b3b0b3a 	bleq	ec3554 <__dram_freq_start+0xec3554>
 868:	0a021349 	beq	85594 <__dram_freq_start+0x85594>
 86c:	34190000 	ldrcc	r0, [r9], #-0
 870:	3a0e0300 	bcc	381478 <__dram_freq_start+0x381478>
 874:	490b3b0b 	stmdbmi	fp, {r0, r1, r3, r8, r9, fp, ip, sp}
 878:	00060213 	andeq	r0, r6, r3, lsl r2
 87c:	002e1a00 	eoreq	r1, lr, r0, lsl #20
 880:	0e030c3f 	mcreq	12, 0, r0, cr3, cr15, {1}
 884:	0b3b0b3a 	bleq	ec3574 <__dram_freq_start+0xec3574>
 888:	01110c27 	tsteq	r1, r7, lsr #24
 88c:	0a400112 	beq	1000cdc <__dram_freq_start+0x1000cdc>
 890:	2e1b0000 	cdpcs	0, 1, cr0, cr11, cr0, {0}
 894:	11133101 	tstne	r3, r1, lsl #2
 898:	40011201 	andmi	r1, r1, r1, lsl #4
 89c:	0013010a 	andseq	r0, r3, sl, lsl #2
 8a0:	00341c00 	eorseq	r1, r4, r0, lsl #24
 8a4:	0a021331 	beq	85570 <__dram_freq_start+0x85570>
 8a8:	2e1d0000 	cdpcs	0, 1, cr0, cr13, cr0, {0}
 8ac:	030c3f01 	movweq	r3, #52993	; 0xcf01
 8b0:	3b0b3a0e 	blcc	2cf0f0 <__dram_freq_start+0x2cf0f0>
 8b4:	110c270b 	tstne	ip, fp, lsl #14
 8b8:	40011201 	andmi	r1, r1, r1, lsl #4
 8bc:	00130106 	andseq	r0, r3, r6, lsl #2
 8c0:	011d1e00 	tsteq	sp, r0, lsl #28
 8c4:	01111331 	tsteq	r1, r1, lsr r3
 8c8:	0b580112 	bleq	1600d18 <__dram_freq_start+0x1600d18>
 8cc:	13010b59 	movwne	r0, #7001	; 0x1b59
 8d0:	0b1f0000 	bleq	7c08d8 <__dram_freq_start+0x7c08d8>
 8d4:	12011101 	andne	r1, r1, #1073741824	; 0x40000000
 8d8:	20000001 	andcs	r0, r0, r1
 8dc:	13310034 	teqne	r1, #52	; 0x34
 8e0:	00000602 	andeq	r0, r0, r2, lsl #12
 8e4:	31011d21 	tstcc	r1, r1, lsr #26
 8e8:	12011113 	andne	r1, r1, #-1073741820	; 0xc0000004
 8ec:	590b5801 	stmdbpl	fp, {r0, fp, ip, lr}
 8f0:	2200000b 	andcs	r0, r0, #11
 8f4:	0b0b000f 	bleq	2c0938 <__dram_freq_start+0x2c0938>
 8f8:	00001349 	andeq	r1, r0, r9, asr #6
 8fc:	03000523 	movweq	r0, #1315	; 0x523
 900:	3b0b3a08 	blcc	2cf128 <__dram_freq_start+0x2cf128>
 904:	0213490b 	andseq	r4, r3, #180224	; 0x2c000
 908:	24000006 	strcs	r0, [r0], #-6
 90c:	08030034 	stmdaeq	r3, {r2, r4, r5}
 910:	0b3b0b3a 	bleq	ec3600 <__dram_freq_start+0xec3600>
 914:	06021349 	streq	r1, [r2], -r9, asr #6
 918:	1d250000 	stcne	0, cr0, [r5, #-0]
 91c:	11133101 	tstne	r3, r1, lsl #2
 920:	58011201 	stmdapl	r1, {r0, r9, ip}
 924:	0005590b 	andeq	r5, r5, fp, lsl #18
 928:	00052600 	andeq	r2, r5, r0, lsl #12
 92c:	0a021331 	beq	855f8 <__dram_freq_start+0x855f8>
 930:	2e270000 	cdpcs	0, 2, cr0, cr7, cr0, {0}
 934:	030c3f01 	movweq	r3, #52993	; 0xcf01
 938:	3b0b3a0e 	blcc	2cf178 <__dram_freq_start+0x2cf178>
 93c:	490c2705 	stmdbmi	ip, {r0, r2, r8, r9, sl, sp}
 940:	12011113 	andne	r1, r1, #-1073741820	; 0xc0000004
 944:	010a4001 	tsteq	sl, r1
 948:	28000013 	stmdacs	r0, {r0, r1, r4}
 94c:	0e030005 	cdpeq	0, 0, cr0, cr3, cr5, {0}
 950:	053b0b3a 	ldreq	r0, [fp, #-2874]!	; 0xb3a
 954:	06021349 	streq	r1, [r2], -r9, asr #6
 958:	34290000 	strtcc	r0, [r9], #-0
 95c:	3a0e0300 	bcc	381564 <__dram_freq_start+0x381564>
 960:	49053b0b 	stmdbmi	r5, {r0, r1, r3, r8, r9, fp, ip, sp}
 964:	00060213 	andeq	r0, r6, r3, lsl r2
 968:	00052a00 	andeq	r2, r5, r0, lsl #20
 96c:	06021331 			; <UNDEFINED> instruction: 0x06021331
 970:	342b0000 	strtcc	r0, [fp], #-0
 974:	3a0e0300 	bcc	38157c <__dram_freq_start+0x38157c>
 978:	490b3b0b 	stmdbmi	fp, {r0, r1, r3, r8, r9, fp, ip, sp}
 97c:	000a0213 	andeq	r0, sl, r3, lsl r2
 980:	11010000 	mrsne	r0, (UNDEF: 1)
 984:	11061000 	mrsne	r1, (UNDEF: 6)
 988:	03011201 	movweq	r1, #4609	; 0x1201
 98c:	25081b08 	strcs	r1, [r8, #-2824]	; 0xb08
 990:	00051308 	andeq	r1, r5, r8, lsl #6
 994:	11010000 	mrsne	r0, (UNDEF: 1)
 998:	130e2501 	movwne	r2, #58625	; 0xe501
 99c:	1b0e030b 	blne	3815d0 <__dram_freq_start+0x3815d0>
 9a0:	1201110e 	andne	r1, r1, #-2147483645	; 0x80000003
 9a4:	00061001 	andeq	r1, r6, r1
 9a8:	00240200 	eoreq	r0, r4, r0, lsl #4
 9ac:	0b3e0b0b 	bleq	f835e0 <__dram_freq_start+0xf835e0>
 9b0:	00000e03 	andeq	r0, r0, r3, lsl #28
 9b4:	03001603 	movweq	r1, #1539	; 0x603
 9b8:	3b0b3a0e 	blcc	2cf1f8 <__dram_freq_start+0x2cf1f8>
 9bc:	0013490b 	andseq	r4, r3, fp, lsl #18
 9c0:	00240400 	eoreq	r0, r4, r0, lsl #8
 9c4:	0b3e0b0b 	bleq	f835f8 <__dram_freq_start+0xf835f8>
 9c8:	00000803 	andeq	r0, r0, r3, lsl #16
 9cc:	49003505 	stmdbmi	r0, {r0, r2, r8, sl, ip, sp}
 9d0:	06000013 			; <UNDEFINED> instruction: 0x06000013
 9d4:	0e030113 	mcreq	1, 0, r0, cr3, cr3, {0}
 9d8:	0b3a0b0b 	bleq	e8360c <__dram_freq_start+0xe8360c>
 9dc:	13010b3b 	movwne	r0, #6971	; 0x1b3b
 9e0:	0d070000 	stceq	0, cr0, [r7, #-0]
 9e4:	3a0e0300 	bcc	3815ec <__dram_freq_start+0x3815ec>
 9e8:	490b3b0b 	stmdbmi	fp, {r0, r1, r3, r8, r9, fp, ip, sp}
 9ec:	000a3813 	andeq	r3, sl, r3, lsl r8
 9f0:	012e0800 	teqeq	lr, r0, lsl #16
 9f4:	0e030c3f 	mcreq	12, 0, r0, cr3, cr15, {1}
 9f8:	0b3b0b3a 	bleq	ec36e8 <__dram_freq_start+0xec36e8>
 9fc:	01110c27 	tsteq	r1, r7, lsr #24
 a00:	06400112 			; <UNDEFINED> instruction: 0x06400112
 a04:	00001301 	andeq	r1, r0, r1, lsl #6
 a08:	03003409 	movweq	r3, #1033	; 0x409
 a0c:	3b0b3a0e 	blcc	2cf24c <__dram_freq_start+0x2cf24c>
 a10:	0213490b 	andseq	r4, r3, #180224	; 0x2c000
 a14:	0a00000a 	beq	a44 <__dram_freq_start+0xa44>
 a18:	0c3f012e 	ldfeqs	f0, [pc], #-184	; 968 <__dram_freq_start+0x968>
 a1c:	0b3a0e03 	bleq	e84230 <__dram_freq_start+0xe84230>
 a20:	13490b3b 	movtne	r0, #39739	; 0x9b3b
 a24:	00000c3c 	andeq	r0, r0, ip, lsr ip
 a28:	0000180b 	andeq	r1, r0, fp, lsl #16
 a2c:	00050c00 	andeq	r0, r5, r0, lsl #24
 a30:	0b3a0e03 	bleq	e84244 <__dram_freq_start+0xe84244>
 a34:	13490b3b 	movtne	r0, #39739	; 0x9b3b
 a38:	00000a02 	andeq	r0, r0, r2, lsl #20
 a3c:	0300340d 	movweq	r3, #1037	; 0x40d
 a40:	3b0b3a08 	blcc	2cf268 <__dram_freq_start+0x2cf268>
 a44:	0213490b 	andseq	r4, r3, #180224	; 0x2c000
 a48:	0e00000a 	cdpeq	0, 0, cr0, cr0, cr10, {0}
 a4c:	0c3f012e 	ldfeqs	f0, [pc], #-184	; 99c <__dram_freq_start+0x99c>
 a50:	0b3a0e03 	bleq	e84264 <__dram_freq_start+0xe84264>
 a54:	0c27053b 	cfstr32eq	mvfx0, [r7], #-236	; 0xffffff14
 a58:	01120111 	tsteq	r2, r1, lsl r1
 a5c:	13010640 	movwne	r0, #5696	; 0x1640
 a60:	050f0000 	streq	r0, [pc, #-0]	; a68 <__dram_freq_start+0xa68>
 a64:	3a080300 	bcc	20166c <__dram_freq_start+0x20166c>
 a68:	49053b0b 	stmdbmi	r5, {r0, r1, r3, r8, r9, fp, ip, sp}
 a6c:	000a0213 	andeq	r0, sl, r3, lsl r2
 a70:	00051000 	andeq	r1, r5, r0
 a74:	0b3a0e03 	bleq	e84288 <__dram_freq_start+0xe84288>
 a78:	1349053b 	movtne	r0, #38203	; 0x953b
 a7c:	00000a02 	andeq	r0, r0, r2, lsl #20
 a80:	03003411 	movweq	r3, #1041	; 0x411
 a84:	3b0b3a0e 	blcc	2cf2c4 <__dram_freq_start+0x2cf2c4>
 a88:	02134905 	andseq	r4, r3, #81920	; 0x14000
 a8c:	1200000a 	andne	r0, r0, #10
 a90:	0c3f012e 	ldfeqs	f0, [pc], #-184	; 9e0 <__dram_freq_start+0x9e0>
 a94:	0b3a0e03 	bleq	e842a8 <__dram_freq_start+0xe842a8>
 a98:	0c27053b 	cfstr32eq	mvfx0, [r7], #-236	; 0xffffff14
 a9c:	01111349 	tsteq	r1, r9, asr #6
 aa0:	06400112 			; <UNDEFINED> instruction: 0x06400112
 aa4:	00001301 	andeq	r1, r0, r1, lsl #6
 aa8:	03003413 	movweq	r3, #1043	; 0x413
 aac:	3b0b3a0e 	blcc	2cf2ec <__dram_freq_start+0x2cf2ec>
 ab0:	00134905 	andseq	r4, r3, r5, lsl #18
 ab4:	000f1400 	andeq	r1, pc, r0, lsl #8
 ab8:	13490b0b 	movtne	r0, #39691	; 0x9b0b
 abc:	2e150000 	cdpcs	0, 1, cr0, cr5, cr0, {0}
 ac0:	030c3f00 	movweq	r3, #52992	; 0xcf00
 ac4:	3b0b3a0e 	blcc	2cf304 <__dram_freq_start+0x2cf304>
 ac8:	490c2705 	stmdbmi	ip, {r0, r2, r8, r9, sl, sp}
 acc:	12011113 	andne	r1, r1, #-1073741820	; 0xc0000004
 ad0:	00064001 	andeq	r4, r6, r1
 ad4:	00341600 	eorseq	r1, r4, r0, lsl #12
 ad8:	0b3a0803 	bleq	e82aec <__dram_freq_start+0xe82aec>
 adc:	1349053b 	movtne	r0, #38203	; 0x953b
 ae0:	34170000 	ldrcc	r0, [r7], #-0
 ae4:	3a080300 	bcc	2016ec <__dram_freq_start+0x2016ec>
 ae8:	49053b0b 	stmdbmi	r5, {r0, r1, r3, r8, r9, fp, ip, sp}
 aec:	000a0213 	andeq	r0, sl, r3, lsl r2
 af0:	002e1800 	eoreq	r1, lr, r0, lsl #16
 af4:	0e030c3f 	mcreq	12, 0, r0, cr3, cr15, {1}
 af8:	053b0b3a 	ldreq	r0, [fp, #-2874]!	; 0xb3a
 afc:	01110c27 	tsteq	r1, r7, lsr #24
 b00:	06400112 			; <UNDEFINED> instruction: 0x06400112
 b04:	01190000 	tsteq	r9, r0
 b08:	01134901 	tsteq	r3, r1, lsl #18
 b0c:	1a000013 	bne	b60 <__dram_freq_start+0xb60>
 b10:	13490021 	movtne	r0, #36897	; 0x9021
 b14:	00000b2f 	andeq	r0, r0, pc, lsr #22
 b18:	0300341b 	movweq	r3, #1051	; 0x41b
 b1c:	3b0b3a0e 	blcc	2cf35c <__dram_freq_start+0x2cf35c>
 b20:	3f13490b 	svccc	0x0013490b
 b24:	000a020c 	andeq	r0, sl, ip, lsl #4
	...

Disassembly of section .debug_loc:

00000000 <.debug_loc>:
       0:	f000014c 			; <UNDEFINED> instruction: 0xf000014c
       4:	f0000160 			; <UNDEFINED> instruction: 0xf0000160
       8:	68500001 	ldmdavs	r0, {r0}^
       c:	80f00001 	rscshi	r0, r0, r1
      10:	01f00001 	mvnseq	r0, r1
      14:	00005000 	andeq	r5, r0, r0
      18:	00000000 	andeq	r0, r0, r0
      1c:	014c0000 	mrseq	r0, (UNDEF: 76)
      20:	0160f000 	msreq	SPSR_, r0
      24:	0001f000 	andeq	pc, r1, r0
      28:	00016851 	andeq	r6, r1, r1, asr r8
      2c:	000180f0 	strdeq	r8, [r1], -r0
      30:	510001f0 	strdpl	r0, [r0, -r0]
	...
      3c:	f0000160 			; <UNDEFINED> instruction: 0xf0000160
      40:	f0000168 			; <UNDEFINED> instruction: 0xf0000168
      44:	00520001 	subseq	r0, r2, r1
      48:	00000000 	andeq	r0, r0, r0
      4c:	60000000 	andvs	r0, r0, r0
      50:	68f00001 	ldmvs	r0!, {r0}^
      54:	01f00001 	mvnseq	r0, r1
      58:	00005100 	andeq	r5, r0, r0, lsl #2
      5c:	00000000 	andeq	r0, r0, r0
      60:	01600000 	cmneq	r0, r0
      64:	0168f000 	msreq	SPSR_f, r0
      68:	0001f000 	andeq	pc, r1, r0
      6c:	00000050 	andeq	r0, r0, r0, asr r0
      70:	00000000 	andeq	r0, r0, r0
      74:	0001dc00 	andeq	sp, r1, r0, lsl #24
      78:	0001e0f0 	strdeq	lr, [r1], -r0
      7c:	7d0002f0 	sfmvc	f0, 4, [r0, #-960]	; 0xfffffc40
      80:	0001e000 	andeq	lr, r1, r0
      84:	000224f0 	strdeq	r2, [r2], -r0
      88:	7d0002f0 	sfmvc	f0, 4, [r0, #-960]	; 0xfffffc40
      8c:	00000004 	andeq	r0, r0, r4
      90:	00000000 	andeq	r0, r0, r0
      94:	0001dc00 	andeq	sp, r1, r0, lsl #24
      98:	0001f4f0 	strdeq	pc, [r1], -r0
      9c:	300002f0 	strdcc	r0, [r0], -r0	; <UNPREDICTABLE>
      a0:	0000009f 	muleq	r0, pc, r0	; <UNPREDICTABLE>
      a4:	00000000 	andeq	r0, r0, r0
      a8:	0001dc00 	andeq	sp, r1, r0, lsl #24
      ac:	0001f4f0 	strdeq	pc, [r1], -r0
      b0:	9e0006f0 	mcrls	6, 0, r0, cr0, cr0, {7}
      b4:	c0125004 	andsgt	r5, r2, r4
      b8:	000000f1 	strdeq	r0, [r0], -r1
      bc:	00000000 	andeq	r0, r0, r0
      c0:	00022400 	andeq	r2, r2, r0, lsl #8
      c4:	000238f0 	strdeq	r3, [r2], -r0
      c8:	300002f0 	strdcc	r0, [r0], -r0	; <UNPREDICTABLE>
      cc:	0000009f 	muleq	r0, pc, r0	; <UNPREDICTABLE>
      d0:	00000000 	andeq	r0, r0, r0
      d4:	00022400 	andeq	r2, r2, r0, lsl #8
      d8:	000234f0 	strdeq	r3, [r2], -r0
      dc:	9e0006f0 	mcrls	6, 0, r0, cr0, cr0, {7}
      e0:	c0125004 	andsgt	r5, r2, r4
      e4:	000250f1 	strdeq	r5, [r2], -r1
      e8:	000260f0 	strdeq	r6, [r2], -r0
      ec:	520001f0 	andpl	r0, r0, #60	; 0x3c
	...
      f8:	f0000260 			; <UNDEFINED> instruction: 0xf0000260
      fc:	f0000270 			; <UNDEFINED> instruction: 0xf0000270
     100:	d0110006 	andsle	r0, r1, r6
     104:	7f8e80a4 	svcvc	0x008e80a4
     108:	f0000270 			; <UNDEFINED> instruction: 0xf0000270
     10c:	f0000274 			; <UNDEFINED> instruction: 0xf0000274
     110:	00720006 	rsbseq	r0, r2, r6
     114:	9f1afe09 	svcls	0x001afe09
	...
     120:	f0000000 			; <UNDEFINED> instruction: 0xf0000000
     124:	f000000c 			; <UNDEFINED> instruction: 0xf000000c
     128:	007d0002 	rsbseq	r0, sp, r2
     12c:	f000000c 			; <UNDEFINED> instruction: 0xf000000c
     130:	f000014c 			; <UNDEFINED> instruction: 0xf000014c
     134:	187d0002 	ldmdane	sp!, {r1}^
	...
     140:	f0000000 			; <UNDEFINED> instruction: 0xf0000000
     144:	f0000024 			; <UNDEFINED> instruction: 0xf0000024
     148:	24500001 	ldrbcs	r0, [r0], #-1
     14c:	4cf00000 	ldclmi	0, cr0, [r0]
     150:	01f00001 	mvnseq	r0, r1
     154:	00005700 	andeq	r5, r0, r0, lsl #14
	...
     160:	009ff000 	addseq	pc, pc, r0
     164:	0001f000 	andeq	pc, r1, r0
     168:	00012851 	andeq	r2, r1, r1, asr r8
     16c:	00014cf0 	strdeq	r4, [r1], -r0
     170:	510001f0 	strdpl	r0, [r0, -r0]
	...
     17c:	f0000000 			; <UNDEFINED> instruction: 0xf0000000
     180:	f0000004 			; <UNDEFINED> instruction: 0xf0000004
     184:	00520001 	subseq	r0, r2, r1
     188:	00000000 	andeq	r0, r0, r0
     18c:	24000000 	strcs	r0, [r0], #-0
     190:	34f00000 	ldrbtcc	r0, [r0], #0
     194:	01f00000 	mvnseq	r0, r0
     198:	00005200 	andeq	r5, r0, r0, lsl #4
     19c:	00000000 	andeq	r0, r0, r0
     1a0:	00480000 	subeq	r0, r8, r0
     1a4:	005cf000 	subseq	pc, ip, r0
     1a8:	0002f000 	andeq	pc, r2, r0
     1ac:	00009f30 	andeq	r9, r0, r0, lsr pc
     1b0:	00000000 	andeq	r0, r0, r0
     1b4:	00480000 	subeq	r0, r8, r0
     1b8:	005cf000 	subseq	pc, ip, r0
     1bc:	0006f000 	andeq	pc, r6, r0
     1c0:	1250049e 	subsne	r0, r0, #-1644167168	; 0x9e000000
     1c4:	0000f1c0 	andeq	pc, r0, r0, asr #3
     1c8:	00000000 	andeq	r0, r0, r0
     1cc:	00800000 	addeq	r0, r0, r0
     1d0:	0128f000 	msreq	CPSR_f, r0
     1d4:	0006f000 	andeq	pc, r6, r0
     1d8:	1244049e 	subne	r0, r4, #-1644167168	; 0x9e000000
     1dc:	0000f1c0 	andeq	pc, r0, r0, asr #3
     1e0:	00000000 	andeq	r0, r0, r0
     1e4:	00940000 	addseq	r0, r4, r0
     1e8:	009ff000 	addseq	pc, pc, r0
     1ec:	000bf000 	andeq	pc, fp, r0
     1f0:	0604c475 			; <UNDEFINED> instruction: 0x0604c475
     1f4:	0200000c 	andeq	r0, r0, #12
     1f8:	009f2100 	addseq	r2, pc, r0, lsl #2
     1fc:	00000000 	andeq	r0, r0, r0
     200:	cc000000 	stcgt	0, cr0, [r0], {-0}
     204:	28f00000 	ldmcs	r0!, {}^	; <UNPREDICTABLE>
     208:	06f00001 	ldrbteq	r0, [r0], r1
     20c:	44049e00 	strmi	r9, [r4], #-3584	; 0xe00
     210:	00f1c012 	rscseq	ip, r1, r2, lsl r0
     214:	00000000 	andeq	r0, r0, r0
     218:	d0000000 	andle	r0, r0, r0
     21c:	e7f00000 	ldrb	r0, [r0, r0]!
     220:	0af00000 	beq	ffc00228 <__bss_end+0xfbfcef0>
     224:	04c47500 	strbeq	r7, [r4], #1280	; 0x500
     228:	ffff1106 			; <UNDEFINED> instruction: 0xffff1106
     22c:	009f1a77 	addseq	r1, pc, r7, ror sl	; <UNPREDICTABLE>
     230:	00000000 	andeq	r0, r0, r0
     234:	e8000000 	stmda	r0, {}	; <UNPREDICTABLE>
     238:	f8f00000 			; <UNDEFINED> instruction: 0xf8f00000
     23c:	02f00000 	rscseq	r0, r0, #0
     240:	009f3000 	addseq	r3, pc, r0
     244:	00000000 	andeq	r0, r0, r0
     248:	e8000000 	stmda	r0, {}	; <UNPREDICTABLE>
     24c:	f4f00000 			; <UNDEFINED> instruction: 0xf4f00000
     250:	06f00000 	ldrbteq	r0, [r0], r0
     254:	50049e00 	andpl	r9, r4, r0, lsl #28
     258:	10f1c012 	rscsne	ip, r1, r2, lsl r0
     25c:	1ff00001 	svcne	0x00f00001	; IMBRange
     260:	01f00001 	mvnseq	r0, r1
     264:	00005200 	andeq	r5, r0, r0, lsl #4
     268:	00000000 	andeq	r0, r0, r0
     26c:	00140000 	andseq	r0, r4, r0
     270:	00180000 	andseq	r0, r8, r0
     274:	00010000 	andeq	r0, r1, r0
     278:	00000050 	andeq	r0, r0, r0, asr r0
     27c:	00000000 	andeq	r0, r0, r0
     280:	00001c00 	andeq	r1, r0, r0, lsl #24
     284:	00005c00 	andeq	r5, r0, r0, lsl #24
     288:	50000100 	andpl	r0, r0, r0, lsl #2
     28c:	00000060 	andeq	r0, r0, r0, rrx
     290:	00000064 	andeq	r0, r0, r4, rrx
     294:	00500001 	subseq	r0, r0, r1
     298:	00000000 	andeq	r0, r0, r0
     29c:	1c000000 	stcne	0, cr0, [r0], {-0}
     2a0:	30000000 	andcc	r0, r0, r0
     2a4:	02000000 	andeq	r0, r0, #0
     2a8:	509f3000 	addspl	r3, pc, r0
     2ac:	58000000 	stmdapl	r0, {}	; <UNPREDICTABLE>
     2b0:	01000000 	mrseq	r0, (UNDEF: 0)
     2b4:	00605c00 	rsbeq	r5, r0, r0, lsl #24
     2b8:	00680000 	rsbeq	r0, r8, r0
     2bc:	00020000 	andeq	r0, r2, r0
     2c0:	00009f30 	andeq	r9, r0, r0, lsr pc
     2c4:	00000000 	andeq	r0, r0, r0
     2c8:	009c0000 	addseq	r0, ip, r0
     2cc:	00a80000 	adceq	r0, r8, r0
     2d0:	00010000 	andeq	r0, r1, r0
     2d4:	00000052 	andeq	r0, r0, r2, asr r0
     2d8:	00000000 	andeq	r0, r0, r0
     2dc:	0000d400 	andeq	sp, r0, r0, lsl #8
     2e0:	0000d800 	andeq	sp, r0, r0, lsl #16
     2e4:	7d000200 	sfmvc	f0, 4, [r0, #-0]
     2e8:	0000d800 	andeq	sp, r0, r0, lsl #16
     2ec:	00014c00 	andeq	r4, r1, r0, lsl #24
     2f0:	7d000200 	sfmvc	f0, 4, [r0, #-0]
     2f4:	00000004 	andeq	r0, r0, r4
     2f8:	00000000 	andeq	r0, r0, r0
     2fc:	0000d400 	andeq	sp, r0, r0, lsl #8
     300:	0000ec00 	andeq	lr, r0, r0, lsl #24
     304:	50000100 	andpl	r0, r0, r0, lsl #2
     308:	000000ec 	andeq	r0, r0, ip, ror #1
     30c:	000000f4 	strdeq	r0, [r0], -r4
     310:	01700003 	cmneq	r0, r3
     314:	0000009f 	muleq	r0, pc, r0	; <UNPREDICTABLE>
     318:	00000000 	andeq	r0, r0, r0
     31c:	00010000 	andeq	r0, r1, r0
     320:	00012400 	andeq	r2, r1, r0, lsl #8
     324:	5c000100 	stfpls	f0, [r0], {-0}
	...
     330:	0000014c 	andeq	r0, r0, ip, asr #2
     334:	0000018c 	andeq	r0, r0, ip, lsl #3
     338:	90500001 	subsls	r0, r0, r1
     33c:	94000001 	strls	r0, [r0], #-1
     340:	01000001 	tsteq	r0, r1
     344:	00005000 	andeq	r5, r0, r0
     348:	00000000 	andeq	r0, r0, r0
     34c:	014c0000 	mrseq	r0, (UNDEF: 76)
     350:	01600000 	cmneq	r0, r0
     354:	00020000 	andeq	r0, r2, r0
     358:	01809f30 	orreq	r9, r0, r0, lsr pc
     35c:	01880000 	orreq	r0, r8, r0
     360:	00010000 	andeq	r0, r1, r0
     364:	0001905c 	andeq	r9, r1, ip, asr r0
     368:	00019800 	andeq	r9, r1, r0, lsl #16
     36c:	30000200 	andcc	r0, r0, r0, lsl #4
     370:	0000009f 	muleq	r0, pc, r0	; <UNPREDICTABLE>
	...
     37c:	00002000 	andeq	r2, r0, r0
     380:	50000100 	andpl	r0, r0, r0, lsl #2
     384:	00000024 	andeq	r0, r0, r4, lsr #32
     388:	00000028 	andeq	r0, r0, r8, lsr #32
     38c:	00500001 	subseq	r0, r0, r1
	...
     398:	10000000 	andne	r0, r0, r0
     39c:	01000000 	mrseq	r0, (UNDEF: 0)
     3a0:	00105000 	andseq	r5, r0, r0
     3a4:	00140000 	andseq	r0, r4, r0
     3a8:	00010000 	andeq	r0, r1, r0
     3ac:	00001453 	andeq	r1, r0, r3, asr r4
     3b0:	00002400 	andeq	r2, r0, r0, lsl #8
     3b4:	73000300 	movwvc	r0, #768	; 0x300
     3b8:	00249f7f 	eoreq	r9, r4, pc, ror pc
     3bc:	00280000 	eoreq	r0, r8, r0
     3c0:	00010000 	andeq	r0, r1, r0
     3c4:	00000050 	andeq	r0, r0, r0, asr r0
     3c8:	00000000 	andeq	r0, r0, r0
     3cc:	00002c00 	andeq	r2, r0, r0, lsl #24
     3d0:	00003400 	andeq	r3, r0, r0, lsl #8
     3d4:	50000100 	andpl	r0, r0, r0, lsl #2
     3d8:	00000034 	andeq	r0, r0, r4, lsr r0
     3dc:	00000048 	andeq	r0, r0, r8, asr #32
     3e0:	00520001 	subseq	r0, r2, r1
     3e4:	00000000 	andeq	r0, r0, r0
     3e8:	2c000000 	stccs	0, cr0, [r0], {-0}
     3ec:	30000000 	andcc	r0, r0, r0
     3f0:	01000000 	mrseq	r0, (UNDEF: 0)
     3f4:	00305100 	eorseq	r5, r0, r0, lsl #2
     3f8:	00340000 	eorseq	r0, r4, r0
     3fc:	00030000 	andeq	r0, r3, r0
     400:	009f0171 	addseq	r0, pc, r1, ror r1	; <UNPREDICTABLE>
     404:	00000000 	andeq	r0, r0, r0
     408:	48000000 	stmdami	r0, {}	; <UNPREDICTABLE>
     40c:	54000000 	strpl	r0, [r0], #-0
     410:	01000000 	mrseq	r0, (UNDEF: 0)
     414:	00645200 	rsbeq	r5, r4, r0, lsl #4
     418:	00680000 	rsbeq	r0, r8, r0
     41c:	00030000 	andeq	r0, r3, r0
     420:	689f7f72 	ldmvs	pc, {r1, r4, r5, r6, r8, r9, sl, fp, ip, sp, lr}	; <UNPREDICTABLE>
     424:	70000000 	andvc	r0, r0, r0
     428:	01000000 	mrseq	r0, (UNDEF: 0)
     42c:	00005200 	andeq	r5, r0, r0, lsl #4
     430:	00000000 	andeq	r0, r0, r0
     434:	004c0000 	subeq	r0, ip, r0
     438:	00540000 	subseq	r0, r4, r0
     43c:	00010000 	andeq	r0, r1, r0
     440:	00000050 	andeq	r0, r0, r0, asr r0
     444:	00000000 	andeq	r0, r0, r0
     448:	00007000 	andeq	r7, r0, r0
     44c:	00008400 	andeq	r8, r0, r0, lsl #8
     450:	50000100 	andpl	r0, r0, r0, lsl #2
     454:	00000084 	andeq	r0, r0, r4, lsl #1
     458:	00000088 	andeq	r0, r0, r8, lsl #1
     45c:	88530001 	ldmdahi	r3, {r0}^
     460:	90000000 	andls	r0, r0, r0
     464:	03000000 	movweq	r0, #0
     468:	9f7f7300 	svcls	0x007f7300
     46c:	00000090 	muleq	r0, r0, r0
     470:	00000098 	muleq	r0, r8, r0
     474:	9c530001 	mrrcls	0, 0, r0, r3, cr1
     478:	b0000000 	andlt	r0, r0, r0
     47c:	01000000 	mrseq	r0, (UNDEF: 0)
     480:	00005200 	andeq	r5, r0, r0, lsl #4
     484:	00000000 	andeq	r0, r0, r0
     488:	00700000 	rsbseq	r0, r0, r0
     48c:	009c0000 	addseq	r0, ip, r0
     490:	00010000 	andeq	r0, r1, r0
     494:	00000051 	andeq	r0, r0, r1, asr r0
     498:	00000000 	andeq	r0, r0, r0
     49c:	0000b000 	andeq	fp, r0, r0
     4a0:	0000b800 	andeq	fp, r0, r0, lsl #16
     4a4:	7d000200 	sfmvc	f0, 4, [r0, #-0]
     4a8:	0000b800 	andeq	fp, r0, r0, lsl #16
     4ac:	00011800 	andeq	r1, r1, r0, lsl #16
     4b0:	7d000200 	sfmvc	f0, 4, [r0, #-0]
     4b4:	00000004 	andeq	r0, r0, r4
     4b8:	00000000 	andeq	r0, r0, r0
     4bc:	0000b000 	andeq	fp, r0, r0
     4c0:	0000d000 	andeq	sp, r0, r0
     4c4:	50000100 	andpl	r0, r0, r0, lsl #2
     4c8:	000000d0 	ldrdeq	r0, [r0], -r0	; <UNPREDICTABLE>
     4cc:	000000d4 	ldrdeq	r0, [r0], -r4
     4d0:	d4530001 	ldrble	r0, [r3], #-1
     4d4:	dc000000 	stcle	0, cr0, [r0], {-0}
     4d8:	03000000 	movweq	r0, #0
     4dc:	9f7f7300 	svcls	0x007f7300
     4e0:	000000dc 	ldrdeq	r0, [r0], -ip
     4e4:	000000e4 	andeq	r0, r0, r4, ror #1
     4e8:	ec530001 	mrrc	0, 0, r0, r3, cr1
     4ec:	f0000000 			; <UNDEFINED> instruction: 0xf0000000
     4f0:	01000000 	mrseq	r0, (UNDEF: 0)
     4f4:	00f05300 	rscseq	r5, r0, r0, lsl #6
     4f8:	01000000 	mrseq	r0, (UNDEF: 0)
     4fc:	00010000 	andeq	r0, r1, r0
     500:	0001005c 	andeq	r0, r1, ip, asr r0
     504:	00011000 	andeq	r1, r1, r0
     508:	53000100 	movwpl	r0, #256	; 0x100
	...
     514:	000000b0 	strheq	r0, [r0], -r0	; <UNPREDICTABLE>
     518:	000000e8 	andeq	r0, r0, r8, ror #1
     51c:	e8510001 	ldmda	r1, {r0}^
     520:	ec000000 	stc	0, cr0, [r0], {-0}
     524:	03000000 	movweq	r0, #0
     528:	9f017100 	svcls	0x00017100
	...
     534:	000000b0 	strheq	r0, [r0], -r0	; <UNPREDICTABLE>
     538:	00000104 	andeq	r0, r0, r4, lsl #2
     53c:	04520001 	ldrbeq	r0, [r2], #-1
     540:	08000001 	stmdaeq	r0, {r0}
     544:	03000001 	movweq	r0, #1
     548:	9f7f7200 	svcls	0x007f7200
     54c:	00000108 	andeq	r0, r0, r8, lsl #2
     550:	00000118 	andeq	r0, r0, r8, lsl r1
     554:	00520001 	subseq	r0, r2, r1
     558:	00000000 	andeq	r0, r0, r0
     55c:	18000000 	stmdane	r0, {}	; <UNPREDICTABLE>
     560:	34000001 	strcc	r0, [r0], #-1
     564:	01000001 	tsteq	r0, r1
     568:	01385000 	teqeq	r8, r0
     56c:	01440000 	mrseq	r0, (UNDEF: 68)
     570:	00010000 	andeq	r0, r1, r0
     574:	00000050 	andeq	r0, r0, r0, asr r0
     578:	00000000 	andeq	r0, r0, r0
     57c:	00014800 	andeq	r4, r1, r0, lsl #16
     580:	00015000 	andeq	r5, r1, r0
     584:	50000100 	andpl	r0, r0, r0, lsl #2
     588:	00000158 	andeq	r0, r0, r8, asr r1
     58c:	00000178 	andeq	r0, r0, r8, ror r1
     590:	01700003 	cmneq	r0, r3
     594:	0001b89f 	muleq	r1, pc, r8	; <UNPREDICTABLE>
     598:	0001bc00 	andeq	fp, r1, r0, lsl #24
     59c:	70000300 	andvc	r0, r0, r0, lsl #6
     5a0:	00009f01 	andeq	r9, r0, r1, lsl #30
     5a4:	00000000 	andeq	r0, r0, r0
     5a8:	01480000 	mrseq	r0, (UNDEF: 72)
     5ac:	015c0000 	cmpeq	ip, r0
     5b0:	00010000 	andeq	r0, r1, r0
     5b4:	00015c51 	andeq	r5, r1, r1, asr ip
     5b8:	00017800 	andeq	r7, r1, r0, lsl #16
     5bc:	71000300 	mrsvc	r0, LR_irq
     5c0:	01b89f01 			; <UNDEFINED> instruction: 0x01b89f01
     5c4:	01c00000 	biceq	r0, r0, r0
     5c8:	00030000 	andeq	r0, r3, r0
     5cc:	009f0171 	addseq	r0, pc, r1, ror r1	; <UNPREDICTABLE>
     5d0:	00000000 	andeq	r0, r0, r0
     5d4:	48000000 	stmdami	r0, {}	; <UNPREDICTABLE>
     5d8:	70000001 	andvc	r0, r0, r1
     5dc:	01000001 	tsteq	r0, r1
     5e0:	00005200 	andeq	r5, r0, r0, lsl #4
     5e4:	00000000 	andeq	r0, r0, r0
     5e8:	01580000 	cmpeq	r8, r0
     5ec:	016c0000 	cmneq	ip, r0
     5f0:	00010000 	andeq	r0, r1, r0
     5f4:	00017c53 	andeq	r7, r1, r3, asr ip
     5f8:	00019000 	andeq	r9, r1, r0
     5fc:	53000100 	movwpl	r0, #256	; 0x100
     600:	000001b0 			; <UNDEFINED> instruction: 0x000001b0
     604:	000001b8 			; <UNDEFINED> instruction: 0x000001b8
     608:	00530001 	subseq	r0, r3, r1
     60c:	00000000 	andeq	r0, r0, r0
     610:	5c000000 	stcpl	0, cr0, [r0], {-0}
     614:	78000001 	stmdavc	r0, {r0}
     618:	01000001 	tsteq	r0, r1
     61c:	01805c00 	orreq	r5, r0, r0, lsl #24
     620:	01900000 	orrseq	r0, r0, r0
     624:	00010000 	andeq	r0, r1, r0
     628:	0001b05c 	andeq	fp, r1, ip, asr r0
     62c:	0001c000 	andeq	ip, r1, r0
     630:	5c000100 	stfpls	f0, [r0], {-0}
	...
     63c:	000001c0 	andeq	r0, r0, r0, asr #3
     640:	000001c4 	andeq	r0, r0, r4, asr #3
     644:	007d0002 	rsbseq	r0, sp, r2
     648:	000001c4 	andeq	r0, r0, r4, asr #3
     64c:	000001dc 	ldrdeq	r0, [r0], -ip
     650:	207d0002 	rsbscs	r0, sp, r2
     654:	000001dc 	ldrdeq	r0, [r0], -ip
     658:	000002a4 	andeq	r0, r0, r4, lsr #5
     65c:	c87d0003 	ldmdagt	sp!, {r0, r1}^
	...
     668:	0001c000 	andeq	ip, r1, r0
     66c:	0001e400 	andeq	lr, r1, r0, lsl #8
     670:	50000100 	andpl	r0, r0, r0, lsl #2
     674:	000001e4 	andeq	r0, r0, r4, ror #3
     678:	00000218 	andeq	r0, r0, r8, lsl r2
     67c:	18540001 	ldmdane	r4, {r0}^
     680:	1c000002 	stcne	0, cr0, [r0], {2}
     684:	01000002 	tsteq	r0, r2
     688:	02445000 	subeq	r5, r4, #0
     68c:	02940000 	addseq	r0, r4, #0
     690:	00010000 	andeq	r0, r1, r0
     694:	00000050 	andeq	r0, r0, r0, asr r0
     698:	00000000 	andeq	r0, r0, r0
     69c:	0001c000 	andeq	ip, r1, r0
     6a0:	0001e400 	andeq	lr, r1, r0, lsl #8
     6a4:	51000100 	mrspl	r0, (UNDEF: 16)
     6a8:	000001e4 	andeq	r0, r0, r4, ror #3
     6ac:	000002a4 	andeq	r0, r0, r4, lsr #5
     6b0:	00570001 	subseq	r0, r7, r1
     6b4:	00000000 	andeq	r0, r0, r0
     6b8:	c0000000 	andgt	r0, r0, r0
     6bc:	e4000001 	str	r0, [r0], #-1
     6c0:	01000001 	tsteq	r0, r1
     6c4:	01e45200 	mvneq	r5, r0, lsl #4
     6c8:	02a40000 	adceq	r0, r4, #0
     6cc:	00010000 	andeq	r0, r1, r0
     6d0:	00000055 	andeq	r0, r0, r5, asr r0
     6d4:	00000000 	andeq	r0, r0, r0
     6d8:	0001c000 	andeq	ip, r1, r0
     6dc:	00020000 	andeq	r0, r2, r0
     6e0:	30000200 	andcc	r0, r0, r0, lsl #4
     6e4:	0002009f 	muleq	r2, pc, r0	; <UNPREDICTABLE>
     6e8:	00020c00 	andeq	r0, r2, r0, lsl #24
     6ec:	31000200 	mrscc	r0, R8_usr
     6f0:	00020c9f 	muleq	r2, pc, ip	; <UNPREDICTABLE>
     6f4:	00026000 	andeq	r6, r2, r0
     6f8:	59000100 	stmdbpl	r0, {r8}
	...
     704:	0000020c 	andeq	r0, r0, ip, lsl #4
     708:	00000218 	andeq	r0, r0, r8, lsl r2
     70c:	9f300002 	svcls	0x00300002
     710:	00000218 	andeq	r0, r0, r8, lsl r2
     714:	0000021c 	andeq	r0, r0, ip, lsl r2
     718:	4c530001 	mrrcmi	0, 0, r0, r3, cr1
     71c:	5c000002 	stcpl	0, cr0, [r0], {2}
     720:	01000002 	tsteq	r0, r2
     724:	02645300 	rsbeq	r5, r4, #0
     728:	02940000 	addseq	r0, r4, #0
     72c:	00010000 	andeq	r0, r1, r0
     730:	00000056 	andeq	r0, r0, r6, asr r0
     734:	00000000 	andeq	r0, r0, r0
     738:	00025800 	andeq	r5, r2, r0, lsl #16
     73c:	00026400 	andeq	r6, r2, r0, lsl #8
     740:	30000200 	andcc	r0, r0, r0, lsl #4
     744:	0002649f 	muleq	r2, pc, r4	; <UNPREDICTABLE>
     748:	00027000 	andeq	r7, r2, r0
     74c:	59000100 	stmdbpl	r0, {r8}
	...
     758:	000002a4 	andeq	r0, r0, r4, lsr #5
     75c:	000002a8 	andeq	r0, r0, r8, lsr #5
     760:	007d0002 	rsbseq	r0, sp, r2
     764:	000002a8 	andeq	r0, r0, r8, lsr #5
     768:	000002c0 	andeq	r0, r0, r0, asr #5
     76c:	1c7d0002 	ldclne	0, cr0, [sp], #-8
     770:	000002c0 	andeq	r0, r0, r0, asr #5
     774:	00000360 	andeq	r0, r0, r0, ror #6
     778:	c87d0003 	ldmdagt	sp!, {r0, r1}^
	...
     784:	0002a400 	andeq	sl, r2, r0, lsl #8
     788:	0002d000 	andeq	sp, r2, r0
     78c:	50000100 	andpl	r0, r0, r0, lsl #2
     790:	000002d0 	ldrdeq	r0, [r0], -r0	; <UNPREDICTABLE>
     794:	000002f0 	strdeq	r0, [r0], -r0	; <UNPREDICTABLE>
     798:	f0540001 			; <UNDEFINED> instruction: 0xf0540001
     79c:	f4000002 	vst4.8	{d0-d3}, [r0], r2
     7a0:	01000002 	tsteq	r0, r2
     7a4:	031c5000 	tsteq	ip, #0
     7a8:	03500000 	cmpeq	r0, #0
     7ac:	00010000 	andeq	r0, r1, r0
     7b0:	00000050 	andeq	r0, r0, r0, asr r0
     7b4:	00000000 	andeq	r0, r0, r0
     7b8:	0002a400 	andeq	sl, r2, r0, lsl #8
     7bc:	0002d000 	andeq	sp, r2, r0
     7c0:	51000100 	mrspl	r0, (UNDEF: 16)
     7c4:	000002d0 	ldrdeq	r0, [r0], -r0	; <UNPREDICTABLE>
     7c8:	00000360 	andeq	r0, r0, r0, ror #6
     7cc:	00570001 	subseq	r0, r7, r1
     7d0:	00000000 	andeq	r0, r0, r0
     7d4:	a4000000 	strge	r0, [r0], #-0
     7d8:	d0000002 	andle	r0, r0, r2
     7dc:	01000002 	tsteq	r0, r2
     7e0:	02d05200 	sbcseq	r5, r0, #0
     7e4:	03600000 	cmneq	r0, #0
     7e8:	00010000 	andeq	r0, r1, r0
     7ec:	00000055 	andeq	r0, r0, r5, asr r0
     7f0:	00000000 	andeq	r0, r0, r0
     7f4:	0002f000 	andeq	pc, r2, r0
     7f8:	0002f400 	andeq	pc, r2, r0, lsl #8
     7fc:	53000100 	movwpl	r0, #256	; 0x100
     800:	00000324 	andeq	r0, r0, r4, lsr #6
     804:	00000328 	andeq	r0, r0, r8, lsr #6
     808:	28530001 	ldmdacs	r3, {r0}^
     80c:	34000003 	strcc	r0, [r0], #-3
     810:	01000003 	tsteq	r0, r3
     814:	00005800 	andeq	r5, r0, r0, lsl #16
     818:	00000000 	andeq	r0, r0, r0
     81c:	03280000 	teqeq	r8, #0
     820:	03340000 	teqeq	r4, #0
     824:	00020000 	andeq	r0, r2, r0
     828:	00009f30 	andeq	r9, r0, r0, lsr pc
     82c:	00000000 	andeq	r0, r0, r0
     830:	03600000 	cmneq	r0, #0
     834:	03640000 	cmneq	r4, #0
     838:	00020000 	andeq	r0, r2, r0
     83c:	0364007d 	cmneq	r4, #125	; 0x7d
     840:	037c0000 	cmneq	ip, #0
     844:	00020000 	andeq	r0, r2, r0
     848:	037c147d 	cmneq	ip, #2097152000	; 0x7d000000
     84c:	03bc0000 			; <UNDEFINED> instruction: 0x03bc0000
     850:	00020000 	andeq	r0, r2, r0
     854:	0000307d 	andeq	r3, r0, sp, ror r0
     858:	00000000 	andeq	r0, r0, r0
     85c:	03600000 	cmneq	r0, #0
     860:	03880000 	orreq	r0, r8, #0
     864:	00010000 	andeq	r0, r1, r0
     868:	00038850 	andeq	r8, r3, r0, asr r8
     86c:	0003bc00 	andeq	fp, r3, r0, lsl #24
     870:	57000100 	strpl	r0, [r0, -r0, lsl #2]
	...
     87c:	00000360 	andeq	r0, r0, r0, ror #6
     880:	00000388 	andeq	r0, r0, r8, lsl #7
     884:	00510001 	subseq	r0, r1, r1
     888:	00000000 	andeq	r0, r0, r0
     88c:	60000000 	andvs	r0, r0, r0
     890:	88000003 	stmdahi	r0, {r0, r1}
     894:	01000003 	tsteq	r0, r3
     898:	03885200 	orreq	r5, r8, #0
     89c:	03bc0000 			; <UNDEFINED> instruction: 0x03bc0000
     8a0:	00010000 	andeq	r0, r1, r0
     8a4:	00000056 	andeq	r0, r0, r6, asr r0
     8a8:	00000000 	andeq	r0, r0, r0
     8ac:	0003bc00 	andeq	fp, r3, r0, lsl #24
     8b0:	0003c000 	andeq	ip, r3, r0
     8b4:	7d000200 	sfmvc	f0, 4, [r0, #-0]
     8b8:	0003c000 	andeq	ip, r3, r0
     8bc:	0003c800 	andeq	ip, r3, r0, lsl #16
     8c0:	7d000200 	sfmvc	f0, 4, [r0, #-0]
     8c4:	0003c810 	andeq	ip, r3, r0, lsl r8
     8c8:	0003cc00 	andeq	ip, r3, r0, lsl #24
     8cc:	7d000200 	sfmvc	f0, 4, [r0, #-0]
     8d0:	0003cc30 	andeq	ip, r3, r0, lsr ip
     8d4:	0006ac00 	andeq	sl, r6, r0, lsl #24
     8d8:	7d000300 	stcvc	3, cr0, [r0, #-0]
     8dc:	000000c8 	andeq	r0, r0, r8, asr #1
     8e0:	00000000 	andeq	r0, r0, r0
     8e4:	03bc0000 			; <UNDEFINED> instruction: 0x03bc0000
     8e8:	03e00000 	mvneq	r0, #0
     8ec:	00020000 	andeq	r0, r2, r0
     8f0:	03f07091 	mvnseq	r7, #145	; 0x91
     8f4:	04000000 	streq	r0, [r0], #-0
     8f8:	00020000 	andeq	r0, r2, r0
     8fc:	04007091 	streq	r7, [r0], #-145	; 0x91
     900:	041c0000 	ldreq	r0, [ip], #-0
     904:	00020000 	andeq	r0, r2, r0
     908:	041c4891 	ldreq	r4, [ip], #-2193	; 0x891
     90c:	04380000 	ldrteq	r0, [r8], #-0
     910:	00010000 	andeq	r0, r1, r0
     914:	00043854 	andeq	r3, r4, r4, asr r8
     918:	00045000 	andeq	r5, r4, r0
     91c:	74000300 	strvc	r0, [r0], #-768	; 0x300
     920:	04589f01 	ldrbeq	r9, [r8], #-3841	; 0xf01
     924:	06ac0000 	strteq	r0, [ip], r0
     928:	00010000 	andeq	r0, r1, r0
     92c:	00000054 	andeq	r0, r0, r4, asr r0
     930:	00000000 	andeq	r0, r0, r0
     934:	0003f000 	andeq	pc, r3, r0
     938:	00041c00 	andeq	r1, r4, r0, lsl #24
     93c:	03000600 	movweq	r0, #1536	; 0x600
     940:	f0003238 			; <UNDEFINED> instruction: 0xf0003238
     944:	00041c9f 	muleq	r4, pc, ip	; <UNPREDICTABLE>
     948:	00042c00 	andeq	r2, r4, r0, lsl #24
     94c:	55000100 	strpl	r0, [r0, #-256]	; 0x100
     950:	000004cc 	andeq	r0, r0, ip, asr #9
     954:	000004d8 	ldrdeq	r0, [r0], -r8
     958:	44550001 	ldrbmi	r0, [r5], #-1
     95c:	48000005 	stmdami	r0, {r0, r2}
     960:	01000005 	tsteq	r0, r5
     964:	05945500 	ldreq	r5, [r4, #1280]	; 0x500
     968:	05980000 	ldreq	r0, [r8]
     96c:	00010000 	andeq	r0, r1, r0
     970:	00060455 	andeq	r0, r6, r5, asr r4
     974:	00060800 	andeq	r0, r6, r0, lsl #16
     978:	55000100 	strpl	r0, [r0, #-256]	; 0x100
     97c:	00000624 	andeq	r0, r0, r4, lsr #12
     980:	00000630 	andeq	r0, r0, r0, lsr r6
     984:	01750003 	cmneq	r5, r3
     988:	0006309f 	muleq	r6, pc, r0	; <UNPREDICTABLE>
     98c:	00063400 	andeq	r3, r6, r0, lsl #8
     990:	55000100 	strpl	r0, [r0, #-256]	; 0x100
     994:	000006a0 	andeq	r0, r0, r0, lsr #13
     998:	000006ac 	andeq	r0, r0, ip, lsr #13
     99c:	00550001 	subseq	r0, r5, r1
     9a0:	00000000 	andeq	r0, r0, r0
     9a4:	5c000000 	stcpl	0, cr0, [r0], {-0}
     9a8:	98000005 	stmdals	r0, {r0, r2}
     9ac:	04000005 	streq	r0, [r0], #-5
     9b0:	7fa49100 	svcvc	0x00a49100
     9b4:	00000006 	andeq	r0, r0, r6
     9b8:	00000000 	andeq	r0, r0, r0
     9bc:	00045400 	andeq	r5, r4, r0, lsl #8
     9c0:	0004c000 	andeq	ip, r4, r0
     9c4:	57000100 	strpl	r0, [r0, -r0, lsl #2]
     9c8:	000004d8 	ldrdeq	r0, [r0], -r8
     9cc:	000006ac 	andeq	r0, r0, ip, lsr #13
     9d0:	00570001 	subseq	r0, r7, r1
     9d4:	00000000 	andeq	r0, r0, r0
     9d8:	bc000000 	stclt	0, cr0, [r0], {-0}
     9dc:	e0000003 	and	r0, r0, r3
     9e0:	02000003 	andeq	r0, r0, #3
     9e4:	f09f3000 			; <UNDEFINED> instruction: 0xf09f3000
     9e8:	1c000003 	stcne	0, cr0, [r0], {3}
     9ec:	02000004 	andeq	r0, r0, #4
     9f0:	149f3000 	ldrne	r3, [pc], #0	; 9f8 <__dram_freq_start+0x9f8>
     9f4:	2c000005 	stccs	0, cr0, [r0], {5}
     9f8:	01000005 	tsteq	r0, r5
     9fc:	052c5a00 	streq	r5, [ip, #-2560]!	; 0xa00
     a00:	05480000 	strbeq	r0, [r8, #-0]
     a04:	00010000 	andeq	r0, r1, r0
     a08:	0005d450 	andeq	sp, r5, r0, asr r4
     a0c:	0005ec00 	andeq	lr, r5, r0, lsl #24
     a10:	5a000100 	bpl	e18 <__dram_freq_start+0xe18>
     a14:	000005ec 	andeq	r0, r0, ip, ror #11
     a18:	00000608 	andeq	r0, r0, r8, lsl #12
     a1c:	70500001 	subsvc	r0, r0, r1
     a20:	88000006 	stmdahi	r0, {r1, r2}
     a24:	01000006 	tsteq	r0, r6
     a28:	06885a00 	streq	r5, [r8], r0, lsl #20
     a2c:	06ac0000 	strteq	r0, [ip], r0
     a30:	00010000 	andeq	r0, r1, r0
     a34:	00000050 	andeq	r0, r0, r0, asr r0
     a38:	00000000 	andeq	r0, r0, r0
     a3c:	0004f400 	andeq	pc, r4, r0, lsl #8
     a40:	00054800 	andeq	r4, r5, r0, lsl #16
     a44:	56000100 	strpl	r0, [r0], -r0, lsl #2
	...
     a50:	000004f4 	strdeq	r0, [r0], -r4
     a54:	00000504 	andeq	r0, r0, r4, lsl #10
     a58:	04560001 	ldrbeq	r0, [r6], #-1
     a5c:	08000005 	stmdaeq	r0, {r0, r2}
     a60:	01000005 	tsteq	r0, r5
     a64:	05085a00 	streq	r5, [r8, #-2560]	; 0xa00
     a68:	05140000 	ldreq	r0, [r4, #-0]
     a6c:	00030000 	andeq	r0, r3, r0
     a70:	009f7f7a 	addseq	r7, pc, sl, ror pc	; <UNPREDICTABLE>
     a74:	00000000 	andeq	r0, r0, r0
     a78:	2c000000 	stccs	0, cr0, [r0], {-0}
     a7c:	30000005 	andcc	r0, r0, r5
     a80:	01000005 	tsteq	r0, r5
     a84:	00005600 	andeq	r5, r0, r0, lsl #12
     a88:	00000000 	andeq	r0, r0, r0
     a8c:	052c0000 	streq	r0, [ip, #-0]!
     a90:	05300000 	ldreq	r0, [r0, #-0]!
     a94:	00010000 	andeq	r0, r1, r0
     a98:	00053055 	andeq	r3, r5, r5, asr r0
     a9c:	00054800 	andeq	r4, r5, r0, lsl #16
     aa0:	51000100 	mrspl	r0, (UNDEF: 16)
	...
     aac:	0000052c 	andeq	r0, r0, ip, lsr #10
     ab0:	00000544 	andeq	r0, r0, r4, asr #10
     ab4:	00550001 	subseq	r0, r5, r1
     ab8:	00000000 	andeq	r0, r0, r0
     abc:	5c000000 	stcpl	0, cr0, [r0], {-0}
     ac0:	60000005 	andvs	r0, r0, r5
     ac4:	04000005 	streq	r0, [r0], #-5
     ac8:	7fa49100 	svcvc	0x00a49100
     acc:	00000006 	andeq	r0, r0, r6
     ad0:	00000000 	andeq	r0, r0, r0
     ad4:	00055c00 	andeq	r5, r5, r0, lsl #24
     ad8:	00056000 	andeq	r6, r5, r0
     adc:	55000100 	strpl	r0, [r0, #-256]	; 0x100
     ae0:	00000560 	andeq	r0, r0, r0, ror #10
     ae4:	00000598 	muleq	r0, r8, r5
     ae8:	00510001 	subseq	r0, r1, r1
     aec:	00000000 	andeq	r0, r0, r0
     af0:	5c000000 	stcpl	0, cr0, [r0], {-0}
     af4:	94000005 	strls	r0, [r0], #-5
     af8:	01000005 	tsteq	r0, r5
     afc:	00005500 	andeq	r5, r0, r0, lsl #10
     b00:	00000000 	andeq	r0, r0, r0
     b04:	05700000 	ldrbeq	r0, [r0, #-0]!
     b08:	05800000 	streq	r0, [r0]
     b0c:	00040000 	andeq	r0, r4, r0
     b10:	067fa491 			; <UNDEFINED> instruction: 0x067fa491
     b14:	00000580 	andeq	r0, r0, r0, lsl #11
     b18:	00000584 	andeq	r0, r0, r4, lsl #11
     b1c:	84530001 	ldrbhi	r0, [r3], #-1
     b20:	90000005 	andls	r0, r0, r5
     b24:	03000005 	movweq	r0, #5
     b28:	9f7f7300 	svcls	0x007f7300
	...
     b34:	000005b4 			; <UNDEFINED> instruction: 0x000005b4
     b38:	00000608 	andeq	r0, r0, r8, lsl #12
     b3c:	00560001 	subseq	r0, r6, r1
     b40:	00000000 	andeq	r0, r0, r0
     b44:	b4000000 	strlt	r0, [r0], #-0
     b48:	c4000005 	strgt	r0, [r0], #-5
     b4c:	01000005 	tsteq	r0, r5
     b50:	05c45600 	strbeq	r5, [r4, #1536]	; 0x600
     b54:	05c80000 	strbeq	r0, [r8]
     b58:	00010000 	andeq	r0, r1, r0
     b5c:	0005c85a 	andeq	ip, r5, sl, asr r8
     b60:	0005d400 	andeq	sp, r5, r0, lsl #8
     b64:	7a000300 	bvc	176c <__dram_freq_start+0x176c>
     b68:	00009f7f 	andeq	r9, r0, pc, ror pc
     b6c:	00000000 	andeq	r0, r0, r0
     b70:	05ec0000 	strbeq	r0, [ip, #0]!
     b74:	05f00000 	ldrbeq	r0, [r0, #0]!
     b78:	00010000 	andeq	r0, r1, r0
     b7c:	00000056 	andeq	r0, r0, r6, asr r0
     b80:	00000000 	andeq	r0, r0, r0
     b84:	0005ec00 	andeq	lr, r5, r0, lsl #24
     b88:	0005f000 	andeq	pc, r5, r0
     b8c:	55000100 	strpl	r0, [r0, #-256]	; 0x100
     b90:	000005f0 	strdeq	r0, [r0], -r0	; <UNPREDICTABLE>
     b94:	00000608 	andeq	r0, r0, r8, lsl #12
     b98:	00510001 	subseq	r0, r1, r1
     b9c:	00000000 	andeq	r0, r0, r0
     ba0:	ec000000 	stc	0, cr0, [r0], {-0}
     ba4:	04000005 	streq	r0, [r0], #-5
     ba8:	01000006 	tsteq	r0, r6
     bac:	00005500 	andeq	r5, r0, r0, lsl #10
     bb0:	00000000 	andeq	r0, r0, r0
     bb4:	06500000 	ldrbeq	r0, [r0], -r0
     bb8:	06600000 	strbteq	r0, [r0], -r0
     bbc:	00010000 	andeq	r0, r1, r0
     bc0:	00066056 	andeq	r6, r6, r6, asr r0
     bc4:	00066400 	andeq	r6, r6, r0, lsl #8
     bc8:	5a000100 	bpl	fd0 <__dram_freq_start+0xfd0>
     bcc:	00000664 	andeq	r0, r0, r4, ror #12
     bd0:	00000670 	andeq	r0, r0, r0, ror r6
     bd4:	7f7a0003 	svcvc	0x007a0003
     bd8:	0000009f 	muleq	r0, pc, r0	; <UNPREDICTABLE>
     bdc:	00000000 	andeq	r0, r0, r0
     be0:	00068800 	andeq	r8, r6, r0, lsl #16
     be4:	00068c00 	andeq	r8, r6, r0, lsl #24
     be8:	56000100 	strpl	r0, [r0], -r0, lsl #2
	...
     bf4:	00000688 	andeq	r0, r0, r8, lsl #13
     bf8:	0000068c 	andeq	r0, r0, ip, lsl #13
     bfc:	8c550001 	mrrchi	0, 0, r0, r5, cr1
     c00:	ac000006 	stcge	0, cr0, [r0], {6}
     c04:	01000006 	tsteq	r0, r6
     c08:	00005100 	andeq	r5, r0, r0, lsl #2
     c0c:	00000000 	andeq	r0, r0, r0
     c10:	06880000 	streq	r0, [r8], r0
     c14:	06a00000 	strteq	r0, [r0], r0
     c18:	00010000 	andeq	r0, r1, r0
     c1c:	00000055 	andeq	r0, r0, r5, asr r0
     c20:	00000000 	andeq	r0, r0, r0
     c24:	0006ac00 	andeq	sl, r6, r0, lsl #24
     c28:	0006b000 	andeq	fp, r6, r0
     c2c:	7d000200 	sfmvc	f0, 4, [r0, #-0]
     c30:	0006b000 	andeq	fp, r6, r0
     c34:	0006b400 	andeq	fp, r6, r0, lsl #8
     c38:	7d000200 	sfmvc	f0, 4, [r0, #-0]
     c3c:	0006b410 	andeq	fp, r6, r0, lsl r4
     c40:	0006b800 	andeq	fp, r6, r0, lsl #16
     c44:	7d000200 	sfmvc	f0, 4, [r0, #-0]
     c48:	0006b830 	andeq	fp, r6, r0, lsr r8
     c4c:	00098000 	andeq	r8, r9, r0
     c50:	7d000300 	stcvc	3, cr0, [r0, #-0]
     c54:	000000c8 	andeq	r0, r0, r8, asr #1
     c58:	00000000 	andeq	r0, r0, r0
     c5c:	06ac0000 	strteq	r0, [ip], r0
     c60:	06c40000 	strbeq	r0, [r4], r0
     c64:	00020000 	andeq	r0, r2, r0
     c68:	06c47091 			; <UNDEFINED> instruction: 0x06c47091
     c6c:	06e80000 	strbteq	r0, [r8], r0
     c70:	00020000 	andeq	r0, r2, r0
     c74:	06e84891 	usateq	r4, #8, r1, lsl #17
     c78:	07040000 	streq	r0, [r4, -r0]
     c7c:	00010000 	andeq	r0, r1, r0
     c80:	00070454 	andeq	r0, r7, r4, asr r4
     c84:	00071c00 	andeq	r1, r7, r0, lsl #24
     c88:	74000300 	strvc	r0, [r0], #-768	; 0x300
     c8c:	07249f01 	streq	r9, [r4, -r1, lsl #30]!
     c90:	09800000 	stmibeq	r0, {}	; <UNPREDICTABLE>
     c94:	00010000 	andeq	r0, r1, r0
     c98:	00000054 	andeq	r0, r0, r4, asr r0
     c9c:	00000000 	andeq	r0, r0, r0
     ca0:	0006ac00 	andeq	sl, r6, r0, lsl #24
     ca4:	0006e800 	andeq	lr, r6, r0, lsl #16
     ca8:	03000600 	movweq	r0, #1536	; 0x600
     cac:	f0003238 			; <UNDEFINED> instruction: 0xf0003238
     cb0:	0006e89f 	muleq	r6, pc, r8	; <UNPREDICTABLE>
     cb4:	0006f800 	andeq	pc, r6, r0, lsl #16
     cb8:	55000100 	strpl	r0, [r0, #-256]	; 0x100
     cbc:	00000798 	muleq	r0, r8, r7
     cc0:	000007b0 			; <UNDEFINED> instruction: 0x000007b0
     cc4:	1c550001 	mrrcne	0, 0, r0, r5, cr1
     cc8:	20000008 	andcs	r0, r0, r8
     ccc:	01000008 	tsteq	r0, r8
     cd0:	086c5500 	stmdaeq	ip!, {r8, sl, ip, lr}^
     cd4:	08700000 	ldmdaeq	r0!, {}^	; <UNPREDICTABLE>
     cd8:	00010000 	andeq	r0, r1, r0
     cdc:	0008dc55 	andeq	sp, r8, r5, asr ip
     ce0:	0008e000 	andeq	lr, r8, r0
     ce4:	55000100 	strpl	r0, [r0, #-256]	; 0x100
     ce8:	000008fc 	strdeq	r0, [r0], -ip
     cec:	00000908 	andeq	r0, r0, r8, lsl #18
     cf0:	01750003 	cmneq	r5, r3
     cf4:	0009089f 	muleq	r9, pc, r8	; <UNPREDICTABLE>
     cf8:	00090c00 	andeq	r0, r9, r0, lsl #24
     cfc:	55000100 	strpl	r0, [r0, #-256]	; 0x100
     d00:	00000978 	andeq	r0, r0, r8, ror r9
     d04:	00000980 	andeq	r0, r0, r0, lsl #19
     d08:	00550001 	subseq	r0, r5, r1
     d0c:	00000000 	andeq	r0, r0, r0
     d10:	34000000 	strcc	r0, [r0], #-0
     d14:	70000008 	andvc	r0, r0, r8
     d18:	04000008 	streq	r0, [r0], #-8
     d1c:	7fa49100 	svcvc	0x00a49100
     d20:	00000006 	andeq	r0, r0, r6
     d24:	00000000 	andeq	r0, r0, r0
     d28:	00072000 	andeq	r2, r7, r0
     d2c:	00078c00 	andeq	r8, r7, r0, lsl #24
     d30:	57000100 	strpl	r0, [r0, -r0, lsl #2]
     d34:	000007b0 			; <UNDEFINED> instruction: 0x000007b0
     d38:	00000980 	andeq	r0, r0, r0, lsl #19
     d3c:	00570001 	subseq	r0, r7, r1
     d40:	00000000 	andeq	r0, r0, r0
     d44:	ac000000 	stcge	0, cr0, [r0], {-0}
     d48:	e8000006 	stmda	r0, {r1, r2}
     d4c:	02000006 	andeq	r0, r0, #6
     d50:	ec9f3000 	ldc	0, cr3, [pc], {0}
     d54:	04000007 	streq	r0, [r0], #-7
     d58:	01000008 	tsteq	r0, r8
     d5c:	08045a00 	stmdaeq	r4, {r9, fp, ip, lr}
     d60:	08200000 	stmdaeq	r0!, {}	; <UNPREDICTABLE>
     d64:	00010000 	andeq	r0, r1, r0
     d68:	0008ac50 	andeq	sl, r8, r0, asr ip
     d6c:	0008c400 	andeq	ip, r8, r0, lsl #8
     d70:	5a000100 	bpl	1178 <__dram_freq_start+0x1178>
     d74:	000008c4 	andeq	r0, r0, r4, asr #17
     d78:	000008e0 	andeq	r0, r0, r0, ror #17
     d7c:	48500001 	ldmdami	r0, {r0}^
     d80:	60000009 	andvs	r0, r0, r9
     d84:	01000009 	tsteq	r0, r9
     d88:	09605a00 	stmdbeq	r0!, {r9, fp, ip, lr}^
     d8c:	09800000 	stmibeq	r0, {}	; <UNPREDICTABLE>
     d90:	00010000 	andeq	r0, r1, r0
     d94:	00000050 	andeq	r0, r0, r0, asr r0
     d98:	00000000 	andeq	r0, r0, r0
     d9c:	0007cc00 	andeq	ip, r7, r0, lsl #24
     da0:	00082000 	andeq	r2, r8, r0
     da4:	56000100 	strpl	r0, [r0], -r0, lsl #2
	...
     db0:	000007cc 	andeq	r0, r0, ip, asr #15
     db4:	000007dc 	ldrdeq	r0, [r0], -ip
     db8:	dc560001 	mrrcle	0, 0, r0, r6, cr1
     dbc:	e0000007 	and	r0, r0, r7
     dc0:	01000007 	tsteq	r0, r7
     dc4:	07e05a00 	strbeq	r5, [r0, r0, lsl #20]!
     dc8:	07ec0000 	strbeq	r0, [ip, r0]!
     dcc:	00030000 	andeq	r0, r3, r0
     dd0:	009f7f7a 	addseq	r7, pc, sl, ror pc	; <UNPREDICTABLE>
     dd4:	00000000 	andeq	r0, r0, r0
     dd8:	04000000 	streq	r0, [r0], #-0
     ddc:	08000008 	stmdaeq	r0, {r3}
     de0:	01000008 	tsteq	r0, r8
     de4:	00005600 	andeq	r5, r0, r0, lsl #12
     de8:	00000000 	andeq	r0, r0, r0
     dec:	08040000 	stmdaeq	r4, {}	; <UNPREDICTABLE>
     df0:	08080000 	stmdaeq	r8, {}	; <UNPREDICTABLE>
     df4:	00010000 	andeq	r0, r1, r0
     df8:	00080855 	andeq	r0, r8, r5, asr r8
     dfc:	00082000 	andeq	r2, r8, r0
     e00:	51000100 	mrspl	r0, (UNDEF: 16)
	...
     e0c:	00000804 	andeq	r0, r0, r4, lsl #16
     e10:	0000081c 	andeq	r0, r0, ip, lsl r8
     e14:	00550001 	subseq	r0, r5, r1
     e18:	00000000 	andeq	r0, r0, r0
     e1c:	34000000 	strcc	r0, [r0], #-0
     e20:	38000008 	stmdacc	r0, {r3}
     e24:	04000008 	streq	r0, [r0], #-8
     e28:	7fa49100 	svcvc	0x00a49100
     e2c:	00000006 	andeq	r0, r0, r6
     e30:	00000000 	andeq	r0, r0, r0
     e34:	00083400 	andeq	r3, r8, r0, lsl #8
     e38:	00083800 	andeq	r3, r8, r0, lsl #16
     e3c:	55000100 	strpl	r0, [r0, #-256]	; 0x100
     e40:	00000838 	andeq	r0, r0, r8, lsr r8
     e44:	00000870 	andeq	r0, r0, r0, ror r8
     e48:	00510001 	subseq	r0, r1, r1
     e4c:	00000000 	andeq	r0, r0, r0
     e50:	34000000 	strcc	r0, [r0], #-0
     e54:	6c000008 	stcvs	0, cr0, [r0], {8}
     e58:	01000008 	tsteq	r0, r8
     e5c:	00005500 	andeq	r5, r0, r0, lsl #10
     e60:	00000000 	andeq	r0, r0, r0
     e64:	08480000 	stmdaeq	r8, {}^	; <UNPREDICTABLE>
     e68:	08580000 	ldmdaeq	r8, {}^	; <UNPREDICTABLE>
     e6c:	00040000 	andeq	r0, r4, r0
     e70:	067fa491 			; <UNDEFINED> instruction: 0x067fa491
     e74:	00000858 	andeq	r0, r0, r8, asr r8
     e78:	0000085c 	andeq	r0, r0, ip, asr r8
     e7c:	5c530001 	mrrcpl	0, 0, r0, r3, cr1
     e80:	68000008 	stmdavs	r0, {r3}
     e84:	03000008 	movweq	r0, #8
     e88:	9f7f7300 	svcls	0x007f7300
	...
     e94:	0000088c 	andeq	r0, r0, ip, lsl #17
     e98:	000008e0 	andeq	r0, r0, r0, ror #17
     e9c:	00560001 	subseq	r0, r6, r1
     ea0:	00000000 	andeq	r0, r0, r0
     ea4:	8c000000 	stchi	0, cr0, [r0], {-0}
     ea8:	9c000008 	stcls	0, cr0, [r0], {8}
     eac:	01000008 	tsteq	r0, r8
     eb0:	089c5600 	ldmeq	ip, {r9, sl, ip, lr}
     eb4:	08a00000 	stmiaeq	r0!, {}	; <UNPREDICTABLE>
     eb8:	00010000 	andeq	r0, r1, r0
     ebc:	0008a05a 	andeq	sl, r8, sl, asr r0
     ec0:	0008ac00 	andeq	sl, r8, r0, lsl #24
     ec4:	7a000300 	bvc	1acc <__dram_freq_start+0x1acc>
     ec8:	00009f7f 	andeq	r9, r0, pc, ror pc
     ecc:	00000000 	andeq	r0, r0, r0
     ed0:	08c40000 	stmiaeq	r4, {}^	; <UNPREDICTABLE>
     ed4:	08c80000 	stmiaeq	r8, {}^	; <UNPREDICTABLE>
     ed8:	00010000 	andeq	r0, r1, r0
     edc:	00000056 	andeq	r0, r0, r6, asr r0
     ee0:	00000000 	andeq	r0, r0, r0
     ee4:	0008c400 	andeq	ip, r8, r0, lsl #8
     ee8:	0008c800 	andeq	ip, r8, r0, lsl #16
     eec:	55000100 	strpl	r0, [r0, #-256]	; 0x100
     ef0:	000008c8 	andeq	r0, r0, r8, asr #17
     ef4:	000008e0 	andeq	r0, r0, r0, ror #17
     ef8:	00510001 	subseq	r0, r1, r1
     efc:	00000000 	andeq	r0, r0, r0
     f00:	c4000000 	strgt	r0, [r0], #-0
     f04:	dc000008 	stcle	0, cr0, [r0], {8}
     f08:	01000008 	tsteq	r0, r8
     f0c:	00005500 	andeq	r5, r0, r0, lsl #10
     f10:	00000000 	andeq	r0, r0, r0
     f14:	09280000 	stmdbeq	r8!, {}	; <UNPREDICTABLE>
     f18:	09380000 	ldmdbeq	r8!, {}	; <UNPREDICTABLE>
     f1c:	00010000 	andeq	r0, r1, r0
     f20:	00093856 	andeq	r3, r9, r6, asr r8
     f24:	00093c00 	andeq	r3, r9, r0, lsl #24
     f28:	5a000100 	bpl	1330 <__dram_freq_start+0x1330>
     f2c:	0000093c 	andeq	r0, r0, ip, lsr r9
     f30:	00000948 	andeq	r0, r0, r8, asr #18
     f34:	7f7a0003 	svcvc	0x007a0003
     f38:	0000009f 	muleq	r0, pc, r0	; <UNPREDICTABLE>
     f3c:	00000000 	andeq	r0, r0, r0
     f40:	00096000 	andeq	r6, r9, r0
     f44:	00096400 	andeq	r6, r9, r0, lsl #8
     f48:	56000100 	strpl	r0, [r0], -r0, lsl #2
	...
     f54:	00000960 	andeq	r0, r0, r0, ror #18
     f58:	00000964 	andeq	r0, r0, r4, ror #18
     f5c:	64550001 	ldrbvs	r0, [r5], #-1
     f60:	80000009 	andhi	r0, r0, r9
     f64:	01000009 	tsteq	r0, r9
     f68:	00005100 	andeq	r5, r0, r0, lsl #2
     f6c:	00000000 	andeq	r0, r0, r0
     f70:	09600000 	stmdbeq	r0!, {}^	; <UNPREDICTABLE>
     f74:	09780000 	ldmdbeq	r8!, {}^	; <UNPREDICTABLE>
     f78:	00010000 	andeq	r0, r1, r0
     f7c:	00000055 	andeq	r0, r0, r5, asr r0
     f80:	00000000 	andeq	r0, r0, r0
     f84:	00000c00 	andeq	r0, r0, r0, lsl #24
     f88:	00005400 	andeq	r5, r0, r0, lsl #8
     f8c:	50000100 	andpl	r0, r0, r0, lsl #2
	...
     f98:	0000000c 	andeq	r0, r0, ip
     f9c:	00000020 	andeq	r0, r0, r0, lsr #32
     fa0:	00510001 	subseq	r0, r1, r1
     fa4:	00000000 	andeq	r0, r0, r0
     fa8:	0c000000 	stceq	0, cr0, [r0], {-0}
     fac:	20000000 	andcs	r0, r0, r0
     fb0:	01000000 	mrseq	r0, (UNDEF: 0)
     fb4:	00205100 	eoreq	r5, r0, r0, lsl #2
     fb8:	00240000 	eoreq	r0, r4, r0
     fbc:	00050000 	andeq	r0, r5, r0
     fc0:	24310071 	ldrtcs	r0, [r1], #-113	; 0x71
     fc4:	0000249f 	muleq	r0, pc, r4	; <UNPREDICTABLE>
     fc8:	00002800 	andeq	r2, r0, r0, lsl #16
     fcc:	51000100 	mrspl	r0, (UNDEF: 16)
     fd0:	00000030 	andeq	r0, r0, r0, lsr r0
     fd4:	00000058 	andeq	r0, r0, r8, asr r0
     fd8:	00510001 	subseq	r0, r1, r1
     fdc:	00000000 	andeq	r0, r0, r0
     fe0:	0c000000 	stceq	0, cr0, [r0], {-0}
     fe4:	30000000 	andcc	r0, r0, r0
     fe8:	02000000 	andeq	r0, r0, #0
     fec:	309f3000 	addscc	r3, pc, r0
     ff0:	40000000 	andmi	r0, r0, r0
     ff4:	01000000 	mrseq	r0, (UNDEF: 0)
     ff8:	00445200 	subeq	r5, r4, r0, lsl #4
     ffc:	00500000 	subseq	r0, r0, r0
    1000:	00010000 	andeq	r0, r1, r0
    1004:	00000052 	andeq	r0, r0, r2, asr r0
    1008:	00000000 	andeq	r0, r0, r0
    100c:	00000c00 	andeq	r0, r0, r0, lsl #24
    1010:	00002000 	andeq	r2, r0, r0
    1014:	30000200 	andcc	r0, r0, r0, lsl #4
    1018:	0000289f 	muleq	r0, pc, r8	; <UNPREDICTABLE>
    101c:	00002c00 	andeq	r2, r0, r0, lsl #24
    1020:	53000100 	movwpl	r0, #256	; 0x100
    1024:	00000030 	andeq	r0, r0, r0, lsr r0
    1028:	00000048 	andeq	r0, r0, r8, asr #32
    102c:	00530001 	subseq	r0, r3, r1
	...
    1038:	08000000 	stmdaeq	r0, {}	; <UNPREDICTABLE>
    103c:	01000000 	mrseq	r0, (UNDEF: 0)
    1040:	00005000 	andeq	r5, r0, r0
	...
    104c:	000c0000 	andeq	r0, ip, r0
    1050:	00020000 	andeq	r0, r2, r0
    1054:	000c9f31 	andeq	r9, ip, r1, lsr pc
    1058:	00140000 	andseq	r0, r4, r0
    105c:	00010000 	andeq	r0, r1, r0
    1060:	00001450 	andeq	r1, r0, r0, asr r4
    1064:	00001800 	andeq	r1, r0, r0, lsl #16
    1068:	70000500 	andvc	r0, r0, r0, lsl #10
    106c:	9f214000 	svcls	0x00214000
    1070:	00000018 	andeq	r0, r0, r8, lsl r0
    1074:	0000001c 	andeq	r0, r0, ip, lsl r0
    1078:	1c500001 	mrrcne	0, 0, r0, r0, cr1	; <UNPREDICTABLE>
    107c:	2c000000 	stccs	0, cr0, [r0], {-0}
    1080:	06000000 	streq	r0, [r0], -r0
    1084:	0f049e00 	svceq	0x00049e00
    1088:	00800000 	addeq	r0, r0, r0
    108c:	00000000 	andeq	r0, r0, r0
    1090:	74000000 	strvc	r0, [r0], #-0
    1094:	7c000000 	stcvc	0, cr0, [r0], {-0}
    1098:	02000000 	andeq	r0, r0, #0
    109c:	7c9f3000 	ldcvc	0, cr3, [pc], {0}
    10a0:	88000000 	stmdahi	r0, {}	; <UNPREDICTABLE>
    10a4:	02000000 	andeq	r0, r0, #0
    10a8:	009f3400 	addseq	r3, pc, r0, lsl #8
    10ac:	00000000 	andeq	r0, r0, r0
    10b0:	88000000 	stmdahi	r0, {}	; <UNPREDICTABLE>
    10b4:	9c000000 	stcls	0, cr0, [r0], {-0}
    10b8:	02000000 	andeq	r0, r0, #0
    10bc:	9c007d00 	stcls	13, cr7, [r0], {-0}
    10c0:	24000000 	strcs	r0, [r0], #-0
    10c4:	02000001 	andeq	r0, r0, #1
    10c8:	00087d00 	andeq	r7, r8, r0, lsl #26
    10cc:	00000000 	andeq	r0, r0, r0
    10d0:	88000000 	stmdahi	r0, {}	; <UNPREDICTABLE>
    10d4:	f0000000 			; <UNDEFINED> instruction: 0xf0000000
    10d8:	01000000 	mrseq	r0, (UNDEF: 0)
    10dc:	00005000 	andeq	r5, r0, r0
    10e0:	00000000 	andeq	r0, r0, r0
    10e4:	00880000 	addeq	r0, r8, r0
    10e8:	01040000 	mrseq	r0, (UNDEF: 4)
    10ec:	00020000 	andeq	r0, r2, r0
    10f0:	00009f30 	andeq	r9, r0, r0, lsr pc
    10f4:	00000000 	andeq	r0, r0, r0
    10f8:	00880000 	addeq	r0, r8, r0
    10fc:	00ec0000 	rsceq	r0, ip, r0
    1100:	00020000 	andeq	r0, r2, r0
    1104:	01049f30 	tsteq	r4, r0, lsr pc
    1108:	01100000 	tsteq	r0, r0
    110c:	00010000 	andeq	r0, r1, r0
    1110:	00000051 	andeq	r0, r0, r1, asr r0
    1114:	00000000 	andeq	r0, r0, r0
    1118:	00008800 	andeq	r8, r0, r0, lsl #16
    111c:	0000a800 	andeq	sl, r0, r0, lsl #16
    1120:	30000200 	andcc	r0, r0, r0, lsl #4
    1124:	0000009f 	muleq	r0, pc, r0	; <UNPREDICTABLE>
    1128:	00000000 	andeq	r0, r0, r0
    112c:	00008800 	andeq	r8, r0, r0, lsl #16
    1130:	0000c000 	andeq	ip, r0, r0
    1134:	30000200 	andcc	r0, r0, r0, lsl #4
    1138:	0000c09f 	muleq	r0, pc, r0	; <UNPREDICTABLE>
    113c:	0000f400 	andeq	pc, r0, r0, lsl #8
    1140:	51000100 	mrspl	r0, (UNDEF: 16)
	...
    114c:	000000a4 	andeq	r0, r0, r4, lsr #1
    1150:	000000c8 	andeq	r0, r0, r8, asr #1
    1154:	00530001 	subseq	r0, r3, r1
    1158:	00000000 	andeq	r0, r0, r0
    115c:	a8000000 	stmdage	r0, {}	; <UNPREDICTABLE>
    1160:	b4000000 	strlt	r0, [r0], #-0
    1164:	01000000 	mrseq	r0, (UNDEF: 0)
    1168:	00005200 	andeq	r5, r0, r0, lsl #4
    116c:	00000000 	andeq	r0, r0, r0
    1170:	00ac0000 	adceq	r0, ip, r0
    1174:	00bc0000 	adcseq	r0, ip, r0
    1178:	00010000 	andeq	r0, r1, r0
    117c:	00000051 	andeq	r0, r0, r1, asr r0
    1180:	00000000 	andeq	r0, r0, r0
    1184:	00012400 	andeq	r2, r1, r0, lsl #8
    1188:	00012800 	andeq	r2, r1, r0, lsl #16
    118c:	7d000200 	sfmvc	f0, 4, [r0, #-0]
    1190:	00012800 	andeq	r2, r1, r0, lsl #16
    1194:	00017c00 	andeq	r7, r1, r0, lsl #24
    1198:	7d000200 	sfmvc	f0, 4, [r0, #-0]
    119c:	00000010 	andeq	r0, r0, r0, lsl r0
    11a0:	00000000 	andeq	r0, r0, r0
    11a4:	00012400 	andeq	r2, r1, r0, lsl #8
    11a8:	00013400 	andeq	r3, r1, r0, lsl #8
    11ac:	50000100 	andpl	r0, r0, r0, lsl #2
    11b0:	00000134 	andeq	r0, r0, r4, lsr r1
    11b4:	00000150 	andeq	r0, r0, r0, asr r1
    11b8:	00550001 	subseq	r0, r5, r1
    11bc:	00000000 	andeq	r0, r0, r0
    11c0:	24000000 	strcs	r0, [r0], #-0
    11c4:	44000001 	strmi	r0, [r0], #-1
    11c8:	02000001 	andeq	r0, r0, #1
    11cc:	449f3000 	ldrmi	r3, [pc], #0	; 11d4 <__dram_freq_start+0x11d4>
    11d0:	50000001 	andpl	r0, r0, r1
    11d4:	06000001 	streq	r0, [r0], -r1
    11d8:	75017000 	strvc	r7, [r1, #-0]
    11dc:	009f1e00 	addseq	r1, pc, r0, lsl #28
    11e0:	00000000 	andeq	r0, r0, r0
    11e4:	24000000 	strcs	r0, [r0], #-0
    11e8:	48000001 	stmdami	r0, {r0}
    11ec:	02000001 	andeq	r0, r0, #1
    11f0:	489f3000 	ldmmi	pc, {ip, sp}	; <UNPREDICTABLE>
    11f4:	5c000001 	stcpl	0, cr0, [r0], {1}
    11f8:	01000001 	tsteq	r0, r1
    11fc:	01685300 	cmneq	r8, r0, lsl #6
    1200:	016c0000 	cmneq	ip, r0
    1204:	00010000 	andeq	r0, r1, r0
    1208:	00000053 	andeq	r0, r0, r3, asr r0
    120c:	00000000 	andeq	r0, r0, r0
    1210:	00012400 	andeq	r2, r1, r0, lsl #8
    1214:	00014800 	andeq	r4, r1, r0, lsl #16
    1218:	30000200 	andcc	r0, r0, r0, lsl #4
    121c:	0001489f 	muleq	r1, pc, r8	; <UNPREDICTABLE>
    1220:	00015000 	andeq	r5, r1, r0
    1224:	70001000 	andvc	r1, r0, r0
    1228:	1e007501 	cfsh32ne	mvfx7, mvfx0, #1
    122c:	9c030073 	stcls	0, cr0, [r3], {115}	; 0x73
    1230:	06f00031 			; <UNDEFINED> instruction: 0x06f00031
    1234:	009f221c 	addseq	r2, pc, ip, lsl r2	; <UNPREDICTABLE>
    1238:	00000000 	andeq	r0, r0, r0
    123c:	48000000 	stmdami	r0, {}	; <UNPREDICTABLE>
    1240:	5c000001 	stcpl	0, cr0, [r0], {1}
    1244:	01000001 	tsteq	r0, r1
    1248:	00005300 	andeq	r5, r0, r0, lsl #6
    124c:	00000000 	andeq	r0, r0, r0
    1250:	01680000 	cmneq	r8, r0
    1254:	016c0000 	cmneq	ip, r0
    1258:	00010000 	andeq	r0, r1, r0
    125c:	00000053 	andeq	r0, r0, r3, asr r0
    1260:	00000000 	andeq	r0, r0, r0
    1264:	00017c00 	andeq	r7, r1, r0, lsl #24
    1268:	00018400 	andeq	r8, r1, r0, lsl #8
    126c:	50000100 	andpl	r0, r0, r0, lsl #2
	...
    1278:	00000188 	andeq	r0, r0, r8, lsl #3
    127c:	00000190 	muleq	r0, r0, r1
    1280:	00500001 	subseq	r0, r0, r1
    1284:	00000000 	andeq	r0, r0, r0
    1288:	88000000 	stmdahi	r0, {}	; <UNPREDICTABLE>
    128c:	94000001 	strls	r0, [r0], #-1
    1290:	02000001 	andeq	r0, r0, #1
    1294:	949f3100 	ldrls	r3, [pc], #256	; 129c <__dram_freq_start+0x129c>
    1298:	9c000001 	stcls	0, cr0, [r0], {1}
    129c:	01000001 	tsteq	r0, r1
    12a0:	019c5000 	orrseq	r5, ip, r0
    12a4:	01a00000 	moveq	r0, r0
    12a8:	00050000 	andeq	r0, r5, r0
    12ac:	21400070 	hvccs	0
    12b0:	0001a09f 	muleq	r1, pc, r0	; <UNPREDICTABLE>
    12b4:	0001a400 	andeq	sl, r1, r0, lsl #8
    12b8:	50000100 	andpl	r0, r0, r0, lsl #2
    12bc:	000001a4 	andeq	r0, r0, r4, lsr #3
    12c0:	000001b4 			; <UNDEFINED> instruction: 0x000001b4
    12c4:	049e0006 	ldreq	r0, [lr], #6
    12c8:	8000000f 	andhi	r0, r0, pc
	...
    12d4:	000001b4 			; <UNDEFINED> instruction: 0x000001b4
    12d8:	000001c4 	andeq	r0, r0, r4, asr #3
    12dc:	9f300002 	svcls	0x00300002
	...
    12e8:	000001e0 	andeq	r0, r0, r0, ror #3
    12ec:	000001e4 	andeq	r0, r0, r4, ror #3
    12f0:	fc500001 	mrrc2	0, 0, r0, r0, cr1	; <UNPREDICTABLE>
    12f4:	0c000001 	stceq	0, cr0, [r0], {1}
    12f8:	03000002 	movweq	r0, #2
    12fc:	9f027000 	svcls	0x00027000
	...
    1308:	000001e0 	andeq	r0, r0, r0, ror #3
    130c:	000001f4 	strdeq	r0, [r0], -r4
    1310:	9f300002 	svcls	0x00300002
    1314:	000001f4 	strdeq	r0, [r0], -r4
    1318:	0000020c 	andeq	r0, r0, ip, lsl #4
    131c:	00530001 	subseq	r0, r3, r1
    1320:	00000000 	andeq	r0, r0, r0
    1324:	e0000000 	and	r0, r0, r0
    1328:	fc000001 	stc2	0, cr0, [r0], {1}
    132c:	02000001 	andeq	r0, r0, #1
    1330:	fc9f3000 	ldc2	0, cr3, [pc], {0}
    1334:	0c000001 	stceq	0, cr0, [r0], {1}
    1338:	01000002 	tsteq	r0, r2
    133c:	00005000 	andeq	r5, r0, r0
    1340:	00000000 	andeq	r0, r0, r0
    1344:	01e00000 	mvneq	r0, r0
    1348:	01e40000 	mvneq	r0, r0
    134c:	00010000 	andeq	r0, r1, r0
    1350:	0001e450 	andeq	lr, r1, r0, asr r4
    1354:	00020c00 	andeq	r0, r2, r0, lsl #24
    1358:	70000300 	andvc	r0, r0, r0, lsl #6
    135c:	00009f02 	andeq	r9, r0, r2, lsl #30
	...
    1368:	00040000 	andeq	r0, r4, r0
    136c:	00020000 	andeq	r0, r2, r0
    1370:	0004007d 	andeq	r0, r4, sp, ror r0
    1374:	00080000 	andeq	r0, r8, r0
    1378:	00020000 	andeq	r0, r2, r0
    137c:	0008087d 	andeq	r0, r8, sp, ror r8
    1380:	00740000 	rsbseq	r0, r4, r0
    1384:	00020000 	andeq	r0, r2, r0
    1388:	0000047b 	andeq	r0, r0, fp, ror r4
    138c:	00000000 	andeq	r0, r0, r0
    1390:	00740000 	rsbseq	r0, r4, r0
    1394:	00780000 	rsbseq	r0, r8, r0
    1398:	00020000 	andeq	r0, r2, r0
    139c:	0078007d 	rsbseq	r0, r8, sp, ror r0
    13a0:	007c0000 	rsbseq	r0, ip, r0
    13a4:	00020000 	andeq	r0, r2, r0
    13a8:	007c047d 	rsbseq	r0, ip, sp, ror r4
    13ac:	00e00000 	rsceq	r0, r0, r0
    13b0:	00020000 	andeq	r0, r2, r0
    13b4:	0000047b 	andeq	r0, r0, fp, ror r4
    13b8:	00000000 	andeq	r0, r0, r0
    13bc:	00e00000 	rsceq	r0, r0, r0
    13c0:	00e40000 	rsceq	r0, r4, r0
    13c4:	00020000 	andeq	r0, r2, r0
    13c8:	00e4007d 	rsceq	r0, r4, sp, ror r0
    13cc:	00e80000 	rsceq	r0, r8, r0
    13d0:	00020000 	andeq	r0, r2, r0
    13d4:	00e8047d 	rsceq	r0, r8, sp, ror r4
    13d8:	01380000 	teqeq	r8, r0
    13dc:	00020000 	andeq	r0, r2, r0
    13e0:	0000047b 	andeq	r0, r0, fp, ror r4
    13e4:	00000000 	andeq	r0, r0, r0
    13e8:	01380000 	teqeq	r8, r0
    13ec:	013c0000 	teqeq	ip, r0
    13f0:	00020000 	andeq	r0, r2, r0
    13f4:	013c007d 	teqeq	ip, sp, ror r0
    13f8:	01400000 	mrseq	r0, (UNDEF: 64)
    13fc:	00020000 	andeq	r0, r2, r0
    1400:	0140047d 	hvceq	77	; 0x4d
    1404:	01840000 	orreq	r0, r4, r0
    1408:	00020000 	andeq	r0, r2, r0
    140c:	0000047b 	andeq	r0, r0, fp, ror r4
    1410:	00000000 	andeq	r0, r0, r0
    1414:	01840000 	orreq	r0, r4, r0
    1418:	01880000 	orreq	r0, r8, r0
    141c:	00020000 	andeq	r0, r2, r0
    1420:	0188007d 	orreq	r0, r8, sp, ror r0
    1424:	018c0000 	orreq	r0, ip, r0
    1428:	00020000 	andeq	r0, r2, r0
    142c:	018c087d 	orreq	r0, ip, sp, ror r8
    1430:	02400000 	subeq	r0, r0, #0
    1434:	00020000 	andeq	r0, r2, r0
    1438:	0000047b 	andeq	r0, r0, fp, ror r4
    143c:	00000000 	andeq	r0, r0, r0
    1440:	02400000 	subeq	r0, r0, #0
    1444:	02440000 	subeq	r0, r4, #0
    1448:	00020000 	andeq	r0, r2, r0
    144c:	0244007d 	subeq	r0, r4, #125	; 0x7d
    1450:	02480000 	subeq	r0, r8, #0
    1454:	00020000 	andeq	r0, r2, r0
    1458:	0248087d 	subeq	r0, r8, #8192000	; 0x7d0000
    145c:	04440000 	strbeq	r0, [r4], #-0
    1460:	00020000 	andeq	r0, r2, r0
    1464:	0000047b 	andeq	r0, r0, fp, ror r4
    1468:	00000000 	andeq	r0, r0, r0
    146c:	04440000 	strbeq	r0, [r4], #-0
    1470:	04480000 	strbeq	r0, [r8], #-0
    1474:	00020000 	andeq	r0, r2, r0
    1478:	0448007d 	strbeq	r0, [r8], #-125	; 0x7d
    147c:	044c0000 	strbeq	r0, [ip], #-0
    1480:	00020000 	andeq	r0, r2, r0
    1484:	044c047d 	strbeq	r0, [ip], #-1149	; 0x47d
    1488:	05740000 	ldrbeq	r0, [r4, #-0]!
    148c:	00020000 	andeq	r0, r2, r0
    1490:	0000047b 	andeq	r0, r0, fp, ror r4
    1494:	00000000 	andeq	r0, r0, r0
    1498:	05740000 	ldrbeq	r0, [r4, #-0]!
    149c:	05780000 	ldrbeq	r0, [r8, #-0]!
    14a0:	00020000 	andeq	r0, r2, r0
    14a4:	0578007d 	ldrbeq	r0, [r8, #-125]!	; 0x7d
    14a8:	057c0000 	ldrbeq	r0, [ip, #-0]!
    14ac:	00020000 	andeq	r0, r2, r0
    14b0:	057c047d 	ldrbeq	r0, [ip, #-1149]!	; 0x47d
    14b4:	06640000 	strbteq	r0, [r4], -r0
    14b8:	00020000 	andeq	r0, r2, r0
    14bc:	0000047b 	andeq	r0, r0, fp, ror r4
    14c0:	00000000 	andeq	r0, r0, r0
    14c4:	06640000 	strbteq	r0, [r4], -r0
    14c8:	06680000 	strbteq	r0, [r8], -r0
    14cc:	00020000 	andeq	r0, r2, r0
    14d0:	0668007d 			; <UNDEFINED> instruction: 0x0668007d
    14d4:	066c0000 	strbteq	r0, [ip], -r0
    14d8:	00020000 	andeq	r0, r2, r0
    14dc:	066c087d 			; <UNDEFINED> instruction: 0x066c087d
    14e0:	08800000 	stmeq	r0, {}	; <UNPREDICTABLE>
    14e4:	00020000 	andeq	r0, r2, r0
    14e8:	0000047b 	andeq	r0, r0, fp, ror r4
    14ec:	00000000 	andeq	r0, r0, r0
    14f0:	08800000 	stmeq	r0, {}	; <UNPREDICTABLE>
    14f4:	08840000 	stmeq	r4, {}	; <UNPREDICTABLE>
    14f8:	00020000 	andeq	r0, r2, r0
    14fc:	0884007d 	stmeq	r4, {r0, r2, r3, r4, r5, r6}
    1500:	08880000 	stmeq	r8, {}	; <UNPREDICTABLE>
    1504:	00020000 	andeq	r0, r2, r0
    1508:	0888087d 	stmeq	r8, {r0, r2, r3, r4, r5, r6, fp}
    150c:	10380000 	eorsne	r0, r8, r0
    1510:	00020000 	andeq	r0, r2, r0
    1514:	0000047b 	andeq	r0, r0, fp, ror r4
    1518:	00000000 	andeq	r0, r0, r0
    151c:	10380000 	eorsne	r0, r8, r0
    1520:	103c0000 	eorsne	r0, ip, r0
    1524:	00020000 	andeq	r0, r2, r0
    1528:	103c007d 	eorsne	r0, ip, sp, ror r0
    152c:	10400000 	subne	r0, r0, r0
    1530:	00020000 	andeq	r0, r2, r0
    1534:	1040047d 	subne	r0, r0, sp, ror r4
    1538:	10f40000 	rscsne	r0, r4, r0
    153c:	00020000 	andeq	r0, r2, r0
    1540:	0000047b 	andeq	r0, r0, fp, ror r4
    1544:	00000000 	andeq	r0, r0, r0
    1548:	10f40000 	rscsne	r0, r4, r0
    154c:	10f80000 	rscsne	r0, r8, r0
    1550:	00020000 	andeq	r0, r2, r0
    1554:	10f8007d 	rscsne	r0, r8, sp, ror r0
    1558:	10fc0000 	rscsne	r0, ip, r0
    155c:	00020000 	andeq	r0, r2, r0
    1560:	10fc047d 	rscsne	r0, ip, sp, ror r4
    1564:	11580000 	cmpne	r8, r0
    1568:	00020000 	andeq	r0, r2, r0
    156c:	0000047b 	andeq	r0, r0, fp, ror r4
    1570:	00000000 	andeq	r0, r0, r0
    1574:	11580000 	cmpne	r8, r0
    1578:	115c0000 	cmpne	ip, r0
    157c:	00020000 	andeq	r0, r2, r0
    1580:	115c007d 	cmpne	ip, sp, ror r0
    1584:	11600000 	cmnne	r0, r0
    1588:	00020000 	andeq	r0, r2, r0
    158c:	1160047d 	smcne	77	; 0x4d
    1590:	11d80000 	bicsne	r0, r8, r0
    1594:	00020000 	andeq	r0, r2, r0
    1598:	0000047b 	andeq	r0, r0, fp, ror r4
    159c:	00000000 	andeq	r0, r0, r0
    15a0:	11d80000 	bicsne	r0, r8, r0
    15a4:	11dc0000 	bicsne	r0, ip, r0
    15a8:	00020000 	andeq	r0, r2, r0
    15ac:	11dc007d 	bicsne	r0, ip, sp, ror r0
    15b0:	11e00000 	mvnne	r0, r0
    15b4:	00020000 	andeq	r0, r2, r0
    15b8:	11e0047d 	mvnne	r0, sp, ror r4
    15bc:	12f80000 	rscsne	r0, r8, #0
    15c0:	00020000 	andeq	r0, r2, r0
    15c4:	0000047b 	andeq	r0, r0, fp, ror r4
    15c8:	00000000 	andeq	r0, r0, r0
    15cc:	12f80000 	rscsne	r0, r8, #0
    15d0:	12fc0000 	rscsne	r0, ip, #0
    15d4:	00020000 	andeq	r0, r2, r0
    15d8:	12fc007d 	rscsne	r0, ip, #125	; 0x7d
    15dc:	13000000 	movwne	r0, #0
    15e0:	00020000 	andeq	r0, r2, r0
    15e4:	1300047d 	movwne	r0, #1149	; 0x47d
    15e8:	13140000 	tstne	r4, #0
    15ec:	00020000 	andeq	r0, r2, r0
    15f0:	0000047b 	andeq	r0, r0, fp, ror r4
    15f4:	00000000 	andeq	r0, r0, r0
    15f8:	13140000 	tstne	r4, #0
    15fc:	13180000 	tstne	r8, #0
    1600:	00020000 	andeq	r0, r2, r0
    1604:	1318007d 	tstne	r8, #125	; 0x7d
    1608:	131c0000 	tstne	ip, #0
    160c:	00020000 	andeq	r0, r2, r0
    1610:	131c047d 	tstne	ip, #2097152000	; 0x7d000000
    1614:	13300000 	teqne	r0, #0
    1618:	00020000 	andeq	r0, r2, r0
    161c:	0000047b 	andeq	r0, r0, fp, ror r4
    1620:	00000000 	andeq	r0, r0, r0
    1624:	13300000 	teqne	r0, #0
    1628:	13340000 	teqne	r4, #0
    162c:	00020000 	andeq	r0, r2, r0
    1630:	1334007d 	teqne	r4, #125	; 0x7d
    1634:	13380000 	teqne	r8, #0
    1638:	00020000 	andeq	r0, r2, r0
    163c:	1338087d 	teqne	r8, #8192000	; 0x7d0000
    1640:	13c80000 	bicne	r0, r8, #0
    1644:	00020000 	andeq	r0, r2, r0
    1648:	0000047b 	andeq	r0, r0, fp, ror r4
    164c:	00000000 	andeq	r0, r0, r0
    1650:	13c80000 	bicne	r0, r8, #0
    1654:	13cc0000 	bicne	r0, ip, #0
    1658:	00020000 	andeq	r0, r2, r0
    165c:	13cc007d 	bicne	r0, ip, #125	; 0x7d
    1660:	13d00000 	bicsne	r0, r0, #0
    1664:	00020000 	andeq	r0, r2, r0
    1668:	13d0087d 	bicsne	r0, r0, #8192000	; 0x7d0000
    166c:	15180000 	ldrne	r0, [r8, #-0]
    1670:	00020000 	andeq	r0, r2, r0
    1674:	0000047b 	andeq	r0, r0, fp, ror r4
    1678:	00000000 	andeq	r0, r0, r0
    167c:	15180000 	ldrne	r0, [r8, #-0]
    1680:	151c0000 	ldrne	r0, [ip, #-0]
    1684:	00020000 	andeq	r0, r2, r0
    1688:	151c007d 	ldrne	r0, [ip, #-125]	; 0x7d
    168c:	15200000 	strne	r0, [r0, #-0]!
    1690:	00020000 	andeq	r0, r2, r0
    1694:	1520087d 	strne	r0, [r0, #-2173]!	; 0x87d
    1698:	18f40000 	ldmne	r4!, {}^	; <UNPREDICTABLE>
    169c:	00020000 	andeq	r0, r2, r0
    16a0:	0000047b 	andeq	r0, r0, fp, ror r4
    16a4:	00000000 	andeq	r0, r0, r0
    16a8:	18f40000 	ldmne	r4!, {}^	; <UNPREDICTABLE>
    16ac:	18f80000 	ldmne	r8!, {}^	; <UNPREDICTABLE>
    16b0:	00020000 	andeq	r0, r2, r0
    16b4:	18f8007d 	ldmne	r8!, {r0, r2, r3, r4, r5, r6}^
    16b8:	18fc0000 	ldmne	ip!, {}^	; <UNPREDICTABLE>
    16bc:	00020000 	andeq	r0, r2, r0
    16c0:	18fc087d 	ldmne	ip!, {r0, r2, r3, r4, r5, r6, fp}^
    16c4:	19580000 	ldmdbne	r8, {}^	; <UNPREDICTABLE>
    16c8:	00020000 	andeq	r0, r2, r0
    16cc:	0000047b 	andeq	r0, r0, fp, ror r4
    16d0:	00000000 	andeq	r0, r0, r0
    16d4:	19580000 	ldmdbne	r8, {}^	; <UNPREDICTABLE>
    16d8:	195c0000 	ldmdbne	ip, {}^	; <UNPREDICTABLE>
    16dc:	00020000 	andeq	r0, r2, r0
    16e0:	195c007d 	ldmdbne	ip, {r0, r2, r3, r4, r5, r6}^
    16e4:	19600000 	stmdbne	r0!, {}^	; <UNPREDICTABLE>
    16e8:	00020000 	andeq	r0, r2, r0
    16ec:	1960047d 	stmdbne	r0!, {r0, r2, r3, r4, r5, r6, sl}^
    16f0:	19740000 	ldmdbne	r4!, {}^	; <UNPREDICTABLE>
    16f4:	00020000 	andeq	r0, r2, r0
    16f8:	0000047b 	andeq	r0, r0, fp, ror r4
    16fc:	00000000 	andeq	r0, r0, r0
    1700:	19740000 	ldmdbne	r4!, {}^	; <UNPREDICTABLE>
    1704:	19780000 	ldmdbne	r8!, {}^	; <UNPREDICTABLE>
    1708:	00020000 	andeq	r0, r2, r0
    170c:	1978007d 	ldmdbne	r8!, {r0, r2, r3, r4, r5, r6}^
    1710:	197c0000 	ldmdbne	ip!, {}^	; <UNPREDICTABLE>
    1714:	00020000 	andeq	r0, r2, r0
    1718:	197c087d 	ldmdbne	ip!, {r0, r2, r3, r4, r5, r6, fp}^
    171c:	198c0000 	stmibne	ip, {}	; <UNPREDICTABLE>
    1720:	00020000 	andeq	r0, r2, r0
    1724:	0000047b 	andeq	r0, r0, fp, ror r4
    1728:	00000000 	andeq	r0, r0, r0
    172c:	198c0000 	stmibne	ip, {}	; <UNPREDICTABLE>
    1730:	19900000 	ldmibne	r0, {}	; <UNPREDICTABLE>
    1734:	00020000 	andeq	r0, r2, r0
    1738:	1990007d 	ldmibne	r0, {r0, r2, r3, r4, r5, r6}
    173c:	19940000 	ldmibne	r4, {}	; <UNPREDICTABLE>
    1740:	00020000 	andeq	r0, r2, r0
    1744:	1994087d 	ldmibne	r4, {r0, r2, r3, r4, r5, r6, fp}
    1748:	19b40000 	ldmibne	r4!, {}	; <UNPREDICTABLE>
    174c:	00020000 	andeq	r0, r2, r0
    1750:	0000047b 	andeq	r0, r0, fp, ror r4
    1754:	00000000 	andeq	r0, r0, r0
    1758:	19b40000 	ldmibne	r4!, {}	; <UNPREDICTABLE>
    175c:	19b80000 	ldmibne	r8!, {}	; <UNPREDICTABLE>
    1760:	00020000 	andeq	r0, r2, r0
    1764:	19b8007d 	ldmibne	r8!, {r0, r2, r3, r4, r5, r6}
    1768:	19bc0000 	ldmibne	ip!, {}	; <UNPREDICTABLE>
    176c:	00020000 	andeq	r0, r2, r0
    1770:	19bc087d 	ldmibne	ip!, {r0, r2, r3, r4, r5, r6, fp}
    1774:	19c40000 	stmibne	r4, {}^	; <UNPREDICTABLE>
    1778:	00020000 	andeq	r0, r2, r0
    177c:	0000047b 	andeq	r0, r0, fp, ror r4
    1780:	00000000 	andeq	r0, r0, r0
    1784:	19c40000 	stmibne	r4, {}^	; <UNPREDICTABLE>
    1788:	19c80000 	stmibne	r8, {}^	; <UNPREDICTABLE>
    178c:	00020000 	andeq	r0, r2, r0
    1790:	19c8007d 	stmibne	r8, {r0, r2, r3, r4, r5, r6}^
    1794:	19cc0000 	stmibne	ip, {}^	; <UNPREDICTABLE>
    1798:	00020000 	andeq	r0, r2, r0
    179c:	19cc087d 	stmibne	ip, {r0, r2, r3, r4, r5, r6, fp}^
    17a0:	19e40000 	stmibne	r4!, {}^	; <UNPREDICTABLE>
    17a4:	00020000 	andeq	r0, r2, r0
    17a8:	0000047b 	andeq	r0, r0, fp, ror r4
    17ac:	00000000 	andeq	r0, r0, r0
    17b0:	19e40000 	stmibne	r4!, {}^	; <UNPREDICTABLE>
    17b4:	19e80000 	stmibne	r8!, {}^	; <UNPREDICTABLE>
    17b8:	00020000 	andeq	r0, r2, r0
    17bc:	19e8007d 	stmibne	r8!, {r0, r2, r3, r4, r5, r6}^
    17c0:	19ec0000 	stmibne	ip!, {}^	; <UNPREDICTABLE>
    17c4:	00020000 	andeq	r0, r2, r0
    17c8:	19ec087d 	stmibne	ip!, {r0, r2, r3, r4, r5, r6, fp}^
    17cc:	19fc0000 	ldmibne	ip!, {}^	; <UNPREDICTABLE>
    17d0:	00020000 	andeq	r0, r2, r0
    17d4:	0000047b 	andeq	r0, r0, fp, ror r4
    17d8:	00000000 	andeq	r0, r0, r0
	...

Disassembly of section .debug_aranges:

00000000 <.debug_aranges>:
   0:	00000024 	andeq	r0, r0, r4, lsr #32
   4:	00000002 	andeq	r0, r0, r2
   8:	00040000 	andeq	r0, r4, r0
   c:	00000000 	andeq	r0, r0, r0
  10:	f000014c 			; <UNDEFINED> instruction: 0xf000014c
  14:	00000130 	andeq	r0, r0, r0, lsr r1
  18:	f0000000 			; <UNDEFINED> instruction: 0xf0000000
  1c:	0000014c 	andeq	r0, r0, ip, asr #2
	...
  28:	0000001c 	andeq	r0, r0, ip, lsl r0
  2c:	06180002 	ldreq	r0, [r8], -r2
  30:	00040000 	andeq	r0, r4, r0
  34:	00000000 	andeq	r0, r0, r0
  38:	f000027c 			; <UNDEFINED> instruction: 0xf000027c
  3c:	00000198 	muleq	r0, r8, r1
	...
  48:	0000001c 	andeq	r0, r0, ip, lsl r0
  4c:	08d30002 	ldmeq	r3, {r1}^
  50:	00040000 	andeq	r0, r4, r0
  54:	00000000 	andeq	r0, r0, r0
  58:	f0000414 			; <UNDEFINED> instruction: 0xf0000414
  5c:	00000980 	andeq	r0, r0, r0, lsl #19
	...
  68:	0000001c 	andeq	r0, r0, ip, lsl r0
  6c:	12670002 	rsbne	r0, r7, #2
  70:	00040000 	andeq	r0, r4, r0
  74:	00000000 	andeq	r0, r0, r0
  78:	f0000d94 			; <UNDEFINED> instruction: 0xf0000d94
  7c:	00000058 	andeq	r0, r0, r8, asr r0
	...
  88:	0000001c 	andeq	r0, r0, ip, lsl r0
  8c:	13530002 	cmpne	r3, #2
  90:	00040000 	andeq	r0, r4, r0
  94:	00000000 	andeq	r0, r0, r0
  98:	f0000dec 			; <UNDEFINED> instruction: 0xf0000dec
  9c:	000001a8 	andeq	r0, r0, r8, lsr #3
	...
  a8:	0000001c 	andeq	r0, r0, ip, lsl r0
  ac:	13f40002 	mvnsne	r0, #2
  b0:	00040000 	andeq	r0, r4, r0
  b4:	00000000 	andeq	r0, r0, r0
  b8:	f0000f94 			; <UNDEFINED> instruction: 0xf0000f94
  bc:	00000028 	andeq	r0, r0, r8, lsr #32
	...
  c8:	0000001c 	andeq	r0, r0, ip, lsl r0
  cc:	14940002 	ldrne	r0, [r4], #2
  d0:	00040000 	andeq	r0, r4, r0
  d4:	00000000 	andeq	r0, r0, r0
  d8:	f0000fbc 			; <UNDEFINED> instruction: 0xf0000fbc
  dc:	0000020c 	andeq	r0, r0, ip, lsl #4
	...
  e8:	0000001c 	andeq	r0, r0, ip, lsl r0
  ec:	3c280002 	stccc	0, cr0, [r8], #-8
  f0:	00040000 	andeq	r0, r4, r0
  f4:	00000000 	andeq	r0, r0, r0
  f8:	f00011e0 			; <UNDEFINED> instruction: 0xf00011e0
  fc:	00000454 	andeq	r0, r0, r4, asr r4
	...
 108:	0000001c 	andeq	r0, r0, ip, lsl r0
 10c:	3ccd0002 	stclcc	0, cr0, [sp], {2}
 110:	00040000 	andeq	r0, r4, r0
 114:	00000000 	andeq	r0, r0, r0
 118:	f0001640 			; <UNDEFINED> instruction: 0xf0001640
 11c:	000019fc 	strdeq	r1, [r0], -ip
	...

Disassembly of section .debug_ranges:

00000000 <.debug_ranges>:
   0:	f0000050 			; <UNDEFINED> instruction: 0xf0000050
   4:	f0000054 			; <UNDEFINED> instruction: 0xf0000054
   8:	f0000058 			; <UNDEFINED> instruction: 0xf0000058
   c:	f000005c 			; <UNDEFINED> instruction: 0xf000005c
  10:	f0000060 			; <UNDEFINED> instruction: 0xf0000060
  14:	f0000080 			; <UNDEFINED> instruction: 0xf0000080
	...
  20:	f0000050 			; <UNDEFINED> instruction: 0xf0000050
  24:	f0000054 			; <UNDEFINED> instruction: 0xf0000054
  28:	f0000058 			; <UNDEFINED> instruction: 0xf0000058
  2c:	f000005c 			; <UNDEFINED> instruction: 0xf000005c
  30:	f0000060 			; <UNDEFINED> instruction: 0xf0000060
  34:	f0000080 			; <UNDEFINED> instruction: 0xf0000080
	...
  40:	f0000080 			; <UNDEFINED> instruction: 0xf0000080
  44:	f0000084 			; <UNDEFINED> instruction: 0xf0000084
  48:	f0000088 			; <UNDEFINED> instruction: 0xf0000088
  4c:	f000008c 			; <UNDEFINED> instruction: 0xf000008c
  50:	f0000090 			; <UNDEFINED> instruction: 0xf0000090
  54:	f000009c 			; <UNDEFINED> instruction: 0xf000009c
	...
  60:	f0000080 			; <UNDEFINED> instruction: 0xf0000080
  64:	f0000084 			; <UNDEFINED> instruction: 0xf0000084
  68:	f0000088 			; <UNDEFINED> instruction: 0xf0000088
  6c:	f000008c 			; <UNDEFINED> instruction: 0xf000008c
  70:	f0000090 			; <UNDEFINED> instruction: 0xf0000090
  74:	f000009c 			; <UNDEFINED> instruction: 0xf000009c
	...
  80:	f00000cc 			; <UNDEFINED> instruction: 0xf00000cc
  84:	f00000d0 			; <UNDEFINED> instruction: 0xf00000d0
  88:	f00000dc 			; <UNDEFINED> instruction: 0xf00000dc
  8c:	f00000e4 			; <UNDEFINED> instruction: 0xf00000e4
	...
  98:	f00000cc 			; <UNDEFINED> instruction: 0xf00000cc
  9c:	f00000d0 			; <UNDEFINED> instruction: 0xf00000d0
  a0:	f00000dc 			; <UNDEFINED> instruction: 0xf00000dc
  a4:	f00000e4 			; <UNDEFINED> instruction: 0xf00000e4
	...
  b0:	f00000ec 			; <UNDEFINED> instruction: 0xf00000ec
  b4:	f00000f0 			; <UNDEFINED> instruction: 0xf00000f0
  b8:	f00000f4 			; <UNDEFINED> instruction: 0xf00000f4
  bc:	f0000118 			; <UNDEFINED> instruction: 0xf0000118
	...
  c8:	f00000ec 			; <UNDEFINED> instruction: 0xf00000ec
  cc:	f00000f0 			; <UNDEFINED> instruction: 0xf00000f0
  d0:	f00000f4 			; <UNDEFINED> instruction: 0xf00000f4
  d4:	f0000118 			; <UNDEFINED> instruction: 0xf0000118
	...
  e0:	f000014c 			; <UNDEFINED> instruction: 0xf000014c
  e4:	f000027c 			; <UNDEFINED> instruction: 0xf000027c
  e8:	f0000000 			; <UNDEFINED> instruction: 0xf0000000
  ec:	f000014c 			; <UNDEFINED> instruction: 0xf000014c
	...
  f8:	00000024 	andeq	r0, r0, r4, lsr #32
  fc:	00000028 	andeq	r0, r0, r8, lsr #32
 100:	0000002c 	andeq	r0, r0, ip, lsr #32
 104:	00000040 	andeq	r0, r0, r0, asr #32
	...
 110:	00000024 	andeq	r0, r0, r4, lsr #32
 114:	00000028 	andeq	r0, r0, r8, lsr #32
 118:	0000002c 	andeq	r0, r0, ip, lsr #32
 11c:	00000040 	andeq	r0, r0, r0, asr #32
	...
 128:	000000e4 	andeq	r0, r0, r4, ror #1
 12c:	000000e8 	andeq	r0, r0, r8, ror #1
 130:	000000ec 	andeq	r0, r0, ip, ror #1
 134:	000000f4 	strdeq	r0, [r0], -r4
 138:	00000130 	andeq	r0, r0, r0, lsr r1
 13c:	0000014c 	andeq	r0, r0, ip, asr #2
	...
 148:	00000154 	andeq	r0, r0, r4, asr r1
 14c:	00000158 	andeq	r0, r0, r8, asr r1
 150:	0000015c 	andeq	r0, r0, ip, asr r1
 154:	00000170 	andeq	r0, r0, r0, ror r1
	...
 160:	00000154 	andeq	r0, r0, r4, asr r1
 164:	00000158 	andeq	r0, r0, r8, asr r1
 168:	0000015c 	andeq	r0, r0, ip, asr r1
 16c:	00000170 	andeq	r0, r0, r0, ror r1
	...
 178:	00000410 	andeq	r0, r0, r0, lsl r4
 17c:	00000414 	andeq	r0, r0, r4, lsl r4
 180:	000004d8 	ldrdeq	r0, [r0], -r8
 184:	00000548 	andeq	r0, r0, r8, asr #10
 188:	0000054c 	andeq	r0, r0, ip, asr #10
 18c:	00000550 	andeq	r0, r0, r0, asr r5
 190:	00000600 	andeq	r0, r0, r0, lsl #12
 194:	00000608 	andeq	r0, r0, r8, lsl #12
 198:	0000069c 	muleq	r0, ip, r6
 19c:	000006ac 	andeq	r0, r0, ip, lsr #13
	...

Disassembly of section .debug_line:

00000000 <.debug_line>:
   0:	00000158 	andeq	r0, r0, r8, asr r1
   4:	00510002 	subseq	r0, r1, r2
   8:	01020000 	mrseq	r0, (UNDEF: 2)
   c:	000d0efb 	strdeq	r0, [sp], -fp
  10:	01010101 	tsteq	r1, r1, lsl #2
  14:	01000000 	mrseq	r0, (UNDEF: 0)
  18:	2e010000 	cdpcs	0, 0, cr0, cr1, cr0, {0}
  1c:	6400002e 	strvs	r0, [r0], #-46	; 0x2e
  20:	5f6d6172 	svcpl	0x006d6172
  24:	71657266 	cmnvc	r5, r6, ror #4
  28:	746e655f 	strbtvc	r6, [lr], #-1375	; 0x55f
  2c:	632e7972 	teqvs	lr, #1867776	; 0x1c8000
  30:	00000000 	andeq	r0, r0, r0
  34:	682e6d70 	stmdavs	lr!, {r4, r5, r6, r8, sl, fp, sp, lr}
  38:	00000100 	andeq	r0, r0, r0, lsl #2
  3c:	745f6d70 	ldrbvc	r6, [pc], #-3440	; 44 <__dram_freq_start+0x44>
  40:	73657079 	cmnvc	r5, #121	; 0x79
  44:	0100682e 	tsteq	r0, lr, lsr #16
  48:	656d0000 	strbvs	r0, [sp, #-0]!
  4c:	72705f6d 	rsbsvc	r5, r0, #436	; 0x1b4
  50:	6b746e69 	blvs	1d1b9fc <__dram_freq_start+0x1d1b9fc>
  54:	0100682e 	tsteq	r0, lr, lsr #16
  58:	00000000 	andeq	r0, r0, r0
  5c:	014c0205 	cmpeq	ip, r5, lsl #4
  60:	d003f000 	andle	pc, r3, r0
  64:	a3160101 	tstge	r6, #1073741824	; 0x40000000
  68:	d203654b 	andle	r6, r3, #314572800	; 0x12c00000
  6c:	4d15667e 	ldcmi	6, cr6, [r5, #-504]	; 0xfffffe08
  70:	4e2f2f83 	cdpmi	15, 2, cr2, cr15, cr3, {4}
  74:	2f2f6914 	svccs	0x002f6914
  78:	2b6a1431 	blcs	1a85144 <__dram_freq_start+0x1a85144>
  7c:	2e30302f 	cdpcs	0, 3, cr3, cr0, cr15, {1}
  80:	00312b4d 	eorseq	r2, r1, sp, asr #22
  84:	2b020402 	blcs	81094 <__dram_freq_start+0x81094>
  88:	02040200 	andeq	r0, r4, #0
  8c:	0402002d 	streq	r0, [r2], #-45	; 0x2d
  90:	02003302 	andeq	r3, r0, #134217728	; 0x8000000
  94:	00290204 	eoreq	r0, r9, r4, lsl #4
  98:	33020402 	movwcc	r0, #9218	; 0x2402
  9c:	02040200 	andeq	r0, r4, #0
  a0:	0402002d 	streq	r0, [r2], #-45	; 0x2d
  a4:	02002a02 	andeq	r2, r0, #8192	; 0x2000
  a8:	00330204 	eorseq	r0, r3, r4, lsl #4
  ac:	2d020402 	cfstrscs	mvf0, [r2, #-8]
  b0:	2f306831 	svccs	0x00306831
  b4:	02002f2d 	andeq	r2, r0, #180	; 0xb4
  b8:	002a0204 	eoreq	r0, sl, r4, lsl #4
  bc:	87020402 	strhi	r0, [r2, -r2, lsl #8]
  c0:	02040200 	andeq	r0, r4, #0
  c4:	164c4d49 	strbne	r4, [ip], -r9, asr #26
  c8:	022f6732 	eoreq	r6, pc, #13107200	; 0xc80000
  cc:	01010004 	tsteq	r1, r4
  d0:	00020500 	andeq	r0, r2, r0, lsl #10
  d4:	03f00000 	mvnseq	r0, #0
  d8:	180100f6 	stmdane	r1, {r1, r2, r4, r5, r6, r7}
  dc:	2e770331 	mrccs	3, 3, r0, cr7, cr1, {1}
  e0:	2e7a0334 	mrccs	3, 3, r0, cr10, cr4, {1}
  e4:	02003134 	andeq	r3, r0, #13
  e8:	696b0104 	stmdbvs	fp!, {r2, r8}^
  ec:	032f494b 	teqeq	pc, #1228800	; 0x12c000
  f0:	3b036645 	blcc	d9a0c <__dram_freq_start+0xd9a0c>
  f4:	2e45032e 	cdpcs	3, 4, cr0, cr5, cr14, {1}
  f8:	032e3b03 	teqeq	lr, #3072	; 0xc00
  fc:	5a032e6c 	bpl	cbab4 <__dram_freq_start+0xcbab4>
 100:	2e26032e 	cdpcs	3, 2, cr0, cr6, cr14, {1}
 104:	2d2e5a03 	vstmdbcs	lr!, {s10-s12}
 108:	032e2703 	teqeq	lr, #786432	; 0xc0000
 10c:	032d2e5a 	teqeq	sp, #1440	; 0x5a0
 110:	e5032e6d 	str	r2, [r3, #-3693]	; 0xe6d
 114:	9b032e00 	blls	cb91c <__dram_freq_start+0xcb91c>
 118:	e5032e7f 	str	r2, [r3, #-3711]	; 0xe7f
 11c:	9b032e00 	blls	cb924 <__dram_freq_start+0xcb924>
 120:	2f312e7f 	svccs	0x00312e7f
 124:	2e00e103 	mvfcss	f6, f3
 128:	304e8531 	subcc	r8, lr, r1, lsr r5
 12c:	7f960331 	svcvc	0x00960331
 130:	00f00366 	rscseq	r0, r0, r6, ror #6
 134:	7f91032e 	svcvc	0x0091032e
 138:	ee032f66 	cdp	15, 0, cr2, cr3, cr6, {3}
 13c:	a0032e00 	andge	r2, r3, r0, lsl #28
 140:	2d2f2e7f 	stccs	14, cr2, [pc, #-508]!	; ffffff4c <__bss_end+0xfffcc14>
 144:	2e1f032f 	cdpcs	3, 1, cr0, cr15, cr15, {1}
 148:	49826203 	stmibmi	r2, {r0, r1, r9, sp, lr}
 14c:	4a00e603 	bmi	39960 <__dram_freq_start+0x39960>
 150:	4a42034d 	bmi	1080e8c <__dram_freq_start+0x1080e8c>
 154:	022e3f03 	eoreq	r3, lr, #12
 158:	01010010 	tsteq	r1, r0, lsl r0
 15c:	000000bf 	strheq	r0, [r0], -pc	; <UNPREDICTABLE>
 160:	00360002 	eorseq	r0, r6, r2
 164:	01020000 	mrseq	r0, (UNDEF: 2)
 168:	000d0efb 	strdeq	r0, [sp], -fp
 16c:	01010101 	tsteq	r1, r1, lsl #2
 170:	01000000 	mrseq	r0, (UNDEF: 0)
 174:	2e010000 	cdpcs	0, 0, cr0, cr1, cr0, {0}
 178:	002e2e2f 	eoreq	r2, lr, pc, lsr #28
 17c:	6d656d00 	stclvs	13, cr6, [r5, #-0]
 180:	7265735f 	rsbvc	r7, r5, #2080374785	; 0x7c000001
 184:	2e6c6169 	powcsez	f6, f4, #1.0
 188:	00010063 	andeq	r0, r1, r3, rrx
 18c:	5f6d7000 	svcpl	0x006d7000
 190:	65707974 	ldrbvs	r7, [r0, #-2420]!	; 0x974
 194:	00682e73 	rsbeq	r2, r8, r3, ror lr
 198:	00000001 	andeq	r0, r0, r1
 19c:	7c020500 	cfstr32vc	mvfx0, [r2], {-0}
 1a0:	03f00002 	mvnseq	r0, #2
 1a4:	24030114 	strcs	r0, [r3], #-276	; 0x114
 1a8:	30038501 	andcc	r8, r3, r1, lsl #10
 1ac:	164e142e 	strbne	r1, [lr], -lr, lsr #8
 1b0:	034a5c03 	movteq	r5, #44035	; 0xac03
 1b4:	5c032e24 	stcpl	14, cr2, [r3], {36}	; 0x24
 1b8:	2303852e 	movwcs	r8, #13614	; 0x352e
 1bc:	c12a4c2e 	teqgt	sl, lr, lsr #24
 1c0:	010c0331 	tsteq	ip, r1, lsr r3
 1c4:	032e0903 	teqeq	lr, #49152	; 0xc000
 1c8:	09032e77 	stmdbeq	r3, {r0, r1, r2, r4, r5, r6, r9, sl, fp, sp}
 1cc:	2e77032e 	cdpcs	3, 7, cr0, cr7, cr14, {1}
 1d0:	032e0c03 	teqeq	lr, #768	; 0x300
 1d4:	6e4c2e74 	mcrvs	14, 2, r2, cr12, cr4, {3}
 1d8:	312f2f2d 	teqcc	pc, sp, lsr #30
 1dc:	2f2d302b 	svccs	0x002d302b
 1e0:	312b322f 	teqcc	fp, pc, lsr #4
 1e4:	28034f30 	stmdacs	r3, {r4, r5, r8, r9, sl, fp, lr}
 1e8:	5e03312e 	adfplsp	f3, f3, #0.5
 1ec:	2e1e0366 	cdpcs	3, 1, cr0, cr14, cr6, {3}
 1f0:	302e6203 	eorcc	r6, lr, r3, lsl #4
 1f4:	502e2203 	eorpl	r2, lr, r3, lsl #4
 1f8:	a02e5603 	eorge	r5, lr, r3, lsl #12
 1fc:	032e2003 	teqeq	lr, #3
 200:	5203660c 	andpl	r6, r3, #12582912	; 0xc00000
 204:	3003a066 	andcc	sl, r3, r6, rrx
 208:	5603164a 	strpl	r1, [r3], -sl, asr #12
 20c:	2e2a034a 	cdpcs	3, 2, cr0, cr10, cr10, {2}
 210:	852e5603 	strhi	r5, [lr, #-1539]!	; 0x603
 214:	4c2e2903 	stcmi	9, cr2, [lr], #-12
 218:	0202c12a 	andeq	ip, r2, #-2147483638	; 0x8000000a
 21c:	b7010100 	strlt	r0, [r1, -r0, lsl #2]
 220:	02000003 	andeq	r0, r0, #3
 224:	0000f100 	andeq	pc, r0, r0, lsl #2
 228:	fb010200 	blx	40a32 <__dram_freq_start+0x40a32>
 22c:	01000d0e 	tsteq	r0, lr, lsl #26
 230:	00010101 	andeq	r0, r1, r1, lsl #2
 234:	00010000 	andeq	r0, r1, r0
 238:	2f2e0100 	svccs	0x002e0100
 23c:	2f002e2e 	svccs	0x00002e2e
 240:	6b736964 	blvs	1cda7d8 <__dram_freq_start+0x1cda7d8>
 244:	796b2f32 	stmdbvc	fp!, {r1, r4, r5, r8, r9, sl, fp, sp}^
 248:	2f6e696c 	svccs	0x006e696c
 24c:	e580bce5 	str	fp, [r0, #3301]	; 0xce5
 250:	9de6918f 	stflsp	f1, [r6, #572]!	; 0x23c
 254:	b185e5bf 			; <UNDEFINED> instruction: 0xb185e5bf
 258:	e7abbae4 	str	fp, [fp, r4, ror #21]!
 25c:	bde5ae9b 	stcllt	14, cr10, [r5, #620]!	; 0x26c
 260:	9ce82f95 	stclls	15, cr2, [r8], #596	; 0x254
 264:	9fb8e982 	svcls	0x00b8e982
 268:	2e33762f 	cfmsuba32cs	mvax1, mvax7, mvfx3, mvfx15
 26c:	33562f30 	cmpcc	r6, #192	; 0xc0
 270:	72654d2f 	rsbvc	r4, r5, #3008	; 0xbc0
 274:	4c696972 	stclmi	9, cr6, [r9], #-456	; 0xfffffe38
 278:	78756e69 	ldmdavc	r5!, {r0, r3, r5, r6, r9, sl, fp, sp, lr}^
 27c:	74756f2f 	ldrbtvc	r6, [r5], #-3887	; 0xf2f
 280:	6172642f 	cmnvs	r2, pc, lsr #8
 284:	626e6f67 	rsbvs	r6, lr, #412	; 0x19c
 288:	6472616f 	ldrbtvs	r6, [r2], #-367	; 0x16f
 28c:	6d6f632f 	stclvs	3, cr6, [pc, #-188]!	; 1d8 <__dram_freq_start+0x1d8>
 290:	2f6e6f6d 	svccs	0x006e6f6d
 294:	6c697562 	cfstr64vs	mvdx7, [r9], #-392	; 0xfffffe78
 298:	6f6f7264 	svcvs	0x006f7264
 29c:	78652f74 	stmdavc	r5!, {r2, r4, r5, r6, r8, r9, sl, fp, sp}^
 2a0:	6e726574 	mrcvs	5, 3, r6, cr2, cr4, {3}
 2a4:	742d6c61 	strtvc	r6, [sp], #-3169	; 0xc61
 2a8:	636c6f6f 	cmnvs	ip, #444	; 0x1bc
 2ac:	6e696168 	powvsez	f6, f1, #0.0
 2b0:	6e69622f 	cdpvs	2, 6, cr6, cr9, cr15, {1}
 2b4:	2f2e2e2f 	svccs	0x002e2e2f
 2b8:	2f62696c 	svccs	0x0062696c
 2bc:	2f636367 	svccs	0x00636367
 2c0:	2d6d7261 	sfmcs	f7, 2, [sp, #-388]!	; 0xfffffe7c
 2c4:	756e696c 	strbvc	r6, [lr, #-2412]!	; 0x96c
 2c8:	6e672d78 	mcrvs	13, 3, r2, cr7, cr8, {3}
 2cc:	62616575 	rsbvs	r6, r1, #490733568	; 0x1d400000
 2d0:	2e342f69 	cdpcs	15, 3, cr2, cr4, cr9, {3}
 2d4:	2f332e36 	svccs	0x00332e36
 2d8:	6c636e69 	stclvs	14, cr6, [r3], #-420	; 0xfffffe5c
 2dc:	00656475 	rsbeq	r6, r5, r5, ror r4
 2e0:	6d656d00 	stclvs	13, cr6, [r5, #-0]
 2e4:	6972705f 	ldmdbvs	r2!, {r0, r1, r2, r3, r4, r6, ip, sp, lr}^
 2e8:	2e6b746e 	cdpcs	4, 6, cr7, cr11, cr14, {3}
 2ec:	00010063 	andeq	r0, r1, r3, rrx
 2f0:	5f6d7000 	svcpl	0x006d7000
 2f4:	65707974 	ldrbvs	r7, [r0, #-2420]!	; 0x974
 2f8:	00682e73 	rsbeq	r2, r8, r3, ror lr
 2fc:	73000001 	movwvc	r0, #1
 300:	72616474 	rsbvc	r6, r1, #1946157056	; 0x74000000
 304:	00682e67 	rsbeq	r2, r8, r7, ror #28
 308:	3c000002 	stccc	0, cr0, [r0], {2}
 30c:	6c697562 	cfstr64vs	mvdx7, [r9], #-392	; 0xfffffe78
 310:	6e692d74 	mcrvs	13, 3, r2, cr9, cr4, {3}
 314:	0000003e 	andeq	r0, r0, lr, lsr r0
 318:	05000000 	streq	r0, [r0, #-0]
 31c:	00041402 	andeq	r1, r4, r2, lsl #8
 320:	011f03f0 			; <UNDEFINED> instruction: 0x011f03f0
 324:	04020015 	streq	r0, [r2], #-21
 328:	66820602 	strvs	r0, [r2], r2, lsl #12
 32c:	11366c06 	teqne	r6, r6, lsl #24
 330:	04020032 	streq	r0, [r2], #-50	; 0x32
 334:	062e0601 	strteq	r0, [lr], -r1, lsl #12
 338:	46153188 	ldrmi	r3, [r5], -r8, lsl #3
 33c:	032a6834 	teqeq	sl, #3407872	; 0x340000
 340:	15324a0a 	ldrne	r4, [r2, #-2570]!	; 0xa0a
 344:	322a329a 	eorcc	r3, sl, #-1610612727	; 0xa0000009
 348:	01040200 	mrseq	r0, R12_usr
 34c:	04020046 	streq	r0, [r2], #-70	; 0x46
 350:	32873601 	addcc	r3, r7, #1048576	; 0x100000
 354:	00312b15 	eorseq	r2, r1, r5, lsl fp
 358:	30010402 	andcc	r0, r1, r2, lsl #8
 35c:	03068206 	movweq	r8, #25094	; 0x6206
 360:	03342e7a 	teqeq	r4, #1952	; 0x7a0
 364:	00342e7a 	eorseq	r2, r4, sl, ror lr
 368:	03010402 	movweq	r0, #5122	; 0x1402
 36c:	0a034a7a 	beq	d2d5c <__dram_freq_start+0xd2d5c>
 370:	0402004a 	streq	r0, [r2], #-74	; 0x4a
 374:	062e0601 	strteq	r0, [lr], -r1, lsl #12
 378:	4d344ca0 	ldcmi	12, cr4, [r4, #-640]!	; 0xfffffd80
 37c:	4e2f2f17 	mcrmi	15, 1, r2, cr15, cr7, {0}
 380:	78032f4f 	stmdavc	r3, {r0, r1, r2, r3, r6, r8, r9, sl, fp, sp}
 384:	820c032e 	andhi	r0, ip, #-1207959552	; 0xb8000000
 388:	2e090315 	mcrcs	3, 0, r0, cr9, cr5, {0}
 38c:	2f2e7703 	svccs	0x002e7703
 390:	034c2f2f 	movteq	r2, #53039	; 0xcf2f
 394:	09032e77 	stmdbeq	r3, {r0, r1, r2, r4, r5, r6, r9, sl, fp, sp}
 398:	2f2f464a 	svccs	0x002f464a
 39c:	0903454c 	stmdbeq	r3, {r2, r3, r6, r8, sl, lr}
 3a0:	2f87454a 	svccs	0x0087454a
 3a4:	4a0d032d 	bmi	341060 <__dram_freq_start+0x341060>
 3a8:	87292c35 			; <UNDEFINED> instruction: 0x87292c35
 3ac:	7a032f87 	bvc	cc1d0 <__dram_freq_start+0xcc1d0>
 3b0:	032b332e 	teqeq	fp, #-1207959552	; 0xb8000000
 3b4:	032d2e0c 	teqeq	sp, #192	; 0xc0
 3b8:	14032e70 	strne	r2, [r3], #-3696	; 0xe70
 3bc:	0402002e 	streq	r0, [r2], #-46	; 0x2e
 3c0:	02008502 	andeq	r8, r0, #8388608	; 0x800000
 3c4:	00830204 	addeq	r0, r3, r4, lsl #4
 3c8:	2d020402 	cfstrscs	mvf0, [r2, #-8]
 3cc:	02040200 	andeq	r0, r4, #0
 3d0:	0402004b 	streq	r0, [r2], #-75	; 0x4b
 3d4:	02002d02 	andeq	r2, r0, #128	; 0x80
 3d8:	002f0204 	eoreq	r0, pc, r4, lsl #4
 3dc:	2a020402 	bcs	813ec <__dram_freq_start+0x813ec>
 3e0:	03660903 	cmneq	r6, #49152	; 0xc000
 3e4:	0c032e77 	stceq	14, cr2, [r3], {119}	; 0x77
 3e8:	665d032e 	ldrbvs	r0, [sp], -lr, lsr #6
 3ec:	00662503 	rsbeq	r2, r6, r3, lsl #10
 3f0:	06020402 	streq	r0, [r2], -r2, lsl #8
 3f4:	0402002e 	streq	r0, [r2], #-46	; 0x2e
 3f8:	00300602 	eorseq	r0, r0, r2, lsl #12
 3fc:	2c020402 	cfstrscs	mvf0, [r2], {2}
 400:	034a5b03 	movteq	r5, #43779	; 0xab03
 404:	85692e2a 	strbhi	r2, [r9, #-3626]!	; 0xe2a
 408:	882a2c34 	stmdahi	sl!, {r2, r4, r5, sl, fp, sp}
 40c:	032fa32c 	teqeq	pc, #-1342177280	; 0xb0000000
 410:	2b332e7a 	blcs	ccbe00 <__dram_freq_start+0xccbe00>
 414:	04020052 	streq	r0, [r2], #-82	; 0x52
 418:	02003102 	andeq	r3, r0, #-2147483648	; 0x80000000
 41c:	00830204 	addeq	r0, r3, r4, lsl #4
 420:	2d020402 	cfstrscs	mvf0, [r2, #-8]
 424:	02040200 	andeq	r0, r4, #0
 428:	0402004b 	streq	r0, [r2], #-75	; 0x4b
 42c:	02002d02 	andeq	r2, r0, #128	; 0x80
 430:	002f0204 	eoreq	r0, pc, r4, lsl #4
 434:	2a020402 	bcs	81444 <__dram_freq_start+0x81444>
 438:	03667103 	cmneq	r6, #-1073741824	; 0xc0000000
 43c:	02006617 	andeq	r6, r0, #24117248	; 0x1700000
 440:	2e060204 	cdpcs	2, 0, cr0, cr6, cr4, {0}
 444:	02040200 	andeq	r0, r4, #0
 448:	02003006 	andeq	r3, r0, #6
 44c:	332c0204 	teqcc	ip, #1073741824	; 0x40000000
 450:	01830369 	orreq	r0, r3, r9, ror #6
 454:	2b2d3282 	blcs	b4ce64 <__dram_freq_start+0xb4ce64>
 458:	03820b03 	orreq	r0, r2, #3072	; 0xc00
 45c:	319f2e78 	orrscc	r2, pc, r8, ror lr	; <UNPREDICTABLE>
 460:	7f8a03a3 	svcvc	0x008a03a3
 464:	2e0a0382 	cdpcs	3, 0, cr0, cr10, cr2, {4}
 468:	032e7603 	teqeq	lr, #3145728	; 0x300000
 46c:	76034a0a 	strvc	r4, [r3], -sl, lsl #20
 470:	2e0a032e 	cdpcs	3, 0, cr0, cr10, cr14, {1}
 474:	dc032c30 	stcle	12, cr2, [r3], {48}	; 0x30
 478:	ab032e00 	blge	cbc80 <__dram_freq_start+0xcbc80>
 47c:	2f2d827f 	svccs	0x002d827f
 480:	302c2f2d 	eorcc	r2, ip, sp, lsr #30
 484:	2e00c103 	mvfcss	f4, f3
 488:	032e6803 	teqeq	lr, #196608	; 0x30000
 48c:	cb032e57 	blgt	cbdf0 <__dram_freq_start+0xcbdf0>
 490:	b5036600 	strlt	r6, [r3, #-1536]	; 0x600
 494:	034c2e7f 	movteq	r2, #52863	; 0xce7f
 498:	032e00c6 	teqeq	lr, #198	; 0xc6
 49c:	312e7fba 			; <UNDEFINED> instruction: 0x312e7fba
 4a0:	03292f69 	teqeq	r9, #420	; 0x1a4
 4a4:	342a2e09 	strtcc	r2, [sl], #-3593	; 0xe09
 4a8:	0200c103 	andeq	ip, r0, #-1073741824	; 0xc0000000
 4ac:	2c300134 	ldfcss	f0, [r0], #-208	; 0xffffff30
 4b0:	55033030 	strpl	r3, [r3, #-48]	; 0x30
 4b4:	7de1034a 	stclvc	3, cr0, [r1, #296]!	; 0x128
 4b8:	02a003d6 	adceq	r0, r0, #1476395011	; 0x58000003
 4bc:	7de00366 	stclvc	3, cr0, [r0, #408]!	; 0x198
 4c0:	02a1032e 	adceq	r0, r1, #-1207959552	; 0xb8000000
 4c4:	7df00382 	ldclvc	3, cr0, [r0, #520]!	; 0x208
 4c8:	029203d6 	addseq	r0, r2, #1476395011	; 0x58000003
 4cc:	0b032f82 	bleq	cc2dc <__dram_freq_start+0xcc2dc>
 4d0:	7fb5032e 	svcvc	0x00b5032e
 4d4:	00cb032e 	sbceq	r0, fp, lr, lsr #6
 4d8:	7fb5032e 	svcvc	0x00b5032e
 4dc:	7ead0366 	cdpvc	3, 10, cr0, cr13, cr6, {3}
 4e0:	826f032e 	rsbhi	r0, pc, #-1207959552	; 0xb8000000
 4e4:	f202b103 	vrhadd.s8	d11, d2, d3
 4e8:	2e63032f 	cdpcs	3, 6, cr0, cr3, cr15, {1}
 4ec:	d67deb03 	ldrbtle	lr, [sp], -r3, lsl #22
 4f0:	66029603 	strvs	r9, [r2], -r3, lsl #12
 4f4:	2e7dea03 	vaddcs.f32	s29, s26, s6
 4f8:	82029703 	andhi	r9, r2, #786432	; 0xc0000
 4fc:	d67dfa03 	ldrbtle	pc, [sp], -r3, lsl #20	; <UNPREDICTABLE>
 500:	82029203 	andhi	r9, r2, #805306368	; 0x30000000
 504:	0d039f50 	stceq	15, cr9, [r3, #-320]	; 0xfffffec0
 508:	52032f2e 	andpl	r2, r3, #184	; 0xb8
 50c:	7df60382 	ldclvc	3, cr0, [r6, #520]!	; 0x208
 510:	028b03d6 	addeq	r0, fp, #1476395011	; 0x58000003
 514:	7df50366 	ldclvc	3, cr0, [r5, #408]!	; 0x198
 518:	028c032e 	addeq	r0, ip, #-1207959552	; 0xb8000000
 51c:	7e850382 	cdpvc	3, 8, cr0, cr5, cr2, {4}
 520:	029203d6 	addseq	r0, r2, #1476395011	; 0x58000003
 524:	823b0382 	eorshi	r0, fp, #134217730	; 0x8000002
 528:	03660c03 	cmneq	r6, #768	; 0x300
 52c:	0c032e74 	stceq	14, cr2, [r3], {116}	; 0x74
 530:	30642f2e 	rsbcc	r2, r4, lr, lsr #30
 534:	2e00c103 	mvfcss	f4, f3
 538:	032e6803 	teqeq	lr, #196608	; 0x30000
 53c:	cb032e57 	blgt	cbea0 <__dram_freq_start+0xcbea0>
 540:	b5036600 	strlt	r6, [r3, #-1536]	; 0x600
 544:	034c2e7f 	movteq	r2, #52863	; 0xce7f
 548:	032e00c6 	teqeq	lr, #198	; 0xc6
 54c:	312e7fba 			; <UNDEFINED> instruction: 0x312e7fba
 550:	03292f69 	teqeq	r9, #420	; 0x1a4
 554:	342a2e09 	strtcc	r2, [sl], #-3593	; 0xe09
 558:	0200c103 	andeq	ip, r0, #-1073741824	; 0xc0000000
 55c:	2c300134 	ldfcss	f0, [r0], #-208	; 0xffffff30
 560:	54033130 	strpl	r3, [r3], #-304	; 0x130
 564:	7cec039e 	stclvc	3, cr0, [ip], #632	; 0x278
 568:	039503d6 	orrseq	r0, r5, #1476395011	; 0x58000003
 56c:	7ceb0366 	stclvc	3, cr0, [fp], #408	; 0x198
 570:	0396032e 	orrseq	r0, r6, #-1207959552	; 0xb8000000
 574:	7cfb0382 	ldclvc	3, cr0, [fp], #520	; 0x208
 578:	038703d6 	orreq	r0, r7, #1476395011	; 0x58000003
 57c:	0b032f82 	bleq	cc38c <__dram_freq_start+0xcc38c>
 580:	7fb9032e 	svcvc	0x00b9032e
 584:	00c7032e 	sbceq	r0, r7, lr, lsr #6
 588:	7fb9032e 	svcvc	0x00b9032e
 58c:	7db40366 	ldcvc	3, cr0, [r4, #408]!	; 0x198
 590:	826f032e 	rsbhi	r0, pc, #-1207959552	; 0xb8000000
 594:	f203a603 	vmax.s8	d10, d3, d3
 598:	2e63032f 	cdpcs	3, 6, cr0, cr3, cr15, {1}
 59c:	d67cf603 	ldrbtle	pc, [ip], -r3, lsl #12	; <UNPREDICTABLE>
 5a0:	66038b03 	strvs	r8, [r3], -r3, lsl #22
 5a4:	2e7cf503 	cdpcs	5, 7, cr15, cr12, cr3, {0}
 5a8:	82038c03 	andhi	r8, r3, #768	; 0x300
 5ac:	d67d8503 	ldrbtle	r8, [sp], -r3, lsl #10
 5b0:	82038703 	andhi	r8, r3, #786432	; 0xc0000
 5b4:	0d039f50 	stceq	15, cr9, [r3, #-320]	; 0xfffffec0
 5b8:	52032f2e 	andpl	r2, r3, #184	; 0xb8
 5bc:	7d810382 	stcvc	3, cr0, [r1, #520]	; 0x208
 5c0:	038003d6 	orreq	r0, r0, #1476395011	; 0x58000003
 5c4:	7d800366 	stcvc	3, cr0, [r0, #408]	; 0x198
 5c8:	0381032e 	orreq	r0, r1, #-1207959552	; 0xb8000000
 5cc:	7d900382 	ldcvc	3, cr0, [r0, #520]	; 0x208
 5d0:	038703d6 	orreq	r0, r7, #1476395011	; 0x58000003
 5d4:	00060282 	andeq	r0, r6, r2, lsl #5
 5d8:	00670101 	rsbeq	r0, r7, r1, lsl #2
 5dc:	00020000 	andeq	r0, r2, r0
 5e0:	00000037 	andeq	r0, r0, r7, lsr r0
 5e4:	0efb0102 	cdpeq	1, 15, cr0, cr11, cr2, {0}
 5e8:	0101000d 	tsteq	r1, sp
 5ec:	00000101 	andeq	r0, r0, r1, lsl #2
 5f0:	00000100 	andeq	r0, r0, r0, lsl #2
 5f4:	2e2f2e01 	cdpcs	14, 2, cr2, cr15, cr1, {0}
 5f8:	6d00002e 	stcvs	0, cr0, [r0, #-184]	; 0xffffff48
 5fc:	645f6d65 	ldrbvs	r6, [pc], #-3429	; 604 <__dram_freq_start+0x604>
 600:	696c7669 	stmdbvs	ip!, {r0, r3, r5, r6, r9, sl, ip, sp, lr}^
 604:	632e6362 	teqvs	lr, #-2013265919	; 0x88000001
 608:	00000100 	andeq	r0, r0, r0, lsl #2
 60c:	745f6d70 	ldrbvc	r6, [pc], #-3440	; 614 <__dram_freq_start+0x614>
 610:	73657079 	cmnvc	r5, #121	; 0x79
 614:	0100682e 	tsteq	r0, lr, lsr #16
 618:	00000000 	andeq	r0, r0, r0
 61c:	0d940205 	lfmeq	f0, 4, [r4, #20]
 620:	1317f000 	tstne	r7, #0
 624:	0903114b 	stmdbeq	r3, {r0, r1, r3, r6, r8, ip}
 628:	2b31172e 	blcs	c462e8 <__dram_freq_start+0xc462e8>
 62c:	01040200 	mrseq	r0, R12_usr
 630:	064a0634 			; <UNDEFINED> instruction: 0x064a0634
 634:	0b032b31 	bleq	cb300 <__dram_freq_start+0xcb300>
 638:	33302b4a 	teqcc	r0, #75776	; 0x12800
 63c:	4d30342a 	cfldrsmi	mvf3, [r0, #-168]!	; 0xffffff58
 640:	01000402 	tsteq	r0, r2, lsl #8
 644:	00007d01 	andeq	r7, r0, r1, lsl #26
 648:	28000200 	stmdacs	r0, {r9}
 64c:	02000000 	andeq	r0, r0, #0
 650:	0d0efb01 	vstreq	d15, [lr, #-4]
 654:	01010100 	mrseq	r0, (UNDEF: 17)
 658:	00000001 	andeq	r0, r0, r1
 65c:	01000001 	tsteq	r0, r1
 660:	2e2e2f2e 	cdpcs	15, 2, cr2, cr14, cr14, {1}
 664:	656d0000 	strbvs	r0, [sp, #-0]!
 668:	69645f6d 	stmdbvs	r4!, {r0, r2, r3, r5, r6, r8, r9, sl, fp, ip, lr}^
 66c:	62696c76 	rsbvs	r6, r9, #30208	; 0x7600
 670:	0100532e 	tsteq	r0, lr, lsr #6
 674:	00000000 	andeq	r0, r0, r0
 678:	0dec0205 	sfmeq	f0, 2, [ip, #20]!
 67c:	dc03f000 	stcle	0, cr15, [r3], {-0}
 680:	2f2f0100 	svccs	0x002f0100
 684:	2f2f332f 	svccs	0x002f332f
 688:	2f2f2f2f 	svccs	0x002f2f2f
 68c:	142e0230 	strtne	r0, [lr], #-560	; 0x230
 690:	2f2f302f 	svccs	0x002f302f
 694:	342f4c30 	strtcc	r4, [pc], #-3120	; 69c <__dram_freq_start+0x69c>
 698:	2f2f2f2f 	svccs	0x002f2f2f
 69c:	2f2f2f2f 	svccs	0x002f2f2f
 6a0:	302f2f2f 	eorcc	r2, pc, pc, lsr #30
 6a4:	2f142e02 	svccs	0x00142e02
 6a8:	2f2f302f 	svccs	0x002f302f
 6ac:	2f2f2f30 	svccs	0x002f2f30
 6b0:	2f2f4c30 	svccs	0x002f4c30
 6b4:	2f2f332f 	svccs	0x002f332f
 6b8:	332f2f2f 	teqcc	pc, #188	; 0xbc
 6bc:	2f2f2f2f 	svccs	0x002f2f2f
 6c0:	0002022f 	andeq	r0, r2, pc, lsr #4
 6c4:	00450101 	subeq	r0, r5, r1, lsl #2
 6c8:	00020000 	andeq	r0, r2, r0
 6cc:	00000027 	andeq	r0, r0, r7, lsr #32
 6d0:	0efb0102 	cdpeq	1, 15, cr0, cr11, cr2, {0}
 6d4:	0101000d 	tsteq	r1, sp
 6d8:	00000101 	andeq	r0, r0, r1, lsl #2
 6dc:	00000100 	andeq	r0, r0, r0, lsl #2
 6e0:	2e2f2e01 	cdpcs	14, 2, cr2, cr15, cr1, {0}
 6e4:	6d00002e 	stcvs	0, cr0, [r0, #-184]	; 0xffffff48
 6e8:	645f6d65 	ldrbvs	r6, [pc], #-3429	; 6f0 <__dram_freq_start+0x6f0>
 6ec:	79616c65 	stmdbvc	r1!, {r0, r2, r5, r6, sl, fp, sp, lr}^
 6f0:	0100532e 	tsteq	r0, lr, lsr #6
 6f4:	00000000 	andeq	r0, r0, r0
 6f8:	0f940205 	svceq	0x00940205
 6fc:	0d03f000 	stceq	0, cr15, [r3, #-0]
 700:	302f2f01 	eorcc	r2, pc, r1, lsl #30
 704:	2f2f2f2f 	svccs	0x002f2f2f
 708:	02022f30 	andeq	r2, r2, #192	; 0xc0
 70c:	49010100 	stmdbmi	r1, {r8}
 710:	02000001 	andeq	r0, r0, #1
 714:	0000be00 	andeq	fp, r0, r0, lsl #28
 718:	fb010200 	blx	40f22 <__dram_freq_start+0x40f22>
 71c:	01000d0e 	tsteq	r0, lr, lsl #26
 720:	00010101 	andeq	r0, r1, r1, lsl #2
 724:	00010000 	andeq	r0, r1, r0
 728:	2f2e0100 	svccs	0x002e0100
 72c:	2f002e2e 	svccs	0x00002e2e
 730:	6b736964 	blvs	1cdacc8 <__dram_freq_start+0x1cdacc8>
 734:	796b2f32 	stmdbvc	fp!, {r1, r4, r5, r8, r9, sl, fp, sp}^
 738:	2f6e696c 	svccs	0x006e696c
 73c:	e580bce5 	str	fp, [r0, #3301]	; 0xce5
 740:	9de6918f 	stflsp	f1, [r6, #572]!	; 0x23c
 744:	b185e5bf 			; <UNDEFINED> instruction: 0xb185e5bf
 748:	e7abbae4 	str	fp, [fp, r4, ror #21]!
 74c:	bde5ae9b 	stcllt	14, cr10, [r5, #620]!	; 0x26c
 750:	9ce82f95 	stclls	15, cr2, [r8], #596	; 0x254
 754:	9fb8e982 	svcls	0x00b8e982
 758:	2e33762f 	cfmsuba32cs	mvax1, mvax7, mvfx3, mvfx15
 75c:	33562f30 	cmpcc	r6, #192	; 0xc0
 760:	72654d2f 	rsbvc	r4, r5, #3008	; 0xbc0
 764:	4c696972 	stclmi	9, cr6, [r9], #-456	; 0xfffffe38
 768:	78756e69 	ldmdavc	r5!, {r0, r3, r5, r6, r9, sl, fp, sp, lr}^
 76c:	6e696c2f 	cdpvs	12, 6, cr6, cr9, cr15, {1}
 770:	332d7875 	teqcc	sp, #7667712	; 0x750000
 774:	612f342e 	teqvs	pc, lr, lsr #8
 778:	2f686372 	svccs	0x00686372
 77c:	2f6d7261 	svccs	0x006d7261
 780:	6863616d 	stmdavs	r3!, {r0, r2, r3, r5, r6, r8, sp, lr}^
 784:	6e75732d 	cdpvs	3, 7, cr7, cr5, cr13, {1}
 788:	692f6937 	stmdbvs	pc!, {r0, r1, r2, r4, r5, r8, fp, sp, lr}	; <UNPREDICTABLE>
 78c:	756c636e 	strbvc	r6, [ip, #-878]!	; 0x36e
 790:	6d2f6564 	cfstr32vs	mvfx6, [pc, #-400]!	; 608 <__dram_freq_start+0x608>
 794:	00686361 	rsbeq	r6, r8, r1, ror #6
 798:	2e2e2f2e 	cdpcs	15, 2, cr2, cr14, cr14, {1}
 79c:	00002e2f 	andeq	r2, r0, pc, lsr #28
 7a0:	5f6d656d 	svcpl	0x006d656d
 7a4:	696d6974 	stmdbvs	sp!, {r2, r4, r5, r6, r8, fp, sp, lr}^
 7a8:	632e676e 	teqvs	lr, #28835840	; 0x1b80000
 7ac:	00000100 	andeq	r0, r0, r0, lsl #2
 7b0:	745f6d70 	ldrbvc	r6, [pc], #-3440	; 7b8 <__dram_freq_start+0x7b8>
 7b4:	73657079 	cmnvc	r5, #121	; 0x79
 7b8:	0100682e 	tsteq	r0, lr, lsr #16
 7bc:	63630000 	cmnvs	r3, #0
 7c0:	682e756d 	stmdavs	lr!, {r0, r2, r3, r5, r6, r8, sl, ip, sp, lr}
 7c4:	00000200 	andeq	r0, r0, r0, lsl #4
 7c8:	645f6d70 	ldrbvs	r6, [pc], #-3440	; 7d0 <__dram_freq_start+0x7d0>
 7cc:	67756265 	ldrbvs	r6, [r5, -r5, ror #4]!
 7d0:	0300682e 	movweq	r6, #2094	; 0x82e
 7d4:	00000000 	andeq	r0, r0, r0
 7d8:	0fbc0205 	svceq	0x00bc0205
 7dc:	0b03f000 	bleq	fc7e4 <__dram_freq_start+0xfc7e4>
 7e0:	09031401 	stmdbeq	r3, {r0, sl, ip}
 7e4:	31302f66 	teqcc	r0, r6, ror #30
 7e8:	31314d32 	teqcc	r1, r2, lsr sp
 7ec:	314c8514 	cmpcc	ip, r4, lsl r5
 7f0:	31848515 	orrcc	r8, r4, r5, lsl r5
 7f4:	15313015 	ldrne	r3, [r1, #-21]!
 7f8:	03314b4e 	teqeq	r1, #79872	; 0x13800
 7fc:	7503010b 	strvc	r0, [r3, #-267]	; 0x10b
 800:	2e0b0382 	cdpcs	3, 0, cr0, cr11, cr2, {4}
 804:	034a6503 	movteq	r6, #42243	; 0xa503
 808:	4b6a4a23 	blmi	1a9309c <__dram_freq_start+0x1a9309c>
 80c:	30324830 	eorscc	r4, r2, r0, lsr r8
 810:	364c3148 	strbcc	r3, [ip], -r8, asr #2
 814:	03352c29 	teqeq	r5, #10496	; 0x2900
 818:	2f4c2e7a 	svccs	0x004c2e7a
 81c:	ba0b0331 	blt	2c14e8 <__dram_freq_start+0x2c14e8>
 820:	0383352e 	orreq	r3, r3, #192937984	; 0xb800000
 824:	034a7fb4 	movteq	r7, #44980	; 0xafb4
 828:	032e00d3 	teqeq	lr, #211	; 0xd3
 82c:	4d352e79 	ldcmi	14, cr2, [r5, #-484]!	; 0xfffffe1c
 830:	667faa03 	ldrbtvs	sl, [pc], -r3, lsl #20
 834:	2e00d603 	cfmadd32cs	mvax0, mvfx13, mvfx0, mvfx3
 838:	139e2503 	orrsne	r2, lr, #12582912	; 0xc00000
 83c:	21030f4d 	tstcs	r3, sp, asr #30
 840:	0903142e 	stmdbeq	r3, {r1, r2, r3, r5, sl, ip}
 844:	31302f66 	teqcc	r0, r6, ror #30
 848:	31314d32 	teqcc	r1, r2, lsr sp
 84c:	2f3031a4 	svccs	0x003031a4
 850:	31a44e31 			; <UNDEFINED> instruction: 0x31a44e31
 854:	02312f30 	eorseq	r2, r1, #192	; 0xc0
 858:	01010004 	tsteq	r1, r4
 85c:	0000015a 	andeq	r0, r0, sl, asr r1
 860:	002c0002 	eoreq	r0, ip, r2
 864:	01020000 	mrseq	r0, (UNDEF: 2)
 868:	000d0efb 	strdeq	r0, [sp], -fp
 86c:	01010101 	tsteq	r1, r1, lsl #2
 870:	01000000 	mrseq	r0, (UNDEF: 0)
 874:	2e010000 	cdpcs	0, 0, cr0, cr1, cr0, {0}
 878:	002e2e2f 	eoreq	r2, lr, pc, lsr #28
 87c:	6d656d00 	stclvs	13, cr6, [r5, #-0]
 880:	756d6d5f 	strbvc	r6, [sp, #-3423]!	; 0xd5f
 884:	5f63705f 	svcpl	0x0063705f
 888:	2e6d7361 	cdpcs	3, 6, cr7, cr13, cr1, {3}
 88c:	00010053 	andeq	r0, r1, r3, asr r0
 890:	05000000 	streq	r0, [r0, #-0]
 894:	0011e002 	andseq	lr, r1, r2
 898:	010e03f0 	strdeq	r0, [lr, -r0]
 89c:	2f332f2f 	svccs	0x00332f2f
 8a0:	332f332f 	teqcc	pc, #-1140850688	; 0xbc000000
 8a4:	6613032f 	ldrvs	r0, [r3], -pc, lsr #6
 8a8:	2f2f2f2f 	svccs	0x002f2f2f
 8ac:	2f2f302f 	svccs	0x002f302f
 8b0:	2f2f2f2f 	svccs	0x002f2f2f
 8b4:	2f2f2f2f 	svccs	0x002f2f2f
 8b8:	2f2f2f2f 	svccs	0x002f2f2f
 8bc:	2f2f3030 	svccs	0x002f3030
 8c0:	2f2f2f2f 	svccs	0x002f2f2f
 8c4:	302f2f30 	eorcc	r2, pc, r0, lsr pc	; <UNPREDICTABLE>
 8c8:	302f2f30 	eorcc	r2, pc, r0, lsr pc	; <UNPREDICTABLE>
 8cc:	2f2f2f33 	svccs	0x002f2f33
 8d0:	2f332f2f 	svccs	0x00332f2f
 8d4:	2f2f2f2f 	svccs	0x002f2f2f
 8d8:	2f2f302f 	svccs	0x002f302f
 8dc:	2f2f2f2f 	svccs	0x002f2f2f
 8e0:	2f2f2f2f 	svccs	0x002f2f2f
 8e4:	2f2f2f2f 	svccs	0x002f2f2f
 8e8:	2f2f3030 	svccs	0x002f3030
 8ec:	2f2f2f2f 	svccs	0x002f2f2f
 8f0:	302f2f30 	eorcc	r2, pc, r0, lsr pc	; <UNPREDICTABLE>
 8f4:	2f2f2f30 	svccs	0x002f2f30
 8f8:	2f2f342f 	svccs	0x002f342f
 8fc:	2f2f2f2f 	svccs	0x002f2f2f
 900:	2f332f2f 	svccs	0x00332f2f
 904:	2f2f2f2f 	svccs	0x002f2f2f
 908:	2f332f2f 	svccs	0x00332f2f
 90c:	2f2f2f2f 	svccs	0x002f2f2f
 910:	2f2f332f 	svccs	0x002f332f
 914:	2f2f2f2f 	svccs	0x002f2f2f
 918:	2f2f2f34 	svccs	0x002f2f34
 91c:	332f2f2f 	teqcc	pc, #188	; 0xbc
 920:	2f2f2f2f 	svccs	0x002f2f2f
 924:	332f2f2f 	teqcc	pc, #188	; 0xbc
 928:	2f2f2f2f 	svccs	0x002f2f2f
 92c:	0a032f2f 	beq	cc5f0 <__dram_freq_start+0xcc5f0>
 930:	2f2f2f2e 	svccs	0x002f2f2e
 934:	2f342f2f 	svccs	0x00342f2f
 938:	2f2f2f2f 	svccs	0x002f2f2f
 93c:	2f2f332f 	svccs	0x002f332f
 940:	2f2f2f2f 	svccs	0x002f2f2f
 944:	2f2e0903 	svccs	0x002e0903
 948:	2f303030 	svccs	0x00303030
 94c:	332f2f2f 	teqcc	pc, #188	; 0xbc
 950:	2f2f2f30 	svccs	0x002f2f30
 954:	2f2f2f2f 	svccs	0x002f2f2f
 958:	2f2f2f31 	svccs	0x002f2f31
 95c:	2f2f2f2f 	svccs	0x002f2f2f
 960:	2f2f2f31 	svccs	0x002f2f31
 964:	2f2f2f2f 	svccs	0x002f2f2f
 968:	2f2f2f30 	svccs	0x002f2f30
 96c:	2f302f2f 	svccs	0x00302f2f
 970:	0a032f30 	beq	cc638 <__dram_freq_start+0xcc638>
 974:	2f2f2f2e 	svccs	0x002f2f2e
 978:	2f2f3050 	svccs	0x002f3050
 97c:	2f2f3430 	svccs	0x002f3430
 980:	2f30f82f 	svccs	0x0030f82f
 984:	0d03302f 	stceq	0, cr3, [r3, #-188]	; 0xffffff44
 988:	2f2f2f2e 	svccs	0x002f2f2e
 98c:	660c0330 			; <UNDEFINED> instruction: 0x660c0330
 990:	2f2f2f2f 	svccs	0x002f2f2f
 994:	2f502f2f 	svccs	0x00502f2f
 998:	032f306d 	teqeq	pc, #109	; 0x6d
 99c:	352e7cd4 	strcc	r7, [lr, #-3284]!	; 0xcd4
 9a0:	312e3103 	teqcc	lr, r3, lsl #2
 9a4:	2e01e803 	cdpcs	8, 0, cr14, cr1, cr3, {0}
 9a8:	30323030 	eorscc	r3, r2, r0, lsr r0
 9ac:	30323030 	eorscc	r3, r2, r0, lsr r0
 9b0:	30313030 	eorscc	r3, r1, r0, lsr r0
 9b4:	00020230 	andeq	r0, r2, r0, lsr r2
 9b8:	03110101 	tsteq	r1, #1073741824	; 0x40000000
 9bc:	00020000 	andeq	r0, r2, r0
 9c0:	0000005b 	andeq	r0, r0, fp, asr r0
 9c4:	0efb0102 	cdpeq	1, 15, cr0, cr11, cr2, {0}
 9c8:	0101000d 	tsteq	r1, sp
 9cc:	00000101 	andeq	r0, r0, r1, lsl #2
 9d0:	00000100 	andeq	r0, r0, r0, lsl #2
 9d4:	2e2f2e01 	cdpcs	14, 2, cr2, cr15, cr1, {0}
 9d8:	74732f2e 	ldrbtvc	r2, [r3], #-3886	; 0xf2e
 9dc:	62646e61 	rsbvs	r6, r4, #1552	; 0x610
 9e0:	72642f79 	rsbvc	r2, r4, #484	; 0x1e4
 9e4:	2e006d61 	cdpcs	13, 0, cr6, cr0, cr1, {3}
 9e8:	002e2e2f 	eoreq	r2, lr, pc, lsr #28
 9ec:	61726400 	cmnvs	r2, r0, lsl #8
 9f0:	6e695f6d 	cdpvs	15, 6, cr5, cr9, cr13, {3}
 9f4:	632e7469 	teqvs	lr, #1761607680	; 0x69000000
 9f8:	00000100 	andeq	r0, r0, r0, lsl #2
 9fc:	745f6d70 	ldrbvc	r6, [pc], #-3440	; a04 <__dram_freq_start+0xa04>
 a00:	73657079 	cmnvc	r5, #121	; 0x79
 a04:	0200682e 	andeq	r6, r0, #3014656	; 0x2e0000
 a08:	6d700000 	ldclvs	0, cr0, [r0, #-0]
 a0c:	0200682e 	andeq	r6, r0, #3014656	; 0x2e0000
 a10:	72640000 	rsbvc	r0, r4, #0
 a14:	695f6d61 	ldmdbvs	pc, {r0, r5, r6, r8, sl, fp, sp, lr}^	; <UNPREDICTABLE>
 a18:	0100682e 	tsteq	r0, lr, lsr #16
 a1c:	00000000 	andeq	r0, r0, r0
 a20:	16400205 	strbne	r0, [r0], -r5, lsl #4
 a24:	e303f000 	movw	pc, #12288	; 0x3000	; <UNPREDICTABLE>
 a28:	83690100 	cmnhi	r9, #0
 a2c:	834b8367 	movthi	r8, #45927	; 0xb367
 a30:	694d8367 	stmdbvs	sp, {r0, r1, r2, r5, r6, r8, r9, pc}^
 a34:	67836783 	strvs	r6, [r3, r3, lsl #15]
 a38:	67698368 	strbvs	r8, [r9, -r8, ror #6]!
 a3c:	6767834c 	strbvs	r8, [r7, -ip, asr #6]!
 a40:	4c676983 	stclmi	9, cr6, [r7], #-524	; 0xfffffdf4
 a44:	69836783 	stmibvs	r3, {r0, r1, r7, r8, r9, sl, sp, lr}
 a48:	f5750883 			; <UNDEFINED> instruction: 0xf5750883
 a4c:	f44cd94c 	vst2.16	{d29,d31}, [ip], ip
 a50:	4d834d4b 	stcmi	13, cr4, [r3, #300]	; 0x12c
 a54:	6767834c 	strbvs	r8, [r7, -ip, asr #6]!
 a58:	004c6867 	subeq	r6, ip, r7, ror #16
 a5c:	68020402 	stmdavs	r2, {r1, sl}
 a60:	02040200 	andeq	r0, r4, #0
 a64:	00132402 	andseq	r2, r3, r2, lsl #8
 a68:	08020402 	stmdaeq	r2, {r1, sl}
 a6c:	040200c9 	streq	r0, [r2], #-201	; 0xc9
 a70:	02006202 	andeq	r6, r0, #536870912	; 0x20000000
 a74:	66060104 	strvs	r0, [r6], -r4, lsl #2
 a78:	004c8a06 	subeq	r8, ip, r6, lsl #20
 a7c:	68020402 	stmdavs	r2, {r1, sl}
 a80:	02040200 	andeq	r0, r4, #0
 a84:	0200aa08 	andeq	sl, r0, #32768	; 0x8000
 a88:	66060104 	strvs	r0, [r6], -r4, lsl #2
 a8c:	004c8806 	subeq	r8, ip, r6, lsl #16
 a90:	68020402 	stmdavs	r2, {r1, sl}
 a94:	02040200 	andeq	r0, r4, #0
 a98:	0200c608 	andeq	ip, r0, #8388608	; 0x800000
 a9c:	66060104 	strvs	r0, [r6], -r4, lsl #2
 aa0:	4d4b8706 	stclmi	7, cr8, [fp, #-24]	; 0xffffffe8
 aa4:	67678369 	strbvs	r8, [r7, -r9, ror #6]!
 aa8:	67678384 	strbvs	r8, [r7, -r4, lsl #7]!
 aac:	67678384 	strbvs	r8, [r7, -r4, lsl #7]!
 ab0:	67678384 	strbvs	r8, [r7, -r4, lsl #7]!
 ab4:	67678384 	strbvs	r8, [r7, -r4, lsl #7]!
 ab8:	660d0383 	strvs	r0, [sp], -r3, lsl #7
 abc:	04020069 	streq	r0, [r2], #-105	; 0x69
 ac0:	02006802 	andeq	r6, r0, #131072	; 0x20000
 ac4:	56080204 	strpl	r0, [r8], -r4, lsl #4
 ac8:	01040200 	mrseq	r0, R12_usr
 acc:	6b066606 	blvs	19a2ec <__dram_freq_start+0x19a2ec>
 ad0:	02040200 	andeq	r0, r4, #0
 ad4:	04020068 	streq	r0, [r2], #-104	; 0x68
 ad8:	00560802 	subseq	r0, r6, r2, lsl #16
 adc:	06010402 	streq	r0, [r1], -r2, lsl #8
 ae0:	d76b0666 	strble	r0, [fp, -r6, ror #12]!
 ae4:	69a16ad7 	stmibvs	r1!, {r0, r1, r2, r4, r6, r7, r9, fp, sp, lr}
 ae8:	6783834c 	strvs	r8, [r3, ip, asr #6]
 aec:	86a26783 	strthi	r6, [r2], r3, lsl #15
 af0:	4d836785 	stcmi	7, cr6, [r3, #532]	; 0x214
 af4:	67676767 	strbvs	r6, [r7, -r7, ror #14]!
 af8:	673d0867 	ldrvs	r0, [sp, -r7, ror #16]!
 afc:	84676767 	strbthi	r6, [r7], #-1895	; 0x767
 b00:	8567834b 	strbhi	r8, [r7, #-843]!	; 0x34b
 b04:	67838667 	strvs	r8, [r3, r7, ror #12]
 b08:	83674c83 	cmnhi	r7, #33536	; 0x8300
 b0c:	4f844d4c 	svcmi	0x00844d4c
 b10:	67834e69 	strvs	r4, [r3, r9, ror #28]
 b14:	bc9f4e83 	ldclt	14, cr4, [pc], {131}	; 0x83
 b18:	304d31a1 	subcc	r3, sp, r1, lsr #3
 b1c:	4b31a083 	blmi	c68d30 <__dram_freq_start+0xc68d30>
 b20:	84d86783 	ldrbhi	r6, [r8], #1923	; 0x783
 b24:	83838383 	orrhi	r8, r3, #201326594	; 0xc000002
 b28:	83838383 	orrhi	r8, r3, #201326594	; 0xc000002
 b2c:	82760383 	rsbshi	r0, r6, #201326594	; 0xc000002
 b30:	f32e0d03 	vabd.f32	d0, d14, d3
 b34:	856767d7 	strbhi	r6, [r7, #-2007]!	; 0x7d7
 b38:	84a08383 	strthi	r8, [r0], #899	; 0x383
 b3c:	69834c85 	stmibvs	r3, {r0, r2, r7, sl, fp, lr}
 b40:	67bbd7bb 			; <UNDEFINED> instruction: 0x67bbd7bb
 b44:	04020084 	streq	r0, [r2], #-132	; 0x84
 b48:	062e0601 	strteq	r0, [lr], -r1, lsl #12
 b4c:	888383a2 	stmhi	r3, {r1, r5, r7, r8, r9, pc}
 b50:	67834f69 	strvs	r4, [r3, r9, ror #30]
 b54:	02004b85 	andeq	r4, r0, #136192	; 0x21400
 b58:	2e060104 	adfcss	f0, f6, f4
 b5c:	8a83a006 	bhi	fe0e8b7c <__bss_end+0xe0e5844>
 b60:	a19f9f85 	orrsge	r9, pc, r5, lsl #31
 b64:	84d74b84 	ldrbhi	r4, [r7], #2948	; 0xb84
 b68:	68bb4b84 	ldmvs	fp!, {r2, r7, r8, r9, fp, lr}
 b6c:	a19f9f84 	orrsge	r9, pc, r4, lsl #31
 b70:	bc686783 	stcllt	7, cr6, [r8], #-524	; 0xfffffdf4
 b74:	67838568 	strvs	r8, [r3, r8, ror #10]
 b78:	04020084 	streq	r0, [r2], #-132	; 0x84
 b7c:	062e0601 	strteq	r0, [lr], -r1, lsl #12
 b80:	67836ca4 	strvs	r6, [r3, r4, lsr #25]
 b84:	84838385 	strhi	r8, [r3], #901	; 0x385
 b88:	678385d7 			; <UNDEFINED> instruction: 0x678385d7
 b8c:	02008367 	andeq	r8, r0, #-1677721599	; 0x9c000001
 b90:	2e060104 	adfcss	f0, f6, f4
 b94:	a04da006 	subge	sl, sp, r6
 b98:	01040200 	mrseq	r0, R12_usr
 b9c:	d9062e06 	stmdble	r6, {r1, r2, r9, sl, fp, sp}
 ba0:	85676783 	strbhi	r6, [r7, #-1923]!	; 0x783
 ba4:	01040200 	mrseq	r0, R12_usr
 ba8:	a0062e06 	andge	r2, r6, r6, lsl #28
 bac:	03846783 	orreq	r6, r4, #34340864	; 0x20c0000
 bb0:	68304a0e 	ldmdavs	r0!, {r1, r2, r3, r9, fp, lr}
 bb4:	8350684c 	cmphi	r0, #4980736	; 0x4c0000
 bb8:	30898384 	addcc	r8, r9, r4, lsl #7
 bbc:	836a6b4b 	cmnhi	sl, #76800	; 0x12c00
 bc0:	67838567 	strvs	r8, [r3, r7, ror #10]
 bc4:	04020085 	streq	r0, [r2], #-133	; 0x85
 bc8:	062e0601 	strteq	r0, [lr], -r1, lsl #12
 bcc:	4d8483bd 	stcmi	3, cr8, [r4, #756]	; 0x2f4
 bd0:	821f032f 	andshi	r0, pc, #-1140850688	; 0xbc000000
 bd4:	84678485 	strbthi	r8, [r7], #-1157	; 0x485
 bd8:	0d038368 	stceq	3, cr8, [r3, #-416]	; 0xfffffe60
 bdc:	820f0366 	andhi	r0, pc, #-1744830463	; 0x98000001
 be0:	9fbb9f4b 	svcls	0x00bb9f4b
 be4:	12038867 	andne	r8, r3, #6750208	; 0x670000
 be8:	83836b66 	orrhi	r6, r3, #104448	; 0x19800
 bec:	67676767 	strbvs	r6, [r7, -r7, ror #14]!
 bf0:	67676767 	strbvs	r6, [r7, -r7, ror #14]!
 bf4:	9f4c6867 	svcls	0x004c6867
 bf8:	9f679f67 	svcls	0x00679f67
 bfc:	4c862f68 	stcmi	15, cr2, [r6], {104}	; 0x68
 c00:	0385862f 	orreq	r8, r5, #49283072	; 0x2f00000
 c04:	836a660c 	cmnhi	sl, #12582912	; 0xc00000
 c08:	67838467 	strvs	r8, [r3, r7, ror #8]
 c0c:	02008567 	andeq	r8, r0, #432013312	; 0x19c00000
 c10:	2e060104 	adfcss	f0, f6, f4
 c14:	4e4b9f06 	cdpmi	15, 4, cr9, cr11, cr6, {0}
 c18:	83678386 	cmnhi	r7, #402653186	; 0x18000002
 c1c:	4c83674b 	stcmi	7, cr6, [r3], {75}	; 0x4b
 c20:	67676767 	strbvs	r6, [r7, -r7, ror #14]!
 c24:	673d0867 	ldrvs	r0, [sp, -r7, ror #16]!
 c28:	84676767 	strbthi	r6, [r7], #-1895	; 0x767
 c2c:	8367834b 	cmnhi	r7, #738197505	; 0x2c000001
 c30:	50bb504c 	adcspl	r5, fp, ip, asr #32
 c34:	4a18039f 	bmi	601ab8 <__dram_freq_start+0x601ab8>
 c38:	4c2f306b 	stcmi	0, cr3, [pc], #-428	; a94 <__dram_freq_start+0xa94>
 c3c:	832f4b4b 	teqhi	pc, #76800	; 0x12c00
 c40:	4c4d4b4c 	mcrrmi	11, 4, r4, sp, cr12
 c44:	67834d84 	strvs	r4, [r3, r4, lsl #27]
 c48:	67678385 	strbvs	r8, [r7, -r5, lsl #7]!
 c4c:	04020083 	streq	r0, [r2], #-131	; 0x83
 c50:	062e0601 	strteq	r0, [lr], -r1, lsl #12
 c54:	67834da0 	strvs	r4, [r3, r0, lsr #27]
 c58:	02008567 	andeq	r8, r0, #432013312	; 0x19c00000
 c5c:	2e060104 	adfcss	f0, f6, f4
 c60:	9e090306 	cdpls	3, 0, cr0, cr9, cr6, {0}
 c64:	30846783 	addcc	r6, r4, r3, lsl #15
 c68:	686ad8d7 	stmdavs	sl!, {r0, r1, r2, r4, r6, r7, fp, ip, lr, pc}^
 c6c:	834c2f30 	movthi	r2, #53040	; 0xcf30
 c70:	4d832f4b 	stcmi	15, cr2, [r3, #300]	; 0x12c
 c74:	84844d4b 	strhi	r4, [r4], #3403	; 0xd4b
 c78:	8567834d 	strbhi	r8, [r7, #-845]!	; 0x34d
 c7c:	83676783 	cmnhi	r7, #34340864	; 0x20c0000
 c80:	01040200 	mrseq	r0, R12_usr
 c84:	a0062e06 	andge	r2, r6, r6, lsl #28
 c88:	6767834d 	strbvs	r8, [r7, -sp, asr #6]!
 c8c:	04020085 	streq	r0, [r2], #-133	; 0x85
 c90:	062e0601 	strteq	r0, [lr], -r1, lsl #12
 c94:	839e0903 	orrshi	r0, lr, #49152	; 0xc000
 c98:	83308467 	teqhi	r0, #1728053248	; 0x67000000
 c9c:	03848384 	orreq	r8, r4, #268435458	; 0x10000002
 ca0:	036a4a11 	cmneq	sl, #69632	; 0x11000
 ca4:	4b4b820a 	blmi	12e14d4 <__dram_freq_start+0x12e14d4>
 ca8:	02006730 	andeq	r6, r0, #12582912	; 0xc00000
 cac:	00630104 	rsbeq	r0, r3, r4, lsl #2
 cb0:	06020402 	streq	r0, [r2], -r2, lsl #8
 cb4:	2f6b0666 	svccs	0x006b0666
 cb8:	852f4b6a 	strhi	r4, [pc, #-2922]!	; 156 <__dram_freq_start+0x156>
 cbc:	834d4b4b 	movthi	r4, #56139	; 0xdb4b
 cc0:	2f4b4d83 	svccs	0x004b4d83
 cc4:	4d4b8331 	stclmi	3, cr8, [fp, #-196]	; 0xffffff3c
 cc8:	04024b4b 	streq	r4, [r2], #-2891	; 0xb4b
 ccc:	Address 0x00000ccc is out of bounds.


Disassembly of section .debug_str:

00000000 <.debug_str>:
       0:	6d617264 	sfmvs	f7, 2, [r1, #-400]!	; 0xfffffe70
       4:	6572665f 	ldrbvs	r6, [r2, #-1631]!	; 0x65f
       8:	616d5f71 	smcvs	54769	; 0xd5f1
       c:	5f006e69 	svcpl	0x00006e69
      10:	7373625f 	cmnvc	r3, #-268435451	; 0xf0000005
      14:	646e655f 	strbtvs	r6, [lr], #-1375	; 0x55f
      18:	6f687300 	svcvs	0x00687300
      1c:	69207472 	stmdbvs	r0!, {r1, r4, r5, r6, sl, ip, sp, lr}
      20:	6400746e 	strvs	r7, [r0], #-1134	; 0x46e
      24:	5f6d6172 	svcpl	0x006d6172
      28:	70737573 	rsbsvc	r7, r3, r3, ror r5
      2c:	5f646e65 	svcpl	0x00646e65
      30:	67616c66 	strbvs	r6, [r1, -r6, ror #24]!
      34:	69642f00 	stmdbvs	r4!, {r8, r9, sl, fp, sp}^
      38:	2f326b73 	svccs	0x00326b73
      3c:	696c796b 	stmdbvs	ip!, {r0, r1, r3, r5, r6, r8, fp, ip, sp, lr}^
      40:	bce52f6e 	stcllt	15, cr2, [r5], #440	; 0x1b8
      44:	918fe580 	orrls	lr, pc, r0, lsl #11
      48:	e5bf9de6 	ldr	r9, [pc, #3558]!	; e36 <__dram_freq_start+0xe36>
      4c:	bae4b185 	blt	ff92c668 <__bss_end+0xf929330>
      50:	ae9be7ab 	cdpge	7, 9, cr14, cr11, cr11, {5}
      54:	2f95bde5 	svccs	0x0095bde5
      58:	e9829ce8 	stmib	r2, {r3, r5, r6, r7, sl, fp, ip, pc}
      5c:	762f9fb8 			; <UNDEFINED> instruction: 0x762f9fb8
      60:	2f302e33 	svccs	0x00302e33
      64:	4d2f3356 	stcmi	3, cr3, [pc, #-344]!	; ffffff14 <__bss_end+0xfffcbdc>
      68:	69727265 	ldmdbvs	r2!, {r0, r2, r5, r6, r9, ip, sp, lr}^
      6c:	6e694c69 	cdpvs	12, 6, cr4, cr9, cr9, {3}
      70:	6c2f7875 	stcvs	8, cr7, [pc], #-468	; fffffea4 <__bss_end+0xfffcb6c>
      74:	78756e69 	ldmdavc	r5!, {r0, r3, r5, r6, r9, sl, fp, sp, lr}^
      78:	342e332d 	strtcc	r3, [lr], #-813	; 0x32d
      7c:	6372612f 	cmnvs	r2, #-1073741813	; 0xc000000b
      80:	72612f68 	rsbvc	r2, r1, #416	; 0x1a0
      84:	616d2f6d 	cmnvs	sp, sp, ror #30
      88:	732d6863 	teqvc	sp, #6488064	; 0x630000
      8c:	69376e75 	ldmdbvs	r7!, {r0, r2, r4, r5, r6, r9, sl, fp, sp, lr}
      90:	2f6d702f 	svccs	0x006d702f
      94:	6d617264 	sfmvs	f7, 2, [r1, #-400]!	; 0xfffffe70
      98:	6572662d 	ldrbvs	r6, [r2, #-1581]!	; 0x62d
      9c:	72640071 	rsbvc	r0, r4, #113	; 0x71
      a0:	685f6d61 	ldmdavs	pc, {r0, r5, r6, r8, sl, fp, sp, lr}^	; <UNPREDICTABLE>
      a4:	5f74736f 	svcpl	0x0074736f
      a8:	65766173 	ldrbvs	r6, [r6, #-371]!	; 0x173
      ac:	61726400 	cmnvs	r2, r0, lsl #8
      b0:	6f685f6d 	svcvs	0x00685f6d
      b4:	645f7473 	ldrbvs	r7, [pc], #-1139	; bc <__dram_freq_start+0xbc>
      b8:	62617369 	rsbvs	r7, r1, #-1543503871	; 0xa4000001
      bc:	5f00656c 	svcpl	0x0000656c
      c0:	3233755f 	eorscc	r7, r3, #398458880	; 0x17c00000
      c4:	61726400 	cmnvs	r2, r0, lsl #8
      c8:	72745f6d 	rsbsvc	r5, r4, #436	; 0x1b4
      cc:	6e696e61 	cdpvs	14, 6, cr6, cr9, cr1, {3}
      d0:	61625f67 	cmnvs	r2, r7, ror #30
      d4:	64006b63 	strvs	r6, [r0], #-2915	; 0xb63
      d8:	5f6d6172 	svcpl	0x006d6172
      dc:	30727074 	rsbscc	r7, r2, r4, ror r0
      e0:	61726400 	cmnvs	r2, r0, lsl #8
      e4:	70745f6d 	rsbsvc	r5, r4, sp, ror #30
      e8:	64003172 	strvs	r3, [r0], #-370	; 0x172
      ec:	5f6d6172 	svcpl	0x006d6172
      f0:	32727074 	rsbscc	r7, r2, #116	; 0x74
      f4:	61726400 	cmnvs	r2, r0, lsl #8
      f8:	70745f6d 	rsbsvc	r5, r4, sp, ror #30
      fc:	64003372 	strvs	r3, [r0], #-882	; 0x372
     100:	5f6d6172 	svcpl	0x006d6172
     104:	34727074 	ldrbtcc	r7, [r2], #-116	; 0x74
     108:	61726400 	cmnvs	r2, r0, lsl #8
     10c:	70745f6d 	rsbsvc	r5, r4, sp, ror #30
     110:	6c003572 	cfstr32vs	mvfx3, [r0], {114}	; 0x72
     114:	20676e6f 	rsbcs	r6, r7, pc, ror #28
     118:	676e6f6c 	strbvs	r6, [lr, -ip, ror #30]!
     11c:	746e6920 	strbtvc	r6, [lr], #-2336	; 0x920
     120:	706d7400 	rsbvc	r7, sp, r0, lsl #8
     124:	7261705f 	rsbvc	r7, r1, #95	; 0x5f
     128:	72640061 	rsbvc	r0, r4, #97	; 0x61
     12c:	655f6d61 	ldrbvs	r6, [pc, #-3425]	; fffff3d3 <__bss_end+0xfffc09b>
     130:	0031726d 	eorseq	r7, r1, sp, ror #4
     134:	20554e47 	subscs	r4, r5, r7, asr #28
     138:	2e342043 	cdpcs	0, 3, cr2, cr4, cr3, {2}
     13c:	20332e36 	eorscs	r2, r3, r6, lsr lr
     140:	32313032 	eorscc	r3, r1, #50	; 0x32
     144:	31303230 	teqcc	r0, r0, lsr r2
     148:	72702820 	rsbsvc	r2, r0, #2097152	; 0x200000
     14c:	6c657265 	sfmvs	f7, 2, [r5], #-404	; 0xfffffe6c
     150:	65736165 	ldrbvs	r6, [r3, #-357]!	; 0x165
     154:	72660029 	rsbvc	r0, r6, #41	; 0x29
     158:	705f7165 	subsvc	r7, pc, r5, ror #2
     15c:	746e696f 	strbtvc	r6, [lr], #-2415	; 0x96f
     160:	61747300 	cmnvs	r4, r0, lsl #6
     164:	5f79646e 	svcpl	0x0079646e
     168:	6d617264 	sfmvs	f7, 2, [r1, #-400]!	; 0xfffffe70
     16c:	7261705f 	rsbvc	r7, r1, #95	; 0x5f
     170:	00745f61 	rsbseq	r5, r4, r1, ror #30
     174:	6d617264 	sfmvs	f7, 2, [r1, #-400]!	; 0xfffffe70
     178:	6572665f 	ldrbvs	r6, [r2, #-1631]!	; 0x65f
     17c:	756a5f71 	strbvc	r5, [sl, #-3953]!	; 0xf71
     180:	6d74006d 	ldclvs	0, cr0, [r4, #-436]!	; 0xfffffe4c
     184:	72745070 	rsbsvc	r5, r4, #112	; 0x70
     188:	61726400 	cmnvs	r2, r0, lsl #8
     18c:	6f635f6d 	svcvs	0x00635f6d
     190:	65746e75 	ldrbvs	r6, [r4, #-3701]!	; 0xe75
     194:	65725f72 	ldrbvs	r5, [r2, #-3954]!	; 0xf72
     198:	00746573 	rsbseq	r6, r4, r3, ror r5
     19c:	72645f67 	rsbvc	r5, r4, #412	; 0x19c
     1a0:	705f6d61 	subsvc	r6, pc, r1, ror #26
     1a4:	00617261 	rsbeq	r7, r1, r1, ror #4
     1a8:	73625f5f 	cmnvc	r2, #380	; 0x17c
     1ac:	74735f73 	ldrbtvc	r5, [r3], #-3955	; 0xf73
     1b0:	00747261 	rsbseq	r7, r4, r1, ror #4
     1b4:	69736e75 	ldmdbvs	r3!, {r0, r2, r4, r5, r6, r9, sl, fp, sp, lr}^
     1b8:	64656e67 	strbtvs	r6, [r5], #-3687	; 0xe67
     1bc:	61686320 	cmnvs	r8, r0, lsr #6
     1c0:	6f6c0072 	svcvs	0x006c0072
     1c4:	6c20676e 	stcvs	7, cr6, [r0], #-440	; 0xfffffe48
     1c8:	20676e6f 	rsbcs	r6, r7, pc, ror #28
     1cc:	69736e75 	ldmdbvs	r3!, {r0, r2, r4, r5, r6, r9, sl, fp, sp, lr}^
     1d0:	64656e67 	strbtvs	r6, [r5], #-3687	; 0xe67
     1d4:	746e6920 	strbtvc	r6, [lr], #-2336	; 0x920
     1d8:	61726400 	cmnvs	r2, r0, lsl #8
     1dc:	646f5f6d 	strbtvs	r5, [pc], #-3949	; 1e4 <__dram_freq_start+0x1e4>
     1e0:	6e655f74 	mcrvs	15, 3, r5, cr5, cr4, {3}
     1e4:	61726400 	cmnvs	r2, r0, lsl #8
     1e8:	68635f6d 	stmdavs	r3!, {r0, r2, r3, r5, r6, r8, r9, sl, fp, ip, lr}^
     1ec:	645f7069 	ldrbvs	r7, [pc], #-105	; 1f4 <__dram_freq_start+0x1f4>
     1f0:	69736e65 	ldmdbvs	r3!, {r0, r2, r5, r6, r9, sl, fp, sp, lr}^
     1f4:	73007974 	movwvc	r7, #2420	; 0x974
     1f8:	61725f70 	cmnvs	r2, r0, ror pc
     1fc:	7073006d 	rsbsvc	r0, r3, sp, rrx
     200:	6361625f 	cmnvs	r1, #-268435451	; 0xf0000005
     204:	0070756b 	rsbseq	r7, r0, fp, ror #10
     208:	6f6f625f 	svcvs	0x006f625f
     20c:	72645f74 	rsbvc	r5, r4, #464	; 0x1d0
     210:	705f6d61 	subsvc	r6, pc, r1, ror #26
     214:	5f617261 	svcpl	0x00617261
     218:	68730074 	ldmdavs	r3!, {r2, r4, r5, r6}^
     21c:	2074726f 	rsbscs	r7, r4, pc, ror #4
     220:	69736e75 	ldmdbvs	r3!, {r0, r2, r4, r5, r6, r9, sl, fp, sp, lr}^
     224:	64656e67 	strbtvs	r6, [r5], #-3687	; 0xe67
     228:	746e6920 	strbtvc	r6, [lr], #-2336	; 0x920
     22c:	706d7400 	rsbvc	r7, sp, r0, lsl #8
     230:	6372735f 	cmnvs	r2, #2080374785	; 0x7c000001
     234:	61726400 	cmnvs	r2, r0, lsl #8
     238:	6f635f6d 	svcvs	0x00635f6d
     23c:	65746e75 	ldrbvs	r6, [r4, #-3701]!	; 0xe75
     240:	65725f72 	ldrbvs	r5, [r2, #-3954]!	; 0xf72
     244:	64006461 	strvs	r6, [r0], #-1121	; 0x461
     248:	5f6d6172 	svcpl	0x006d6172
     24c:	71657266 	cmnvc	r5, r6, ror #4
     250:	746e655f 	strbtvc	r6, [lr], #-1375	; 0x55f
     254:	632e7972 	teqvs	lr, #1867776	; 0x1c8000
     258:	61747300 	cmnvs	r4, r0, lsl #6
     25c:	7962646e 	stmdbvc	r2!, {r1, r2, r3, r5, r6, sl, sp, lr}^
     260:	6d656d5f 	stclvs	13, cr6, [r5, #-380]!	; 0xfffffe84
     264:	00797063 	rsbseq	r7, r9, r3, rrx
     268:	6d617264 	sfmvs	f7, 2, [r1, #-400]!	; 0xfffffe70
     26c:	6e61725f 	mcrvs	2, 3, r7, cr1, cr15, {2}
     270:	756e5f6b 	strbvc	r5, [lr, #-3947]!	; 0xf6b
     274:	6d74006d 	ldclvs	0, cr0, [r4, #-436]!	; 0xfffffe4c
     278:	73645f70 	cmnvc	r4, #448	; 0x1c0
     27c:	72640074 	rsbvc	r0, r4, #116	; 0x74
     280:	625f6d61 	subsvs	r6, pc, #6208	; 0x1840
     284:	61657361 	cmnvs	r5, r1, ror #6
     288:	00726464 	rsbseq	r6, r2, r4, ror #8
     28c:	6d617264 	sfmvs	f7, 2, [r1, #-400]!	; 0xfffffe70
     290:	736f685f 	cmnvc	pc, #6225920	; 0x5f0000
     294:	61625f74 	smcvs	9716	; 0x25f4
     298:	70006b63 	andvc	r6, r0, r3, ror #22
     29c:	65746e65 	ldrbvs	r6, [r4, #-3685]!	; 0xe65
     2a0:	64615f72 	strbtvs	r5, [r1], #-3954	; 0xf72
     2a4:	64007264 	strvs	r7, [r0], #-612	; 0x264
     2a8:	5f6d6172 	svcpl	0x006d6172
     2ac:	6400717a 	strvs	r7, [r0], #-378	; 0x17a
     2b0:	5f6d6172 	svcpl	0x006d6172
     2b4:	32726d65 	rsbscc	r6, r2, #6464	; 0x1940
     2b8:	61726400 	cmnvs	r2, r0, lsl #8
     2bc:	6d655f6d 	stclvs	15, cr5, [r5, #-436]!	; 0xfffffe4c
     2c0:	70003372 	andvc	r3, r0, r2, ror r3
     2c4:	6d617264 	sfmvs	f7, 2, [r1, #-400]!	; 0xfffffe70
     2c8:	7261705f 	rsbvc	r7, r1, #95	; 0x5f
     2cc:	65720061 	ldrbvs	r0, [r2, #-97]!	; 0x61
     2d0:	6c617667 	stclvs	6, cr7, [r1], #-412	; 0xfffffe64
     2d4:	61726400 	cmnvs	r2, r0, lsl #8
     2d8:	6f635f6d 	svcvs	0x00635f6d
     2dc:	65746e75 	ldrbvs	r6, [r4, #-3701]!	; 0xe75
     2e0:	6e655f72 	mcrvs	15, 3, r5, cr5, cr2, {3}
     2e4:	656c6261 	strbvs	r6, [ip, #-609]!	; 0x261
     2e8:	61726400 	cmnvs	r2, r0, lsl #8
     2ec:	6c635f6d 	stclvs	15, cr5, [r3], #-436	; 0xfffffe4c
     2f0:	7264006b 	rsbvc	r0, r4, #107	; 0x6b
     2f4:	625f6d61 	subsvs	r6, pc, #6208	; 0x1840
     2f8:	775f7375 			; <UNDEFINED> instruction: 0x775f7375
     2fc:	68746469 	ldmdavs	r4!, {r0, r3, r5, r6, sl, sp, lr}^
     300:	61726400 	cmnvs	r2, r0, lsl #8
     304:	6f685f6d 	svcvs	0x00685f6d
     308:	725f7473 	subsvc	r7, pc, #1929379840	; 0x73000000
     30c:	6f747365 	svcvs	0x00747365
     310:	64006572 	strvs	r6, [r0], #-1394	; 0x572
     314:	5f6d6172 	svcpl	0x006d6172
     318:	775f6f69 	ldrbvc	r6, [pc, -r9, ror #30]
     31c:	68746469 	ldmdavs	r4!, {r0, r3, r5, r6, sl, sp, lr}^
     320:	61726400 	cmnvs	r2, r0, lsl #8
     324:	79745f6d 	ldmdbvc	r4!, {r0, r2, r3, r5, r6, r8, r9, sl, fp, ip, lr}^
     328:	64006570 	strvs	r6, [r0], #-1392	; 0x570
     32c:	5f6d6172 	svcpl	0x006d6172
     330:	00736163 	rsbseq	r6, r3, r3, ror #2
     334:	69726573 	ldmdbvs	r2!, {r0, r1, r4, r5, r6, r8, sl, sp, lr}^
     338:	705f6c61 	subsvc	r6, pc, r1, ror #24
     33c:	635f7475 	cmpvs	pc, #1962934272	; 0x75000000
     340:	00726168 	rsbseq	r6, r2, r8, ror #2
     344:	2e2e2f2e 	cdpcs	15, 2, cr2, cr14, cr14, {1}
     348:	6d656d2f 	stclvs	13, cr6, [r5, #-188]!	; 0xffffff44
     34c:	7265735f 	rsbvc	r7, r5, #2080374785	; 0x7c000001
     350:	2e6c6169 	powcsez	f6, f4, #1.0
     354:	65730063 	ldrbvs	r0, [r3, #-99]!	; 0x63
     358:	6c616972 	stclvs	9, cr6, [r1], #-456	; 0xfffffe38
     35c:	696e695f 	stmdbvs	lr!, {r0, r1, r2, r3, r4, r6, r8, fp, sp, lr}^
     360:	6f6e5f74 	svcvs	0x006e5f74
     364:	00756d6d 	rsbseq	r6, r5, sp, ror #26
     368:	69726573 	ldmdbvs	r2!, {r0, r1, r4, r5, r6, r8, sl, sp, lr}^
     36c:	675f6c61 	ldrbvs	r6, [pc, -r1, ror #24]
     370:	635f7465 	cmpvs	pc, #1694498816	; 0x65000000
     374:	00726168 	rsbseq	r6, r2, r8, ror #2
     378:	69726573 	ldmdbvs	r2!, {r0, r1, r4, r5, r6, r8, sl, sp, lr}^
     37c:	705f6c61 	subsvc	r6, pc, r1, ror #24
     380:	00737475 	rsbseq	r7, r3, r5, ror r4
     384:	33735f5f 	cmncc	r3, #380	; 0x17c
     388:	69740032 	ldmdbvs	r4!, {r1, r4, r5}^
     38c:	7300656d 	movwvc	r6, #1389	; 0x56d
     390:	61697265 	cmnvs	r9, r5, ror #4
     394:	6e695f6c 	cdpvs	15, 6, cr5, cr9, cr12, {3}
     398:	73007469 	movwvc	r7, #1129	; 0x469
     39c:	61697265 	cmnvs	r9, r5, ror #4
     3a0:	75705f6c 	ldrbvc	r5, [r0, #-3948]!	; 0xf6c
     3a4:	6e5f7374 	mrcvs	3, 2, r7, cr15, cr4, {3}
     3a8:	756d6d6f 	strbvc	r6, [sp, #-3439]!	; 0xd6f
     3ac:	72657300 	rsbvc	r7, r5, #0
     3b0:	5f6c6169 	svcpl	0x006c6169
     3b4:	73746567 	cmnvc	r4, #432013312	; 0x19c00000
     3b8:	6d6f6e5f 	stclvs	14, cr6, [pc, #-380]!	; 244 <__dram_freq_start+0x244>
     3bc:	7300756d 	movwvc	r7, #1389	; 0x56d
     3c0:	61697265 	cmnvs	r9, r5, ror #4
     3c4:	65675f6c 	strbvs	r5, [r7, #-3948]!	; 0xf6c
     3c8:	68635f74 	stmdavs	r3!, {r2, r4, r5, r6, r8, r9, sl, fp, ip, lr}^
     3cc:	6e5f7261 	cdpvs	2, 5, cr7, cr15, cr1, {3}
     3d0:	756d6d6f 	strbvc	r6, [sp, #-3439]!	; 0xd6f
     3d4:	72657300 	rsbvc	r7, r5, #0
     3d8:	5f6c6169 	svcpl	0x006c6169
     3dc:	73746567 	cmnvc	r4, #432013312	; 0x19c00000
     3e0:	63327000 	teqvs	r2, #0
     3e4:	70006b6c 	andvc	r6, r0, ip, ror #22
     3e8:	00637273 	rsbeq	r7, r3, r3, ror r2
     3ec:	657a6973 	ldrbvs	r6, [sl, #-2419]!	; 0x973
     3f0:	6100745f 	tstvs	r0, pc, asr r4
     3f4:	00736772 	rsbseq	r6, r3, r2, ror r7
     3f8:	69676964 	stmdbvs	r7!, {r2, r5, r6, r8, fp, sp, lr}^
     3fc:	74735f74 	ldrbtvc	r5, [r3], #-3956	; 0xf74
     400:	676e6972 			; <UNDEFINED> instruction: 0x676e6972
     404:	61747300 	cmnvs	r4, r0, lsl #6
     408:	64006b63 	strvs	r6, [r0], #-2915	; 0xb63
     40c:	67756265 	ldrbvs	r6, [r5, -r5, ror #4]!
     410:	5f726567 	svcpl	0x00726567
     414:	66667562 	strbtvs	r7, [r6], -r2, ror #10
     418:	5f007265 	svcpl	0x00007265
     41c:	756e675f 	strbvc	r6, [lr, #-1887]!	; 0x75f
     420:	61765f63 	cmnvs	r6, r3, ror #30
     424:	73696c5f 	cmnvc	r9, #24320	; 0x5f00
     428:	5f5f0074 	svcpl	0x005f0074
     42c:	6c5f6176 	ldfvse	f6, [pc], {118}	; 0x76
     430:	00747369 	rsbseq	r7, r4, r9, ror #6
     434:	6e697270 	mcrvs	2, 3, r7, cr9, cr0, {3}
     438:	6c615f74 	stclvs	15, cr5, [r1], #-464	; 0xfffffe30
     43c:	006e6769 	rsbeq	r6, lr, r9, ror #14
     440:	63727473 	cmnvs	r2, #1929379840	; 0x73000000
     444:	69007970 	stmdbvs	r0, {r4, r5, r6, r8, fp, ip, sp, lr}
     448:	00616f74 	rsbeq	r6, r1, r4, ror pc
     44c:	63727473 	cmnvs	r2, #1929379840	; 0x73000000
     450:	73007461 	movwvc	r7, #1121	; 0x461
     454:	636e7274 	cmnvs	lr, #1073741831	; 0x40000007
     458:	70007970 	andvc	r7, r0, r0, ror r9
     45c:	74736564 	ldrbtvc	r6, [r3], #-1380	; 0x564
     460:	72747300 	rsbsvc	r7, r4, #0
     464:	7461636e 	strbtvc	r6, [r1], #-878	; 0x36e
     468:	726f6600 	rsbvc	r6, pc, #0
     46c:	0074616d 	rsbseq	r6, r4, sp, ror #2
     470:	6c727473 	cfldrdvs	mvd7, [r2], #-460	; 0xfffffe34
     474:	5f006e65 	svcpl	0x00006e65
     478:	0070615f 	rsbseq	r6, r0, pc, asr r1
     47c:	6c6c6966 	stclvs	9, cr6, [ip], #-408	; 0xfffffe68
     480:	0068635f 	rsbeq	r6, r8, pc, asr r3
     484:	63727473 	cmnvs	r2, #1929379840	; 0x73000000
     488:	7500706d 	strvc	r7, [r0, #-109]	; 0x6d
     48c:	00616f74 	rsbeq	r6, r1, r4, ror pc
     490:	6e727473 	mrcvs	4, 3, r7, cr2, cr3, {3}
     494:	00706d63 	rsbseq	r6, r0, r3, ror #26
     498:	6e697270 	mcrvs	2, 3, r7, cr9, cr0, {3}
     49c:	72006b74 	andvc	r6, r0, #118784	; 0x1d000
     4a0:	78696461 	stmdavc	r9!, {r0, r5, r6, sl, sp, lr}^
     4a4:	2e2f2e00 	cdpcs	14, 2, cr2, cr15, cr0, {0}
     4a8:	656d2f2e 	strbvs	r2, [sp, #-3886]!	; 0xf2e
     4ac:	72705f6d 	rsbsvc	r5, r0, #436	; 0x1b4
     4b0:	6b746e69 	blvs	1d1be5c <__dram_freq_start+0x1d1be5c>
     4b4:	7000632e 	andvc	r6, r0, lr, lsr #6
     4b8:	746e6972 	strbtvc	r6, [lr], #-2418	; 0x972
     4bc:	6f6e5f6b 	svcvs	0x006e5f6b
     4c0:	00756d6d 	rsbseq	r6, r5, sp, ror #26
     4c4:	6167656e 	cmnvs	r7, lr, ror #10
     4c8:	65766974 	ldrbvs	r6, [r6, #-2420]!	; 0x974
     4cc:	645f5f00 	ldrbvs	r5, [pc], #-3840	; 4d4 <__dram_freq_start+0x4d4>
     4d0:	00307669 	eorseq	r7, r0, r9, ror #12
     4d4:	51706d74 	cmnpl	r0, r4, ror sp
     4d8:	00746f75 	rsbseq	r6, r4, r5, ror pc
     4dc:	69766964 	ldmdbvs	r6!, {r2, r5, r6, r8, fp, sp, lr}^
     4e0:	726f6973 	rsbvc	r6, pc, #1884160	; 0x1cc000
     4e4:	2e2f2e00 	cdpcs	14, 2, cr2, cr15, cr0, {0}
     4e8:	656d2f2e 	strbvs	r2, [sp, #-3886]!	; 0xf2e
     4ec:	69645f6d 	stmdbvs	r4!, {r0, r2, r3, r5, r6, r8, r9, sl, fp, ip, lr}^
     4f0:	62696c76 	rsbvs	r6, r9, #30208	; 0x7600
     4f4:	00632e63 	rsbeq	r2, r3, r3, ror #28
     4f8:	69766964 	ldmdbvs	r6!, {r2, r5, r6, r8, fp, sp, lr}^
     4fc:	646e6564 	strbtvs	r6, [lr], #-1380	; 0x564
     500:	77617200 	strbvc	r7, [r1, -r0, lsl #4]!
     504:	62696c5f 	rsbvs	r6, r9, #24320	; 0x5f00
     508:	6964755f 	stmdbvs	r4!, {r0, r1, r2, r3, r4, r6, r8, sl, ip, sp, lr}^
     50c:	6d740076 	ldclvs	0, cr0, [r4, #-472]!	; 0xfffffe28
     510:	76694470 			; <UNDEFINED> instruction: 0x76694470
     514:	69687300 	stmdbvs	r8!, {r8, r9, ip, sp, lr}^
     518:	49007466 	stmdbmi	r0, {r1, r2, r5, r6, sl, ip, sp, lr}
     51c:	4341435f 	movtmi	r4, #4959	; 0x135f
     520:	4d5f4548 	cfldr64mi	mvdx4, [pc, #-288]	; 408 <__dram_freq_start+0x408>
     524:	00535349 	subseq	r5, r3, r9, asr #6
     528:	65736552 	ldrbvs	r6, [r3, #-1362]!	; 0x552
     52c:	5f5f0074 	svcpl	0x005f0074
     530:	756d6363 	strbvc	r6, [sp, #-867]!	; 0x363
     534:	6268615f 	rsbvs	r6, r8, #-1073741801	; 0xc0000017
     538:	5f6b6c63 	svcpl	0x006b6c63
     53c:	65746167 	ldrbvs	r6, [r4, #-359]!	; 0x167
     540:	65725f30 	ldrbvs	r5, [r2, #-3888]!	; 0xf30
     544:	36303067 	ldrtcc	r3, [r0], -r7, rrx
     548:	00745f30 	rsbseq	r5, r4, r0, lsr pc
     54c:	32733249 	rsbscc	r3, r3, #-1879048188	; 0x90000004
     550:	006b6c43 	rsbeq	r6, fp, r3, asr #24
     554:	63635f5f 	cmnvs	r3, #380	; 0x17c
     558:	705f756d 	subsvc	r7, pc, sp, ror #10
     55c:	5f386c6c 	svcpl	0x00386c6c
     560:	5f757067 	svcpl	0x00757067
     564:	30676572 	rsbcc	r6, r7, r2, ror r5
     568:	5f303430 	svcpl	0x00303430
     56c:	65560074 	ldrbvs	r0, [r6, #-116]	; 0x74
     570:	006b6c43 	rsbeq	r6, fp, r3, asr #24
     574:	63635f5f 	cmnvs	r3, #380	; 0x17c
     578:	685f756d 	ldmdavs	pc, {r0, r2, r3, r5, r6, r8, sl, ip, sp, lr}^	; <UNPREDICTABLE>
     57c:	5f696d64 	svcpl	0x00696d64
     580:	5f6b6c63 	svcpl	0x006b6c63
     584:	30676572 	rsbcc	r6, r7, r2, ror r5
     588:	5f303531 	svcpl	0x00303531
     58c:	5f5f0074 	svcpl	0x005f0074
     590:	554d4343 	strbpl	r4, [sp, #-835]	; 0x343
     594:	4248415f 	submi	r4, r8, #-1073741801	; 0xc0000017
     598:	5f4b4c43 	svcpl	0x004b4c43
     59c:	45544147 	ldrbmi	r4, [r4, #-327]	; 0x147
     5a0:	45525f30 	ldrbmi	r5, [r2, #-3888]	; 0xf30
     5a4:	36303047 	ldrtcc	r3, [r0], -r7, asr #32
     5a8:	78540030 	ldmdavc	r4, {r4, r5}^
     5ac:	536b6c43 	cmnpl	fp, #17152	; 0x4300
     5b0:	5f006372 	svcpl	0x00006372
     5b4:	4d43435f 	stclmi	3, cr4, [r3, #-380]	; 0xfffffe84
     5b8:	4c435f55 	mcrrmi	15, 5, r5, r3, cr5
     5bc:	54554f4b 	ldrbpl	r4, [r5], #-3915	; 0xf4b
     5c0:	69705300 	ldmdbvs	r0!, {r8, r9, ip, lr}^
     5c4:	74614733 	strbtvc	r4, [r1], #-1843	; 0x733
     5c8:	70530065 	subsvc	r0, r3, r5, rrx
     5cc:	6c433169 	stfvse	f3, [r3], {105}	; 0x69
     5d0:	7654006b 	ldrbvc	r0, [r4], -fp, rrx
     5d4:	61473165 	cmpvs	r7, r5, ror #2
     5d8:	53006574 	movwpl	r6, #1396	; 0x574
     5dc:	636d6d64 	cmnvs	sp, #6400	; 0x1900
     5e0:	74614733 	strbtvc	r4, [r1], #-1843	; 0x733
     5e4:	5f5f0065 	svcpl	0x005f0065
     5e8:	554d4343 	strbpl	r4, [sp, #-835]	; 0x343
     5ec:	4445465f 	strbmi	r4, [r5], #-1631	; 0x65f
     5f0:	5f504d45 	svcpl	0x00504d45
     5f4:	004b4c43 	subeq	r4, fp, r3, asr #24
     5f8:	6c437852 	mcrrvs	8, 5, r7, r3, cr2
     5fc:	766e496b 	strbtvc	r4, [lr], -fp, ror #18
     600:	435f5f00 	cmpmi	pc, #0
     604:	5f554d43 	svcpl	0x00554d43
     608:	4d415244 	sfmmi	f5, 2, [r1, #-272]	; 0xfffffef0
     60c:	5441475f 	strbpl	r4, [r1], #-1887	; 0x75f
     610:	45525f45 	ldrbmi	r5, [r2, #-3909]	; 0xf45
     614:	30313047 	eorscc	r3, r1, r7, asr #32
     618:	76540030 			; <UNDEFINED> instruction: 0x76540030
     61c:	74614764 	strbtvc	r4, [r1], #-1892	; 0x764
     620:	5f5f0065 	svcpl	0x005f0065
     624:	756d6363 	strbvc	r6, [sp, #-867]!	; 0x363
     628:	6464615f 	strbtvs	r6, [r4], #-351	; 0x15f
     62c:	6c635f61 	stclvs	15, cr5, [r3], #-388	; 0xfffffe7c
     630:	65725f6b 	ldrbvs	r5, [r2, #-3947]!	; 0xf6b
     634:	34313067 	ldrtcc	r3, [r1], #-103	; 0x67
     638:	00745f30 	rsbseq	r5, r4, r0, lsr pc
     63c:	63635f5f 	cmnvs	r3, #380	; 0x17c
     640:	645f756d 	ldrbvs	r7, [pc], #-1389	; 648 <__dram_freq_start+0x648>
     644:	5f6d6172 	svcpl	0x006d6172
     648:	65746167 	ldrbvs	r6, [r4, #-359]!	; 0x167
     64c:	6765725f 			; <UNDEFINED> instruction: 0x6765725f
     650:	30303130 	eorscc	r3, r0, r0, lsr r1
     654:	4400745f 	strmi	r7, [r0], #-1119	; 0x45f
     658:	43704d65 	cmnmi	r0, #6464	; 0x1940
     65c:	50006b6c 	andpl	r6, r0, ip, ror #22
     660:	4474736f 	ldrbtmi	r7, [r4], #-879	; 0x36f
     664:	53007669 	movwpl	r7, #1641	; 0x669
     668:	47306970 			; <UNDEFINED> instruction: 0x47306970
     66c:	00657461 	rsbeq	r7, r5, r1, ror #8
     670:	6d4d6453 	cfstrdvs	mvd6, [sp, #-332]	; 0xfffffeb4
     674:	6c433063 	mcrrvs	0, 6, r3, r3, cr3
     678:	6c43006b 	mcrrvs	0, 6, r0, r3, cr11
     67c:	6572506b 	ldrbvs	r5, [r2, #-107]!	; 0x6b
     680:	00766944 	rsbseq	r6, r6, r4, asr #18
     684:	63616d47 	cmnvs	r1, #4544	; 0x11c0
     688:	006b6c43 	rsbeq	r6, fp, r3, asr #24
     68c:	474f4356 	smlsldmi	r4, pc, r6, r3	; <UNPREDICTABLE>
     690:	456e6961 	strbmi	r6, [lr, #-2401]!	; 0x961
     694:	6863006e 	stmdavs	r3!, {r1, r2, r3, r5, r6}^
     698:	65676e61 	strbvs	r6, [r7, #-3681]!	; 0xe61
     69c:	6e75725f 	mrcvs	2, 3, r7, cr5, cr15, {2}
     6a0:	656d6974 	strbvs	r6, [sp, #-2420]!	; 0x974
     6a4:	766e655f 			; <UNDEFINED> instruction: 0x766e655f
     6a8:	4c4c5000 	marmi	acc0, r5, ip
     6ac:	6f506e49 	svcvs	0x00506e49
     6b0:	00726577 	rsbseq	r6, r2, r7, ror r5
     6b4:	704d6544 	subvc	r6, sp, r4, asr #10
     6b8:	65746147 	ldrbvs	r6, [r4, #-327]!	; 0x147
     6bc:	435f5f00 	cmpmi	pc, #0
     6c0:	5f554d43 	svcpl	0x00554d43
     6c4:	5344564c 	movtpl	r5, #17996	; 0x464c
     6c8:	4b4c435f 	blmi	131144c <__dram_freq_start+0x131144c>
     6cc:	4745525f 	smlsldmi	r5, r5, pc, r2	; <UNPREDICTABLE>
     6d0:	43343130 	teqmi	r4, #12
     6d4:	6f695000 	svcvs	0x00695000
     6d8:	65746147 	ldrbvs	r6, [r4, #-327]!	; 0x147
     6dc:	6c6c5000 	stclvs	0, cr5, [ip], #-0
     6e0:	6c744334 	ldclvs	3, cr4, [r4], #-208	; 0xffffff30
     6e4:	435f5f00 	cmpmi	pc, #0
     6e8:	5f554d43 	svcpl	0x00554d43
     6ec:	55444f4d 	strbpl	r4, [r4, #-3917]	; 0xf4d
     6f0:	5f31454c 	svcpl	0x0031454c
     6f4:	004b4c43 	subeq	r4, fp, r3, asr #24
     6f8:	454f444c 	strbmi	r4, [pc, #-1100]	; 2b4 <__dram_freq_start+0x2b4>
     6fc:	6448006e 	strbvs	r0, [r8], #-110	; 0x6e
     700:	5231696d 	eorspl	r6, r1, #1785856	; 0x1b4000
     704:	6c437470 	cfstrdvs	mvd7, [r3], {112}	; 0x70
     708:	5f5f006b 	svcpl	0x005f006b
     70c:	756d6363 	strbvc	r6, [sp, #-867]!	; 0x363
     710:	6c6c705f 	stclvs	0, cr7, [ip], #-380	; 0xfffffe84
     714:	61735f36 	cmnvs	r3, r6, lsr pc
     718:	725f6174 	subsvc	r6, pc, #29
     71c:	30306765 	eorscc	r6, r0, r5, ror #14
     720:	745f3832 	ldrbvc	r3, [pc], #-2098	; 728 <__dram_freq_start+0x728>
     724:	6e614200 	cdpvs	2, 6, cr4, cr1, cr0, {0}
     728:	64695764 	strbtvs	r5, [r9], #-1892	; 0x764
     72c:	53006874 	movwpl	r6, #2164	; 0x874
     730:	61477263 	cmpvs	r7, r3, ror #4
     734:	53006574 	movwpl	r6, #1396	; 0x574
     738:	6b6c4373 	blvs	1b1150c <__dram_freq_start+0x1b1150c>
     73c:	62735500 	rsbsvs	r5, r3, #0
     740:	006b6c43 	rsbeq	r6, fp, r3, asr #24
     744:	32334341 	eorscc	r4, r3, #67108865	; 0x4000001
     748:	6b6c4337 	blvs	1b1142c <__dram_freq_start+0x1b1142c>
     74c:	00637253 	rsbeq	r7, r3, r3, asr r2
     750:	53465644 	movtpl	r5, #26180	; 0x6644
     754:	72617453 	rsbvc	r7, r1, #1392508928	; 0x53000000
     758:	78520074 	ldmdavc	r2, {r2, r4, r5, r6}^
     75c:	43796c44 	cmnmi	r9, #17408	; 0x4400
     760:	6e696168 	powvsez	f6, f1, #0.0
     764:	635f5f00 	cmpvs	pc, #0
     768:	5f756d63 	svcpl	0x00756d63
     76c:	6364636c 	cmnvs	r4, #-1342177279	; 0xb0000001
     770:	635f3068 	cmpvs	pc, #104	; 0x68
     774:	745f6b6c 	ldrbvc	r6, [pc], #-2924	; 77c <__dram_freq_start+0x77c>
     778:	64634c00 	strbtvs	r4, [r3], #-3072	; 0xc00
     77c:	31684330 	cmncc	r8, r0, lsr r3
     780:	006b6c43 	rsbeq	r6, fp, r3, asr #24
     784:	61746150 	cmnvs	r4, r0, asr r1
     788:	006b6c43 	rsbeq	r6, fp, r3, asr #24
     78c:	43435f5f 	movtmi	r5, #16223	; 0x3f5f
     790:	435f554d 	cmpmi	pc, #322961408	; 0x13400000
     794:	53494953 	movtpl	r4, #39251	; 0x9953
     798:	4c435f50 	mcrrmi	15, 5, r5, r3, cr0
     79c:	45525f4b 	ldrbmi	r5, [r2, #-3915]	; 0xf4b
     7a0:	32313047 	eorscc	r3, r1, #71	; 0x47
     7a4:	5f5f0030 	svcpl	0x005f0030
     7a8:	756d6363 	strbvc	r6, [sp, #-867]!	; 0x363
     7ac:	75626d5f 	strbvc	r6, [r2, #-3423]!	; 0xd5f
     7b0:	6c635f73 	stclvs	15, cr5, [r3], #-460	; 0xfffffe34
     7b4:	65725f6b 	ldrbvs	r5, [r2, #-3947]!	; 0xf6b
     7b8:	35313067 	ldrcc	r3, [r1, #-103]!	; 0x67
     7bc:	00745f63 	rsbseq	r5, r4, r3, ror #30
     7c0:	6b636162 	blvs	18d8d50 <__dram_freq_start+0x18d8d50>
     7c4:	705f7075 	subsvc	r7, pc, r5, ror r0	; <UNPREDICTABLE>
     7c8:	63667265 	cmnvs	r6, #1342177286	; 0x50000006
     7cc:	746e756f 	strbtvc	r7, [lr], #-1391	; 0x56f
     7d0:	5f007265 	svcpl	0x00007265
     7d4:	4d43435f 	stclmi	3, cr4, [r3, #-380]	; 0xfffffe84
     7d8:	44485f55 	strbmi	r5, [r8], #-3925	; 0xf55
     7dc:	435f494d 	cmpmi	pc, #1261568	; 0x134000
     7e0:	525f4b4c 	subspl	r4, pc, #77824	; 0x13000
     7e4:	31304745 	teqcc	r0, r5, asr #14
     7e8:	69003035 	stmdbvs	r0, {r0, r2, r4, r5, ip, sp}
     7ec:	5f74696e 	svcpl	0x0074696e
     7f0:	66726570 			; <UNDEFINED> instruction: 0x66726570
     7f4:	6e756f63 	cdpvs	15, 7, cr6, cr5, cr3, {3}
     7f8:	73726574 	cmnvc	r2, #486539264	; 0x1d000000
     7fc:	73797300 	cmnvc	r9, #0
     800:	00747372 	rsbseq	r7, r4, r2, ror r3
     804:	30627041 	rsbcc	r7, r2, r1, asr #32
     808:	65746147 	ldrbvs	r6, [r4, #-327]!	; 0x147
     80c:	73657200 	cmnvc	r5, #0
     810:	65767265 	ldrbvs	r7, [r6, #-613]!	; 0x265
     814:	53003864 	movwpl	r3, #2148	; 0x864
     818:	43636570 	cmnmi	r3, #469762048	; 0x1c000000
     81c:	53316b6c 	teqpl	r1, #110592	; 0x1b000
     820:	48006372 	stmdami	r0, {r1, r4, r5, r6, r8, r9, sp, lr}
     824:	31696d64 	cmncc	r9, r4, ror #26
     828:	00747352 	rsbseq	r7, r4, r2, asr r3
     82c:	74726155 	ldrbtvc	r6, [r2], #-341	; 0x155
     830:	74614735 	strbtvc	r4, [r1], #-1845	; 0x735
     834:	64480065 	strbvs	r0, [r8], #-101	; 0x65
     838:	5331696d 	teqpl	r1, #1785856	; 0x1b4000
     83c:	6c437768 	mcrrvs	7, 6, r7, r3, cr8
     840:	5f5f006b 	svcpl	0x005f006b
     844:	554d4343 	strbpl	r4, [sp, #-835]	; 0x343
     848:	4c4c505f 	mcrrmi	0, 5, r5, ip, cr15
     84c:	44445f35 	strbmi	r5, [r4], #-3893	; 0xf35
     850:	45525f52 	ldrbmi	r5, [r2, #-3922]	; 0xf52
     854:	32303047 	eorscc	r3, r0, #71	; 0x47
     858:	6f480030 	svcvs	0x00480030
     85c:	74436373 	strbvc	r6, [r3], #-883	; 0x373
     860:	5f5f006c 	svcpl	0x005f006c
     864:	554d4343 	strbpl	r4, [sp, #-835]	; 0x343
     868:	4c4c505f 	mcrrmi	0, 5, r5, ip, cr15
     86c:	45565f34 	ldrbmi	r5, [r6, #-3892]	; 0xf34
     870:	4745525f 	smlsldmi	r5, r5, pc, r2	; <UNPREDICTABLE>
     874:	38313030 	ldmdacc	r1!, {r4, r5, ip, sp}
     878:	63616600 	cmnvs	r1, #0
     87c:	5f726f74 	svcpl	0x00726f74
     880:	484f0070 	stmdami	pc, {r4, r5, r6}^	; <UNPREDICTABLE>
     884:	53314943 	teqpl	r1, #1097728	; 0x10c000
     888:	43636570 	cmnmi	r3, #469762048	; 0x1c000000
     88c:	61476b6c 	cmpvs	r7, ip, ror #22
     890:	53006574 	movwpl	r6, #1396	; 0x574
     894:	43336970 	teqmi	r3, #1835008	; 0x1c0000
     898:	5f006b6c 	svcpl	0x00006b6c
     89c:	6d63635f 	stclvs	3, cr6, [r3, #-380]!	; 0xfffffe84
     8a0:	70615f75 	rsbvc	r5, r1, r5, ror pc
     8a4:	6c633162 	stfvse	f3, [r3], #-392	; 0xfffffe78
     8a8:	61725f6b 	cmnvs	r2, fp, ror #30
     8ac:	5f6f6974 	svcpl	0x006f6974
     8b0:	30676572 	rsbcc	r6, r7, r2, ror r5
     8b4:	5f383530 	svcpl	0x00383530
     8b8:	5f5f0074 	svcpl	0x005f0074
     8bc:	756d6363 	strbvc	r6, [sp, #-867]!	; 0x363
     8c0:	6d64685f 	stclvs	8, cr6, [r4, #-380]!	; 0xfffffe84
     8c4:	725f3169 	subsvc	r3, pc, #1073741850	; 0x4000001a
     8c8:	635f7470 	cmpvs	pc, #1879048192	; 0x70000000
     8cc:	725f6b6c 	subsvc	r6, pc, #110592	; 0x1b000
     8d0:	31306765 	teqcc	r0, r5, ror #14
     8d4:	745f6337 	ldrbvc	r6, [pc], #-823	; 8dc <__dram_freq_start+0x8dc>
     8d8:	79685000 	stmdbvc	r8!, {ip, lr}^
     8dc:	63657053 	cmnvs	r5, #83	; 0x53
     8e0:	476b6c43 	strbmi	r6, [fp, -r3, asr #24]!
     8e4:	00657461 	rsbeq	r7, r5, r1, ror #8
     8e8:	31736949 	cmncc	r3, r9, asr #18
     8ec:	65746147 	ldrbvs	r6, [r4, #-327]!	; 0x147
     8f0:	635f5f00 	cmpvs	pc, #0
     8f4:	5f756d63 	svcpl	0x00756d63
     8f8:	5f627375 	svcpl	0x00627375
     8fc:	5f6b6c63 	svcpl	0x006b6c63
     900:	30676572 	rsbcc	r6, r7, r2, ror r5
     904:	5f636330 	svcpl	0x00636330
     908:	5f5f0074 	svcpl	0x005f0074
     90c:	554d4343 	strbpl	r4, [sp, #-835]	; 0x343
     910:	4d44485f 	stclmi	8, cr4, [r4, #-380]	; 0xfffffe84
     914:	525f3149 	subspl	r3, pc, #1073741842	; 0x40000012
     918:	435f5450 	cmpmi	pc, #1342177280	; 0x50000000
     91c:	525f4b4c 	subspl	r4, pc, #77824	; 0x13000
     920:	31304745 	teqcc	r0, r5, asr #14
     924:	46004337 			; <UNDEFINED> instruction: 0x46004337
     928:	6f746361 	svcvs	0x00746361
     92c:	46004b72 			; <UNDEFINED> instruction: 0x46004b72
     930:	6f746361 	svcvs	0x00746361
     934:	46004d72 			; <UNDEFINED> instruction: 0x46004d72
     938:	6f746361 	svcvs	0x00746361
     93c:	46004e72 			; <UNDEFINED> instruction: 0x46004e72
     940:	6f746361 	svcvs	0x00746361
     944:	5f005072 	svcpl	0x00005072
     948:	4d43435f 	stclmi	3, cr4, [r3, #-380]	; 0xfffffe84
     94c:	4c505f55 	mrrcmi	15, 5, r5, r0, cr5
     950:	535f364c 	cmppl	pc, #79691776	; 0x4c00000
     954:	5f415441 	svcpl	0x00415441
     958:	30474552 	subcc	r4, r7, r2, asr r5
     95c:	00383230 	eorseq	r3, r8, r0, lsr r2
     960:	74726155 	ldrbtvc	r6, [r2], #-341	; 0x155
     964:	74614732 	strbtvc	r4, [r1], #-1842	; 0x732
     968:	734d0065 	movtvc	r0, #53349	; 0xd065
     96c:	006b6c43 	rsbeq	r6, fp, r3, asr #24
     970:	63635f5f 	cmnvs	r3, #380	; 0x17c
     974:	6d5f756d 	cfldr64vs	mvdx7, [pc, #-436]	; 7c8 <__dram_freq_start+0x7c8>
     978:	6c75646f 	cfldrdvs	mvd6, [r5], #-444	; 0xfffffe44
     97c:	635f3165 	cmpvs	pc, #1073741849	; 0x40000019
     980:	745f6b6c 	ldrbvc	r6, [pc], #-2924	; 988 <__dram_freq_start+0x988>
     984:	39634100 	stmdbcc	r3!, {r8, lr}^
     988:	74614737 	strbtvc	r4, [r1], #-1847	; 0x737
     98c:	65440065 	strbvs	r0, [r4, #-101]	; 0x65
     990:	43316542 	teqmi	r1, #276824064	; 0x10800000
     994:	5f006b6c 	svcpl	0x00006b6c
     998:	6d63635f 	stclvs	3, cr6, [r3, #-380]!	; 0xfffffe84
     99c:	736f5f75 	cmnvc	pc, #468	; 0x1d4
     9a0:	6d343263 	lfmvs	f3, 4, [r4, #-396]!	; 0xfffffe74
     9a4:	6765725f 			; <UNDEFINED> instruction: 0x6765725f
     9a8:	30353030 	eorscc	r3, r5, r0, lsr r0
     9ac:	5300745f 	movwpl	r7, #1119	; 0x45f
     9b0:	636d4d64 	cmnvs	sp, #6400	; 0x1900
     9b4:	6b6c4332 	blvs	1b11684 <__dram_freq_start+0x1b11684>
     9b8:	74615300 	strbtvc	r5, [r1], #-768	; 0x300
     9bc:	74614761 	strbtvc	r4, [r1], #-1889	; 0x761
     9c0:	5f440065 	svcpl	0x00440065
     9c4:	48434143 	stmdami	r3, {r0, r1, r6, r8, lr}^
     9c8:	494d5f45 	stmdbmi	sp, {r0, r2, r6, r8, r9, sl, fp, ip, lr}^
     9cc:	4c005353 	stcmi	3, cr5, [r0], {83}	; 0x53
     9d0:	47306463 	ldrmi	r6, [r0, -r3, ror #8]!
     9d4:	00657461 	rsbeq	r7, r5, r1, ror #8
     9d8:	6e756f63 	cdpvs	15, 7, cr6, cr5, cr3, {3}
     9dc:	5f726574 	svcpl	0x00726574
     9e0:	65707974 	ldrbvs	r7, [r0, #-2420]!	; 0x974
     9e4:	5400655f 	strpl	r6, [r0], #-1375	; 0x55f
     9e8:	47336977 			; <UNDEFINED> instruction: 0x47336977
     9ec:	00657461 	rsbeq	r7, r5, r1, ror #8
     9f0:	366c6c50 			; <UNDEFINED> instruction: 0x366c6c50
     9f4:	006c7443 	rsbeq	r7, ip, r3, asr #8
     9f8:	6b636162 	blvs	18d8f88 <__dram_freq_start+0x18d8f88>
     9fc:	705f7075 	subsvc	r7, pc, r5, ror r0	; <UNPREDICTABLE>
     a00:	5f667265 	svcpl	0x00667265
     a04:	6e756f63 	cdpvs	15, 7, cr6, cr5, cr3, {3}
     a08:	5f726574 	svcpl	0x00726574
     a0c:	62616e65 	rsbvs	r6, r1, #1616	; 0x650
     a10:	725f656c 	subsvc	r6, pc, #452984832	; 0x1b000000
     a14:	55006765 	strpl	r6, [r0, #-1893]	; 0x765
     a18:	47306273 			; <UNDEFINED> instruction: 0x47306273
     a1c:	00657461 	rsbeq	r7, r5, r1, ror #8
     a20:	74736572 	ldrbtvc	r6, [r3], #-1394	; 0x572
     a24:	5f65726f 	svcpl	0x0065726f
     a28:	66726570 			; <UNDEFINED> instruction: 0x66726570
     a2c:	6e756f63 	cdpvs	15, 7, cr6, cr5, cr3, {3}
     a30:	00726574 	rsbseq	r6, r2, r4, ror r5
     a34:	63635f5f 	cmnvs	r3, #380	; 0x17c
     a38:	705f756d 	subsvc	r7, pc, sp, ror #10
     a3c:	5f356c6c 	svcpl	0x00356c6c
     a40:	5f726464 	svcpl	0x00726464
     a44:	30676572 	rsbcc	r6, r7, r2, ror r5
     a48:	5f303230 	svcpl	0x00303230
     a4c:	65440074 	strbvs	r0, [r4, #-116]	; 0x74
     a50:	47316542 	ldrmi	r6, [r1, -r2, asr #10]!
     a54:	00657461 	rsbeq	r7, r5, r1, ror #8
     a58:	4c545f44 	mrrcmi	15, 4, r5, r4, cr4
     a5c:	494d5f42 	stmdbmi	sp, {r1, r6, r8, r9, sl, fp, ip, lr}^
     a60:	48005353 	stmdami	r0, {r0, r1, r4, r6, r8, r9, ip, lr}
     a64:	31696d64 	cmncc	r9, r4, ror #26
     a68:	006c7443 	rsbeq	r7, ip, r3, asr #8
     a6c:	63635f5f 	cmnvs	r3, #380	; 0x17c
     a70:	705f756d 	subsvc	r7, pc, sp, ror #10
     a74:	5f326c6c 	svcpl	0x00326c6c
     a78:	69647561 	stmdbvs	r4!, {r0, r5, r6, r8, sl, ip, sp, lr}^
     a7c:	65725f6f 	ldrbvs	r5, [r2, #-3951]!	; 0xf6f
     a80:	30303067 	eorscc	r3, r0, r7, rrx
     a84:	00745f38 	rsbseq	r5, r4, r8, lsr pc
     a88:	43435f5f 	movtmi	r5, #16223	; 0x3f5f
     a8c:	415f554d 	cmpmi	pc, sp, asr #10
     a90:	435f5356 	cmpmi	pc, #1476395009	; 0x58000001
     a94:	525f4b4c 	subspl	r4, pc, #77824	; 0x13000
     a98:	31304745 	teqcc	r0, r5, asr #14
     a9c:	4c003434 	cfstrsmi	mvf3, [r0], {52}	; 0x34
     aa0:	43736476 	cmnmi	r3, #1979711488	; 0x76000000
     aa4:	50006b6c 	andpl	r6, r0, ip, ror #22
     aa8:	69444c4c 	stmdbvs	r4, {r2, r3, r6, sl, fp, lr}^
     aac:	5f005076 	svcpl	0x00005076
     ab0:	6d63635f 	stclvs	3, cr6, [r3, #-380]!	; 0xfffffe84
     ab4:	64685f75 	strbtvs	r5, [r8], #-3957	; 0xf75
     ab8:	5f31696d 	svcpl	0x0031696d
     abc:	5f776873 	svcpl	0x00776873
     ac0:	5f6b6c63 	svcpl	0x006b6c63
     ac4:	30676572 	rsbcc	r6, r7, r2, ror r5
     ac8:	5f383731 	svcpl	0x00383731
     acc:	77540074 			; <UNDEFINED> instruction: 0x77540074
     ad0:	61473069 	cmpvs	r7, r9, rrx
     ad4:	41006574 	tstmi	r0, r4, ror r5
     ad8:	43373963 	teqmi	r7, #1622016	; 0x18c000
     adc:	4f006b6c 	svcmi	0x00006b6c
     ae0:	31696368 	cmncc	r9, r8, ror #6
     ae4:	65746147 	ldrbvs	r6, [r4, #-327]!	; 0x147
     ae8:	31724900 	cmncc	r2, r0, lsl #18
     aec:	65746147 	ldrbvs	r6, [r4, #-327]!	; 0x147
     af0:	635f5f00 	cmpvs	pc, #0
     af4:	5f756d63 	svcpl	0x00756d63
     af8:	69697363 	stmdbvs	r9!, {r0, r1, r5, r6, r8, r9, ip, sp, lr}^
     afc:	635f7073 	cmpvs	pc, #115	; 0x73
     b00:	725f6b6c 	subsvc	r6, pc, #110592	; 0x1b000
     b04:	31306765 	teqcc	r0, r5, ror #14
     b08:	745f3032 	ldrbvc	r3, [pc], #-50	; b10 <__dram_freq_start+0xb10>
     b0c:	435f5f00 	cmpmi	pc, #0
     b10:	5f554d43 	svcpl	0x00554d43
     b14:	43424841 	movtmi	r4, #10305	; 0x2841
     b18:	475f4b4c 	ldrbmi	r4, [pc, -ip, asr #22]
     b1c:	31455441 	cmpcc	r5, r1, asr #8
     b20:	4745525f 	smlsldmi	r5, r5, pc, r2	; <UNPREDICTABLE>
     b24:	34363030 	ldrtcc	r3, [r6], #-48	; 0x30
     b28:	69705300 	ldmdbvs	r0!, {r8, r9, ip, lr}^
     b2c:	74614731 	strbtvc	r4, [r1], #-1841	; 0x731
     b30:	61740065 	cmnvs	r4, r5, rrx
     b34:	74656772 	strbtvc	r6, [r5], #-1906	; 0x772
     b38:	635f5f00 	cmpvs	pc, #0
     b3c:	5f756d63 	svcpl	0x00756d63
     b40:	61746173 	cmnvs	r4, r3, ror r1
     b44:	6b6c635f 	blvs	1b198c8 <__dram_freq_start+0x1b198c8>
     b48:	6765725f 			; <UNDEFINED> instruction: 0x6765725f
     b4c:	38633030 	stmdacc	r3!, {r4, r5, ip, sp}^
     b50:	5000745f 	andpl	r7, r0, pc, asr r4
     b54:	47303273 			; <UNDEFINED> instruction: 0x47303273
     b58:	00657461 	rsbeq	r7, r5, r1, ror #8
     b5c:	74736942 	ldrbtvc	r6, [r3], #-2370	; 0x942
     b60:	65746147 	ldrbvs	r6, [r4, #-327]!	; 0x147
     b64:	6e614300 	cdpvs	3, 6, cr4, cr1, cr0, {0}
     b68:	65746147 	ldrbvs	r6, [r4, #-327]!	; 0x147
     b6c:	635f5f00 	cmpvs	pc, #0
     b70:	5f756d63 	svcpl	0x00756d63
     b74:	5f697363 	svcpl	0x00697363
     b78:	5f6b6c63 	svcpl	0x006b6c63
     b7c:	48410074 	stmdami	r1, {r2, r4, r5, r6}^
     b80:	6b6c4342 	blvs	1b11890 <__dram_freq_start+0x1b11890>
     b84:	00766944 	rsbseq	r6, r6, r4, asr #18
     b88:	6d6d6453 	cfstrdvs	mvd6, [sp, #-332]!	; 0xfffffeb4
     b8c:	61473063 	cmpvs	r7, r3, rrx
     b90:	43006574 	movwmi	r6, #1396	; 0x574
     b94:	754f6b6c 	strbvc	r6, [pc, #-2924]	; 30 <__dram_freq_start+0x30>
     b98:	74757074 	ldrbtvc	r7, [r5], #-116	; 0x74
     b9c:	5f006e45 	svcpl	0x00006e45
     ba0:	6d63635f 	stclvs	3, cr6, [r3, #-380]!	; 0xfffffe84
     ba4:	68615f75 	stmdavs	r1!, {r0, r2, r4, r5, r6, r8, r9, sl, fp, ip, lr}^
     ba8:	6b6c6362 	blvs	1b19938 <__dram_freq_start+0x1b19938>
     bac:	7461675f 	strbtvc	r6, [r1], #-1887	; 0x75f
     bb0:	725f3165 	subsvc	r3, pc, #1073741849	; 0x40000019
     bb4:	30306765 	eorscc	r6, r0, r5, ror #14
     bb8:	745f3436 	ldrbvc	r3, [pc], #-1078	; bc0 <__dram_freq_start+0xbc0>
     bbc:	635f5f00 	cmpvs	pc, #0
     bc0:	5f756d63 	svcpl	0x00756d63
     bc4:	696c616d 	stmdbvs	ip!, {r0, r2, r3, r5, r6, r8, sp, lr}^
     bc8:	5f303034 	svcpl	0x00303034
     bcc:	5f6b6c63 	svcpl	0x006b6c63
     bd0:	30676572 	rsbcc	r6, r7, r2, ror r5
     bd4:	5f343531 	svcpl	0x00343531
     bd8:	73430074 	movtvc	r0, #12404	; 0x3074
     bdc:	6c433069 	mcrrvs	0, 6, r3, r3, cr9
     be0:	7249006b 	subvc	r0, r9, #107	; 0x6b
     be4:	6b6c4331 	blvs	1b118b0 <__dram_freq_start+0x1b118b0>
     be8:	67657200 	strbvs	r7, [r5, -r0, lsl #4]!
     bec:	6c61765f 	stclvs	6, cr7, [r1], #-380	; 0xfffffe84
     bf0:	62684100 	rsbvs	r4, r8, #0
     bf4:	65746147 	ldrbvs	r6, [r4, #-327]!	; 0x147
     bf8:	68410030 	stmdavs	r1, {r4, r5}^
     bfc:	74614762 	strbtvc	r4, [r1], #-1890	; 0x762
     c00:	41003165 	tstmi	r0, r5, ror #2
     c04:	6f696475 	svcvs	0x00696475
     c08:	52616d44 	rsbpl	r6, r1, #4352	; 0x1100
     c0c:	5f007473 	svcpl	0x00007473
     c10:	4d43435f 	stclmi	3, cr4, [r3, #-380]	; 0xfffffe84
     c14:	53435f55 	movtpl	r5, #16213	; 0x3f55
     c18:	4c435f49 	mcrrmi	15, 4, r5, r3, cr9
     c1c:	6564004b 	strbvs	r0, [r4, #-75]!	; 0x4b
     c20:	5f79616c 	svcpl	0x0079616c
     c24:	5f00736d 	svcpl	0x0000736d
     c28:	6d63635f 	stclvs	3, cr6, [r3, #-380]!	; 0xfffffe84
     c2c:	656b5f75 	strbvs	r5, [fp, #-3957]!	; 0xf75
     c30:	64617079 	strbtvs	r7, [r1], #-121	; 0x79
     c34:	6b6c635f 	blvs	1b199b8 <__dram_freq_start+0x1b199b8>
     c38:	6765725f 			; <UNDEFINED> instruction: 0x6765725f
     c3c:	34633030 	strbtcc	r3, [r3], #-48	; 0x30
     c40:	5f00745f 	svcpl	0x0000745f
     c44:	4d43435f 	stclmi	3, cr4, [r3, #-380]	; 0xfffffe84
     c48:	424d5f55 	submi	r5, sp, #340	; 0x154
     c4c:	435f5355 	cmpmi	pc, #1409286145	; 0x54000001
     c50:	525f4b4c 	subspl	r4, pc, #77824	; 0x13000
     c54:	31304745 	teqcc	r0, r5, asr #14
     c58:	63004335 	movwvs	r4, #821	; 0x335
     c5c:	665f7570 			; <UNDEFINED> instruction: 0x665f7570
     c60:	00716572 	rsbseq	r6, r1, r2, ror r5
     c64:	706d6144 	rsbvc	r6, sp, r4, asr #2
     c68:	74636146 	strbtvc	r6, [r3], #-326	; 0x146
     c6c:	4b00726f 	blmi	1d630 <__dram_freq_start+0x1d630>
     c70:	61707965 	cmnvs	r0, r5, ror #18
     c74:	74614764 	strbtvc	r4, [r1], #-1892	; 0x764
     c78:	70530065 	subsvc	r0, r3, r5, rrx
     c7c:	61473269 	cmpvs	r7, r9, ror #4
     c80:	65006574 	strvs	r6, [r0, #-1396]	; 0x574
     c84:	6c62616e 	stfvse	f6, [r2], #-440	; 0xfffffe48
     c88:	69645f65 	stmdbvs	r4!, {r0, r2, r5, r6, r8, r9, sl, fp, ip, lr}^
     c8c:	65646976 	strbvs	r6, [r4, #-2422]!	; 0x976
     c90:	65440072 	strbvs	r0, [r4, #-114]	; 0x72
     c94:	43306546 	teqmi	r0, #293601280	; 0x11800000
     c98:	75006b6c 	strvc	r6, [r0, #-2924]	; 0xb6c
     c9c:	6e635f73 	mcrvs	15, 3, r5, cr3, cr3, {3}
     ca0:	76540074 			; <UNDEFINED> instruction: 0x76540074
     ca4:	61473065 	cmpvs	r7, r5, rrx
     ca8:	54006574 	strpl	r6, [r0], #-1396	; 0x574
     cac:	6b6c4378 	blvs	1b11a94 <__dram_freq_start+0x1b11a94>
     cb0:	00766e49 	rsbseq	r6, r6, r9, asr #28
     cb4:	63635f5f 	cmnvs	r3, #380	; 0x17c
     cb8:	705f756d 	subsvc	r7, pc, sp, ror #10
     cbc:	5f316c6c 	svcpl	0x00316c6c
     cc0:	65726f63 	ldrbvs	r6, [r2, #-3939]!	; 0xf63
     cc4:	6765725f 			; <UNDEFINED> instruction: 0x6765725f
     cc8:	30303030 	eorscc	r3, r0, r0, lsr r0
     ccc:	5300745f 	movwpl	r7, #1119	; 0x45f
     cd0:	43636570 	cmnmi	r3, #469762048	; 0x1c000000
     cd4:	47326b6c 	ldrmi	r6, [r2, -ip, ror #22]!
     cd8:	00657461 	rsbeq	r7, r5, r1, ror #8
     cdc:	43307249 	teqmi	r0, #-1879048188	; 0x90000004
     ce0:	41006b6c 	tstmi	r0, ip, ror #22
     ce4:	43316270 	teqmi	r1, #7
     ce8:	69446b6c 	stmdbvs	r4, {r2, r3, r5, r6, r8, r9, fp, sp, lr}^
     cec:	5f5f0076 	svcpl	0x005f0076
     cf0:	554d4343 	strbpl	r4, [sp, #-835]	; 0x343
     cf4:	4d44485f 	stclmi	8, cr4, [r4, #-380]	; 0xfffffe84
     cf8:	525f3149 	subspl	r3, pc, #1073741842	; 0x40000012
     cfc:	525f5453 	subspl	r5, pc, #1392508928	; 0x53000000
     d00:	31304745 	teqcc	r0, r5, asr #14
     d04:	41003037 	tstmi	r0, r7, lsr r0
     d08:	6c436563 	cfstr64vs	mvdx6, [r3], {99}	; 0x63
     d0c:	5f5f006b 	svcpl	0x005f006b
     d10:	554d4343 	strbpl	r4, [sp, #-835]	; 0x343
     d14:	4c414d5f 	mcrrmi	13, 5, r4, r1, cr15
     d18:	30303449 	eorscc	r3, r0, r9, asr #8
     d1c:	4b4c435f 	blmi	1311aa0 <__dram_freq_start+0x1311aa0>
     d20:	4745525f 	smlsldmi	r5, r5, pc, r2	; <UNPREDICTABLE>
     d24:	34353130 	ldrtcc	r3, [r5], #-304	; 0x130
     d28:	73657200 	cmnvc	r5, #0
     d2c:	65767265 	ldrbvs	r7, [r6, #-613]!	; 0x265
     d30:	00303164 	eorseq	r3, r0, r4, ror #2
     d34:	65736572 	ldrbvs	r6, [r3, #-1394]!	; 0x572
     d38:	64657672 	strbtvs	r7, [r5], #-1650	; 0x672
     d3c:	72003131 	andvc	r3, r0, #1073741836	; 0x4000000c
     d40:	72657365 	rsbvc	r7, r5, #-1811939327	; 0x94000001
     d44:	31646576 	smccc	18006	; 0x4656
     d48:	6d470032 	stclvs	0, cr0, [r7, #-200]	; 0xffffff38
     d4c:	61476361 	cmpvs	r7, r1, ror #6
     d50:	5f006574 	svcpl	0x00006574
     d54:	4d43435f 	stclmi	3, cr4, [r3, #-380]	; 0xfffffe84
     d58:	53555f55 	cmppl	r5, #340	; 0x154
     d5c:	4c435f42 	mcrrmi	15, 4, r5, r3, cr2
     d60:	45525f4b 	ldrbmi	r5, [r2, #-3915]	; 0xf4b
     d64:	43303047 	teqmi	r0, #71	; 0x47
     d68:	65720043 	ldrbvs	r0, [r2, #-67]!	; 0x43
     d6c:	76726573 			; <UNDEFINED> instruction: 0x76726573
     d70:	35316465 	ldrcc	r6, [r1, #-1125]!	; 0x465
     d74:	6c6c5000 	stclvs	0, cr5, [ip], #-0
     d78:	6c744331 	ldclvs	3, cr4, [r4], #-196	; 0xffffff3c
     d7c:	63616200 	cmnvs	r1, #0
     d80:	5f70756b 	svcpl	0x0070756b
     d84:	66726570 			; <UNDEFINED> instruction: 0x66726570
     d88:	756f635f 	strbvc	r6, [pc, #-863]!	; a31 <__dram_freq_start+0xa31>
     d8c:	7265746e 	rsbvc	r7, r5, #1845493760	; 0x6e000000
     d90:	7274635f 	rsbsvc	r6, r4, #2080374785	; 0x7c000001
     d94:	65725f6c 	ldrbvs	r5, [r2, #-3948]!	; 0xf6c
     d98:	32490067 	subcc	r0, r9, #103	; 0x67
     d9c:	6c433173 	stfvse	f3, [r3], {115}	; 0x73
     da0:	6953006b 	ldmdbvs	r3, {r0, r1, r3, r5, r6}^
     da4:	45616d67 	strbmi	r6, [r1, #-3431]!	; 0xd67
     da8:	5f5f006e 	svcpl	0x005f006e
     dac:	554d4343 	strbpl	r4, [sp, #-835]	; 0x343
     db0:	5441535f 	strbpl	r5, [r1], #-863	; 0x35f
     db4:	4c435f41 	mcrrmi	15, 4, r5, r3, cr1
     db8:	45525f4b 	ldrbmi	r5, [r2, #-3915]	; 0xf4b
     dbc:	43303047 	teqmi	r0, #71	; 0x47
     dc0:	70530038 	subsvc	r0, r3, r8, lsr r0
     dc4:	47666964 	strbmi	r6, [r6, -r4, ror #18]!
     dc8:	00657461 	rsbeq	r7, r5, r1, ror #8
     dcc:	69636845 	stmdbvs	r3!, {r0, r2, r6, fp, sp, lr}^
     dd0:	74614731 	strbtvc	r4, [r1], #-1841	; 0x731
     dd4:	72680065 	rsbvc	r0, r8, #101	; 0x65
     dd8:	48007473 	stmdami	r0, {r0, r1, r4, r5, r6, sl, ip, sp, lr}
     ddc:	31696d64 	cmncc	r9, r4, ror #26
     de0:	65746147 	ldrbvs	r6, [r4, #-327]!	; 0x147
     de4:	47735400 	ldrbmi	r5, [r3, -r0, lsl #8]!
     de8:	00657461 	rsbeq	r7, r5, r1, ror #8
     dec:	50627355 	rsbpl	r7, r2, r5, asr r3
     df0:	52327968 	eorspl	r7, r2, #1703936	; 0x1a0000
     df4:	5f007473 	svcpl	0x00007473
     df8:	6d63635f 	stclvs	3, cr6, [r3, #-380]!	; 0xfffffe84
     dfc:	64685f75 	strbtvs	r5, [r8], #-3957	; 0xf75
     e00:	5f31696d 	svcpl	0x0031696d
     e04:	5f6c7463 	svcpl	0x006c7463
     e08:	30676572 	rsbcc	r6, r7, r2, ror r5
     e0c:	5f343731 	svcpl	0x00343731
     e10:	70530074 	subsvc	r0, r3, r4, ror r0
     e14:	6c433069 	mcrrvs	0, 6, r3, r3, cr9
     e18:	766f006b 	strbtvc	r0, [pc], -fp, rrx
     e1c:	65687265 	strbvs	r7, [r8, #-613]!	; 0x265
     e20:	5f006461 	svcpl	0x00006461
     e24:	4d43435f 	stclmi	3, cr4, [r3, #-380]	; 0xfffffe84
     e28:	4f4d5f55 	svcmi	0x004d5f55
     e2c:	454c5544 	strbmi	r5, [ip, #-1348]	; 0x544
     e30:	4c435f30 	mcrrmi	15, 3, r5, r3, cr0
     e34:	6544004b 	strbvs	r0, [r4, #-75]	; 0x4b
     e38:	43316546 	teqmi	r1, #293601280	; 0x11800000
     e3c:	55006b6c 	strpl	r6, [r0, #-2924]	; 0xb6c
     e40:	37747261 	ldrbcc	r7, [r4, -r1, ror #4]!
     e44:	65746147 	ldrbvs	r6, [r4, #-327]!	; 0x147
     e48:	6c6c7000 	stclvs	0, cr7, [ip], #-0
     e4c:	72744331 	rsbsvc	r4, r4, #-1006632960	; 0xc4000000
     e50:	6c43006c 	mcrrvs	0, 6, r0, r3, cr12
     e54:	6944316b 	stmdbvs	r4, {r0, r1, r3, r5, r6, r8, ip, sp}^
     e58:	65560076 	ldrbvs	r0, [r6, #-118]	; 0x76
     e5c:	65746147 	ldrbvs	r6, [r4, #-327]!	; 0x147
     e60:	6d644800 	stclvs	8, cr4, [r4, #-0]
     e64:	6b6c4369 	blvs	1b11c10 <__dram_freq_start+0x1b11c10>
     e68:	73657200 	cmnvc	r5, #0
     e6c:	65767265 	ldrbvs	r7, [r6, #-613]!	; 0x265
     e70:	00333164 	eorseq	r3, r3, r4, ror #2
     e74:	424c4c50 	submi	r4, ip, #20480	; 0x5000
     e78:	73617079 	cmnvc	r1, #121	; 0x79
     e7c:	634c0073 	movtvs	r0, #49267	; 0xc073
     e80:	68433064 	stmdavs	r3, {r2, r5, r6, ip, sp}^
     e84:	6b6c4330 	blvs	1b11b4c <__dram_freq_start+0x1b11b4c>
     e88:	63784500 	cmnvs	r8, #0
     e8c:	676e6168 	strbvs	r6, [lr, -r8, ror #2]!
     e90:	006e4565 	rsbeq	r4, lr, r5, ror #10
     e94:	63617246 	cmnvs	r1, #1610612740	; 0x60000004
     e98:	00746553 	rsbseq	r6, r4, r3, asr r5
     e9c:	63635f5f 	cmnvs	r3, #380	; 0x17c
     ea0:	615f756d 	cmpvs	pc, sp, ror #10
     ea4:	63316270 	teqvs	r1, #7
     ea8:	675f6b6c 	ldrbvs	r6, [pc, -ip, ror #22]
     eac:	5f657461 	svcpl	0x00657461
     eb0:	30676572 	rsbcc	r6, r7, r2, ror r5
     eb4:	5f633630 	svcpl	0x00633630
     eb8:	65670074 	strbvs	r0, [r7, #-116]!	; 0x74
     ebc:	79635f74 	stmdbvc	r3!, {r2, r4, r5, r6, r8, r9, sl, fp, ip, lr}^
     ec0:	63656c63 	cmnvs	r5, #25344	; 0x6300
     ec4:	746e756f 	strbtvc	r7, [lr], #-1391	; 0x56f
     ec8:	635f5f00 	cmpvs	pc, #0
     ecc:	5f756d63 	svcpl	0x00756d63
     ed0:	696d6468 	stmdbvs	sp!, {r3, r5, r6, sl, sp, lr}^
     ed4:	73725f31 	cmnvc	r2, #196	; 0xc4
     ed8:	65725f74 	ldrbvs	r5, [r2, #-3956]!	; 0xf74
     edc:	37313067 	ldrcc	r3, [r1, -r7, rrx]!
     ee0:	00745f30 	rsbseq	r5, r4, r0, lsr pc
     ee4:	4c545f49 	mrrcmi	15, 4, r5, r4, cr9
     ee8:	494d5f42 	stmdbmi	sp, {r1, r6, r8, r9, sl, fp, ip, lr}^
     eec:	43005353 	movwmi	r5, #851	; 0x353
     ef0:	43316973 	teqmi	r1, #1884160	; 0x1cc000
     ef4:	4c006b6c 	stcmi	11, cr6, [r0], {108}	; 0x6c
     ef8:	43316463 	teqmi	r1, #1660944384	; 0x63000000
     efc:	6c433068 	mcrrvs	0, 6, r3, r3, cr8
     f00:	4356006b 	cmpmi	r6, #107	; 0x6b
     f04:	7473524f 	ldrbtvc	r5, [r3], #-591	; 0x24f
     f08:	55006e49 	strpl	r6, [r0, #-3657]	; 0xe49
     f0c:	34747261 	ldrbtcc	r7, [r4], #-609	; 0x261
     f10:	65746147 	ldrbvs	r6, [r4, #-327]!	; 0x147
     f14:	6c6c5000 	stclvs	0, cr5, [ip], #-0
     f18:	6c744333 	ldclvs	3, cr4, [r4], #-204	; 0xffffff34
     f1c:	73795300 	cmnvc	r9, #0
     f20:	446b6c43 	strbtmi	r6, [fp], #-3139	; 0xc43
     f24:	44007669 	strmi	r7, [r0], #-1641	; 0x669
     f28:	31654665 	cmncc	r5, r5, ror #12
     f2c:	65746147 	ldrbvs	r6, [r4, #-327]!	; 0x147
     f30:	6c6c5000 	stclvs	0, cr5, [ip], #-0
     f34:	6c744338 	ldclvs	3, cr4, [r4], #-224	; 0xffffff20
     f38:	4c4c5000 	marmi	acc0, r5, ip
     f3c:	73616942 	cmnvc	r1, #1081344	; 0x108000
     f40:	5f006e45 	svcpl	0x00006e45
     f44:	4d43435f 	stclmi	3, cr4, [r3, #-380]	; 0xfffffe84
     f48:	4c505f55 	mrrcmi	15, 5, r5, r0, cr5
     f4c:	415f324c 	cmpmi	pc, ip, asr #4
     f50:	4f494455 	svcmi	0x00494455
     f54:	4745525f 	smlsldmi	r5, r5, pc, r2	; <UNPREDICTABLE>
     f58:	38303030 	ldmdacc	r0!, {r4, r5, ip, sp}
     f5c:	435f5f00 	cmpmi	pc, #0
     f60:	5f554d43 	svcpl	0x00554d43
     f64:	4344434c 	movtmi	r4, #17228	; 0x434c
     f68:	435f3148 	cmpmi	pc, #18
     f6c:	49004b4c 	stmdbmi	r0, {r2, r3, r6, r8, r9, fp, lr}
     f70:	47307369 	ldrmi	r7, [r0, -r9, ror #6]!
     f74:	00657461 	rsbeq	r7, r5, r1, ror #8
     f78:	63635f5f 	cmnvs	r3, #380	; 0x17c
     f7c:	635f756d 	cmpvs	pc, #457179136	; 0x1b400000
     f80:	756f6b6c 	strbvc	r6, [pc, #-2924]!	; 41c <__dram_freq_start+0x41c>
     f84:	00745f74 	rsbseq	r5, r4, r4, ror pc
     f88:	435f5f5f 	cmpmi	pc, #380	; 0x17c
     f8c:	5f554d43 	svcpl	0x00554d43
     f90:	314c4c50 	cmpcc	ip, r0, asr ip
     f94:	524f435f 	subpl	r4, pc, #2080374785	; 0x7c000001
     f98:	45525f45 	ldrbmi	r5, [r2, #-3909]	; 0xf45
     f9c:	30303047 	eorscc	r3, r0, r7, asr #32
     fa0:	61550030 	cmpvs	r5, r0, lsr r0
     fa4:	47317472 			; <UNDEFINED> instruction: 0x47317472
     fa8:	00657461 	rsbeq	r7, r5, r1, ror #8
     fac:	43435f5f 	movtmi	r5, #16223	; 0x3f5f
     fb0:	415f554d 	cmpmi	pc, sp, asr #10
     fb4:	5f414444 	svcpl	0x00414444
     fb8:	5f4b4c43 	svcpl	0x004b4c43
     fbc:	30474552 	subcc	r4, r7, r2, asr r5
     fc0:	00303431 	eorseq	r3, r0, r1, lsr r4
     fc4:	69647053 	stmdbvs	r4!, {r0, r1, r4, r6, ip, sp, lr}^
     fc8:	6b6c4366 	blvs	1b11d68 <__dram_freq_start+0x1b11d68>
     fcc:	74657300 	strbtvc	r7, [r5], #-768	; 0x300
     fd0:	6576655f 	ldrbvs	r6, [r6, #-1375]!	; 0x55f
     fd4:	635f746e 	cmpvs	pc, #1845493760	; 0x6e000000
     fd8:	746e756f 	strbtvc	r7, [lr], #-1391	; 0x56f
     fdc:	41007265 	tstmi	r0, r5, ror #4
     fe0:	43304250 	teqmi	r0, #5
     fe4:	69446b6c 	stmdbvs	r4, {r2, r3, r5, r6, r8, r9, fp, sp, lr}^
     fe8:	65720076 	ldrbvs	r0, [r2, #-118]!	; 0x76
     fec:	76726573 			; <UNDEFINED> instruction: 0x76726573
     ff0:	34316465 	ldrtcc	r6, [r1], #-1125	; 0x465
     ff4:	74616d00 	strbtvc	r6, [r1], #-3328	; 0xd00
     ff8:	655f6863 	ldrbvs	r6, [pc, #-2147]	; 79d <__dram_freq_start+0x79d>
     ffc:	746e6576 	strbtvc	r6, [lr], #-1398	; 0x576
    1000:	756f635f 	strbvc	r6, [pc, #-863]!	; ca9 <__dram_freq_start+0xca9>
    1004:	7265746e 	rsbvc	r7, r5, #1845493760	; 0x6e000000
    1008:	6b6c4300 	blvs	1b11c10 <__dram_freq_start+0x1b11c10>
    100c:	4174754f 	cmnmi	r4, pc, asr #10
    1010:	6b6c4300 	blvs	1b11c18 <__dram_freq_start+0x1b11c18>
    1014:	4274754f 	rsbsmi	r7, r4, #331350016	; 0x13c00000
    1018:	635f5f00 	cmpvs	pc, #0
    101c:	5f756d63 	svcpl	0x00756d63
    1020:	336c6c70 	cmncc	ip, #28672	; 0x7000
    1024:	6469765f 	strbtvs	r7, [r9], #-1631	; 0x65f
    1028:	725f6f65 	subsvc	r6, pc, #404	; 0x194
    102c:	30306765 	eorscc	r6, r0, r5, ror #14
    1030:	745f3031 	ldrbvc	r3, [pc], #-49	; 1038 <__dram_freq_start+0x1038>
    1034:	73657200 	cmnvc	r5, #0
    1038:	65767265 	ldrbvs	r7, [r6, #-613]!	; 0x265
    103c:	00363164 	eorseq	r3, r6, r4, ror #2
    1040:	61726453 	cmnvs	r2, r3, asr r4
    1044:	7461476d 	strbtvc	r4, [r1], #-1901	; 0x76d
    1048:	77540065 	ldrbvc	r0, [r4, -r5, rrx]
    104c:	61473269 	cmpvs	r7, r9, ror #4
    1050:	5f006574 	svcpl	0x00006574
    1054:	6d63635f 	stclvs	3, cr6, [r3, #-380]!	; 0xfffffe84
    1058:	70615f75 	rsbvc	r5, r1, r5, ror pc
    105c:	6c633062 	stclvs	0, cr3, [r3], #-392	; 0xfffffe78
    1060:	61675f6b 	cmnvs	r7, fp, ror #30
    1064:	725f6574 	subsvc	r6, pc, #486539264	; 0x1d000000
    1068:	30306765 	eorscc	r6, r0, r5, ror #14
    106c:	745f3836 	ldrbvc	r3, [pc], #-2102	; 1074 <__dram_freq_start+0x1074>
    1070:	69705300 	ldmdbvs	r0!, {r8, r9, ip, lr}^
    1074:	6b6c4332 	blvs	1b11d44 <__dram_freq_start+0x1b11d44>
    1078:	65634100 	strbvs	r4, [r3, #-256]!	; 0x100
    107c:	65746147 	ldrbvs	r6, [r4, #-327]!	; 0x147
    1080:	635f5f00 	cmpvs	pc, #0
    1084:	5f756d63 	svcpl	0x00756d63
    1088:	63616d67 	cmnvs	r1, #6592	; 0x19c0
    108c:	6b6c635f 	blvs	1b19e10 <__dram_freq_start+0x1b19e10>
    1090:	6765725f 			; <UNDEFINED> instruction: 0x6765725f
    1094:	34363130 	ldrtcc	r3, [r6], #-304	; 0x130
    1098:	4f00745f 	svcmi	0x0000745f
    109c:	34324353 	ldrtcc	r4, [r2], #-851	; 0x353
    10a0:	6d73474d 	ldclvs	7, cr4, [r3, #-308]!	; 0xfffffecc
    10a4:	61724400 	cmnvs	r2, r0, lsl #8
    10a8:	7461476d 	strbtvc	r4, [r1], #-1901	; 0x76d
    10ac:	73550065 	cmpvc	r5, #101	; 0x65
    10b0:	79685062 	stmdbvc	r8!, {r1, r5, r6, ip, lr}^
    10b4:	74735230 	ldrbtvc	r5, [r3], #-560	; 0x230
    10b8:	6d645300 	stclvs	3, cr5, [r4, #-0]
    10bc:	4732636d 	ldrmi	r6, [r2, -sp, ror #6]!
    10c0:	00657461 	rsbeq	r7, r5, r1, ror #8
    10c4:	63635f5f 	cmnvs	r3, #380	; 0x17c
    10c8:	705f756d 	subsvc	r7, pc, sp, ror #10
    10cc:	5f376c6c 	svcpl	0x00376c6c
    10d0:	65646976 	strbvs	r6, [r4, #-2422]!	; 0x976
    10d4:	725f316f 	subsvc	r3, pc, #-1073741797	; 0xc000001b
    10d8:	30306765 	eorscc	r6, r0, r5, ror #14
    10dc:	745f3033 	ldrbvc	r3, [pc], #-51	; 10e4 <__dram_freq_start+0x10e4>
    10e0:	42654400 	rsbmi	r4, r5, #0
    10e4:	6c433065 	mcrrvs	0, 6, r3, r3, cr5
    10e8:	6f4d006b 	svcvs	0x004d006b
    10ec:	65536564 	ldrbvs	r6, [r3, #-1380]	; 0x564
    10f0:	7047006c 	subvc	r0, r7, ip, rrx
    10f4:	47443375 	smlsldxmi	r3, r4, r5, r3
    10f8:	00657461 	rsbeq	r7, r5, r1, ror #8
    10fc:	3164634c 	cmncc	r4, ip, asr #6
    1100:	43316843 	teqmi	r1, #4390912	; 0x430000
    1104:	4d006b6c 	vstrmi	d6, [r0, #-432]	; 0xfffffe50
    1108:	43737542 	cmnmi	r3, #276824064	; 0x10800000
    110c:	5f006b6c 	svcpl	0x00006b6c
    1110:	4d43435f 	stclmi	3, cr4, [r3, #-380]	; 0xfffffe84
    1114:	4c505f55 	mrrcmi	15, 5, r5, r0, cr5
    1118:	565f374c 	ldrbpl	r3, [pc], -ip, asr #14
    111c:	4f454449 	svcmi	0x00454449
    1120:	45525f31 	ldrbmi	r5, [r2, #-3889]	; 0xf31
    1124:	33303047 	teqcc	r0, #71	; 0x47
    1128:	5f5f0030 	svcpl	0x005f0030
    112c:	554d4343 	strbpl	r4, [sp, #-835]	; 0x343
    1130:	4456545f 	ldrbmi	r5, [r6], #-1119	; 0x45f
    1134:	4b4c435f 	blmi	1311eb8 <__dram_freq_start+0x1311eb8>
    1138:	4745525f 	smlsldmi	r5, r5, pc, r2	; <UNPREDICTABLE>
    113c:	38323130 	ldmdacc	r2!, {r4, r5, r8, ip, sp}
    1140:	63616600 	cmnvs	r1, #0
    1144:	5f726f74 	svcpl	0x00726f74
    1148:	6e63006d 	cdpvs	0, 6, cr0, cr3, cr13, {3}
    114c:	00726574 	rsbseq	r6, r2, r4, ror r5
    1150:	6963684f 	stmdbvs	r3!, {r0, r1, r2, r3, r6, fp, sp, lr}^
    1154:	74614730 	strbtvc	r4, [r1], #-1840	; 0x730
    1158:	72490065 	subvc	r0, r9, #101	; 0x65
    115c:	74614730 	strbtvc	r4, [r1], #-1840	; 0x730
    1160:	64530065 	ldrbvs	r0, [r3], #-101	; 0x65
    1164:	31636d4d 	cmncc	r3, sp, asr #26
    1168:	006b6c43 	rsbeq	r6, fp, r3, asr #24
    116c:	63635f5f 	cmnvs	r3, #380	; 0x17c
    1170:	615f756d 	cmpvs	pc, sp, ror #10
    1174:	635f6563 	cmpvs	pc, #415236096	; 0x18c00000
    1178:	725f6b6c 	subsvc	r6, pc, #110592	; 0x1b000
    117c:	31306765 	teqcc	r0, r5, ror #14
    1180:	745f3834 	ldrbvc	r3, [pc], #-2100	; 1188 <__dram_freq_start+0x1188>
    1184:	635f5f00 	cmpvs	pc, #0
    1188:	5f756d63 	svcpl	0x00756d63
    118c:	75646f6d 	strbvc	r6, [r4, #-3949]!	; 0xf6d
    1190:	5f30656c 	svcpl	0x0030656c
    1194:	5f6b6c63 	svcpl	0x006b6c63
    1198:	5f5f0074 	svcpl	0x005f0074
    119c:	554d4343 	strbpl	r4, [sp, #-835]	; 0x343
    11a0:	43534f5f 	cmpmi	r3, #380	; 0x17c
    11a4:	5f4d3432 	svcpl	0x004d3432
    11a8:	30474552 	subcc	r4, r7, r2, asr r5
    11ac:	00303530 	eorseq	r3, r0, r0, lsr r5
    11b0:	726d7453 	rsbvc	r7, sp, #1392508928	; 0x53000000
    11b4:	65746147 	ldrbvs	r6, [r4, #-327]!	; 0x147
    11b8:	616d4500 	cmnvs	sp, r0, lsl #10
    11bc:	74614763 	strbtvc	r4, [r1], #-1891	; 0x763
    11c0:	654b0065 	strbvs	r0, [fp, #-101]	; 0x65
    11c4:	65694679 	strbvs	r4, [r9, #-1657]!	; 0x679
    11c8:	6d00646c 	cfstrsvs	mvf6, [r0, #-432]	; 0xfffffe50
    11cc:	665f756d 	ldrbvs	r7, [pc], -sp, ror #10
    11d0:	0067616c 	rsbeq	r6, r7, ip, ror #2
    11d4:	5f756d63 	svcpl	0x00756d63
    11d8:	00676572 	rsbeq	r6, r7, r2, ror r5
    11dc:	63635f5f 	cmnvs	r3, #380	; 0x17c
    11e0:	6c5f756d 	cfldr64vs	mvdx7, [pc], {109}	; 0x6d
    11e4:	5f736476 	svcpl	0x00736476
    11e8:	5f6b6c63 	svcpl	0x006b6c63
    11ec:	30676572 	rsbcc	r6, r7, r2, ror r5
    11f0:	5f633431 	svcpl	0x00633431
    11f4:	6c500074 	mrrcvs	0, 7, r0, r0, cr4	; <UNPREDICTABLE>
    11f8:	7443356c 	strbvc	r3, [r3], #-1388	; 0x56c
    11fc:	5f5f006c 	svcpl	0x005f006c
    1200:	756d6363 	strbvc	r6, [sp, #-867]!	; 0x363
    1204:	5f65765f 	svcpl	0x0065765f
    1208:	5f6b6c63 	svcpl	0x006b6c63
    120c:	30676572 	rsbcc	r6, r7, r2, ror r5
    1210:	5f633331 	svcpl	0x00633331
    1214:	5f5f0074 	svcpl	0x005f0074
    1218:	554d4343 	strbpl	r4, [sp, #-835]	; 0x343
    121c:	4543415f 	strbmi	r4, [r3, #-351]	; 0x15f
    1220:	4b4c435f 	blmi	1311fa4 <__dram_freq_start+0x1311fa4>
    1224:	4745525f 	smlsldmi	r5, r5, pc, r2	; <UNPREDICTABLE>
    1228:	38343130 	ldmdacc	r4!, {r4, r5, r8, ip, sp}
    122c:	67695300 	strbvs	r5, [r9, -r0, lsl #6]!
    1230:	6e49616d 	dvfvsez	f6, f1, #5.0
    1234:	47734d00 	ldrbmi	r4, [r3, -r0, lsl #26]!
    1238:	00657461 	rsbeq	r7, r5, r1, ror #8
    123c:	43435f5f 	movtmi	r5, #16223	; 0x3f5f
    1240:	505f554d 	subspl	r5, pc, sp, asr #10
    1244:	5f334c4c 	svcpl	0x00334c4c
    1248:	45444956 	strbmi	r4, [r4, #-2390]	; 0x956
    124c:	45525f4f 	ldrbmi	r5, [r2, #-3919]	; 0xf4f
    1250:	31303047 	teqcc	r0, r7, asr #32
    1254:	64410030 	strbvs	r0, [r1], #-48	; 0x30
    1258:	61476164 	cmpvs	r7, r4, ror #2
    125c:	56006574 			; <UNDEFINED> instruction: 0x56006574
    1260:	69424f43 	stmdbvs	r2, {r0, r1, r6, r8, r9, sl, fp, lr}^
    1264:	5f007361 	svcpl	0x00007361
    1268:	6d63635f 	stclvs	3, cr6, [r3, #-380]!	; 0xfffffe84
    126c:	636c5f75 	cmnvs	ip, #468	; 0x1d4
    1270:	31686364 	cmncc	r8, r4, ror #6
    1274:	6b6c635f 	blvs	1b19ff8 <__dram_freq_start+0x1b19ff8>
    1278:	5400745f 	strpl	r7, [r0], #-1119	; 0x45f
    127c:	6c436476 	cfstrdvs	mvd6, [r3], {118}	; 0x76
    1280:	6544006b 	strbvs	r0, [r4, #-107]	; 0x6b
    1284:	47306542 	ldrmi	r6, [r0, -r2, asr #10]!
    1288:	00657461 	rsbeq	r7, r5, r1, ror #8
    128c:	41627441 	cmnmi	r2, r1, asr #8
    1290:	6c436270 	sfmvs	f6, 2, [r3], {112}	; 0x70
    1294:	7669446b 	strbtvc	r4, [r9], -fp, ror #8
    1298:	435f5f00 	cmpmi	pc, #0
    129c:	5f554d43 	svcpl	0x00554d43
    12a0:	31425041 	cmpcc	r2, r1, asr #32
    12a4:	5f4b4c43 	svcpl	0x004b4c43
    12a8:	49544152 	ldmdbmi	r4, {r1, r4, r6, r8, lr}^
    12ac:	45525f4f 	ldrbmi	r5, [r2, #-3919]	; 0xf4f
    12b0:	35303047 	ldrcc	r3, [r0, #-71]!	; 0x47
    12b4:	61530038 	cmpvs	r3, r8, lsr r0
    12b8:	6c436174 	stfvse	f6, [r3], {116}	; 0x74
    12bc:	3249006b 	subcc	r0, r9, #107	; 0x6b
    12c0:	6c433073 	mcrrvs	0, 7, r3, r3, cr3
    12c4:	6572006b 	ldrbvs	r0, [r2, #-107]!	; 0x6b
    12c8:	76726573 			; <UNDEFINED> instruction: 0x76726573
    12cc:	00306465 	eorseq	r6, r0, r5, ror #8
    12d0:	65736572 	ldrbvs	r6, [r3, #-1394]!	; 0x572
    12d4:	64657672 	strbtvs	r7, [r5], #-1650	; 0x672
    12d8:	65720031 	ldrbvs	r0, [r2, #-49]!	; 0x31
    12dc:	76726573 			; <UNDEFINED> instruction: 0x76726573
    12e0:	00326465 	eorseq	r6, r2, r5, ror #8
    12e4:	65736572 	ldrbvs	r6, [r3, #-1394]!	; 0x572
    12e8:	64657672 	strbtvs	r7, [r5], #-1650	; 0x672
    12ec:	65720033 	ldrbvs	r0, [r2, #-51]!	; 0x33
    12f0:	76726573 			; <UNDEFINED> instruction: 0x76726573
    12f4:	00346465 	eorseq	r6, r4, r5, ror #8
    12f8:	65736572 	ldrbvs	r6, [r3, #-1394]!	; 0x572
    12fc:	64657672 	strbtvs	r7, [r5], #-1650	; 0x672
    1300:	65720035 	ldrbvs	r0, [r2, #-53]!	; 0x35
    1304:	76726573 			; <UNDEFINED> instruction: 0x76726573
    1308:	00366465 	eorseq	r6, r6, r5, ror #8
    130c:	65736572 	ldrbvs	r6, [r3, #-1394]!	; 0x572
    1310:	64657672 	strbtvs	r7, [r5], #-1650	; 0x672
    1314:	70530037 	subsvc	r0, r3, r7, lsr r0
    1318:	6c436365 	mcrrvs	3, 6, r6, r3, cr5
    131c:	6147316b 	cmpvs	r7, fp, ror #2
    1320:	72006574 	andvc	r6, r0, #486539264	; 0x1d000000
    1324:	72657365 	rsbvc	r7, r5, #-1811939327	; 0x94000001
    1328:	39646576 	stmdbcc	r4!, {r1, r2, r4, r5, r6, r8, sl, sp, lr}^
    132c:	74754f00 	ldrbtvc	r4, [r5], #-3840	; 0xf00
    1330:	506b6c43 	rsbpl	r6, fp, r3, asr #24
    1334:	65736168 	ldrbvs	r6, [r3, #-360]!	; 0x168
    1338:	65705300 	ldrbvs	r5, [r0, #-768]!	; 0x300
    133c:	6b6c4363 	blvs	1b120d0 <__dram_freq_start+0x1b120d0>
    1340:	63725332 	cmnvs	r2, #-939524096	; 0xc8000000
    1344:	435f5f00 	cmpmi	pc, #0
    1348:	5f554d43 	svcpl	0x00554d43
    134c:	494d4448 	stmdbmi	sp, {r3, r6, sl, lr}^
    1350:	48535f31 	ldmdami	r3, {r0, r4, r5, r8, r9, sl, fp, ip, lr}^
    1354:	4c435f57 	mcrrmi	15, 5, r5, r3, cr7
    1358:	45525f4b 	ldrbmi	r5, [r2, #-3915]	; 0xf4b
    135c:	37313047 	ldrcc	r3, [r1, -r7, asr #32]!
    1360:	6c430038 	mcrrvs	0, 3, r0, r3, cr8
    1364:	6944326b 	stmdbvs	r4, {r0, r1, r3, r5, r6, r9, ip, sp}^
    1368:	534f0076 	movtpl	r0, #61558	; 0xf076
    136c:	4d343243 	lfmmi	f3, 4, [r4, #-268]!	; 0xfffffef4
    1370:	64006e45 	strvs	r6, [r0], #-3653	; 0xe45
    1374:	65725f6f 	ldrbvs	r5, [r2, #-3951]!	; 0xf6f
    1378:	00746573 	rsbseq	r6, r4, r3, ror r5
    137c:	47616d44 	strbmi	r6, [r1, -r4, asr #26]!
    1380:	00657461 	rsbeq	r7, r5, r1, ror #8
    1384:	454c4c50 	strbmi	r4, [ip, #-3152]	; 0xc50
    1388:	5f5f006e 	svcpl	0x005f006e
    138c:	554d4343 	strbpl	r4, [sp, #-835]	; 0x343
    1390:	59454b5f 	stmdbpl	r5, {r0, r1, r2, r3, r4, r6, r8, r9, fp, lr}^
    1394:	5f444150 	svcpl	0x00444150
    1398:	5f4b4c43 	svcpl	0x004b4c43
    139c:	30474552 	subcc	r4, r7, r2, asr r5
    13a0:	00344330 	eorseq	r4, r4, r0, lsr r3
    13a4:	6e657665 	cdpvs	6, 6, cr7, cr5, cr5, {3}
    13a8:	6e635f74 	mcrvs	15, 3, r5, cr3, cr4, {3}
    13ac:	6c430074 	mcrrvs	0, 7, r0, r3, cr4
    13b0:	7669446b 	strbtvc	r4, [r9], -fp, ror #8
    13b4:	6572004e 	ldrbvs	r0, [r2, #-78]!	; 0x4e
    13b8:	5f746573 	svcpl	0x00746573
    13bc:	6e756f63 	cdpvs	15, 7, cr6, cr5, cr3, {3}
    13c0:	00726574 	rsbseq	r6, r2, r4, ror r5
    13c4:	43435f5f 	movtmi	r5, #16223	; 0x3f5f
    13c8:	535f554d 	cmppl	pc, #322961408	; 0x13400000
    13cc:	4c435359 	mcrrmi	3, 5, r5, r3, cr9
    13d0:	41525f4b 	cmpmi	r2, fp, asr #30
    13d4:	5f4f4954 	svcpl	0x004f4954
    13d8:	30474552 	subcc	r4, r7, r2, asr r5
    13dc:	00343530 	eorseq	r3, r4, r0, lsr r5
    13e0:	61646441 	cmnvs	r4, r1, asr #8
    13e4:	006b6c43 	rsbeq	r6, fp, r3, asr #24
    13e8:	6c437354 	mcrrvs	3, 5, r7, r3, cr4
    13ec:	7343006b 	movtvc	r0, #12395	; 0x306b
    13f0:	70734969 	rsbsvc	r4, r3, r9, ror #18
    13f4:	006b6c43 	rsbeq	r6, fp, r3, asr #24
    13f8:	69636845 	stmdbvs	r3!, {r0, r2, r6, fp, sp, lr}^
    13fc:	74614730 	strbtvc	r4, [r1], #-1840	; 0x730
    1400:	654b0065 	strbvs	r0, [fp, #-101]	; 0x65
    1404:	64615079 	strbtvs	r5, [r1], #-121	; 0x79
    1408:	006b6c43 	rsbeq	r6, fp, r3, asr #24
    140c:	424c4c50 	submi	r4, ip, #20480	; 0x5000
    1410:	00736169 	rsbseq	r6, r3, r9, ror #2
    1414:	706d6153 	rsbvc	r6, sp, r3, asr r1
    1418:	6c43656c 	cfstr64vs	mvdx6, [r3], {108}	; 0x6c
    141c:	6168506b 	cmnvs	r8, fp, rrx
    1420:	4e006573 	cfrshl64mi	mvdx0, mvdx3, r6
    1424:	47646e61 	strbmi	r6, [r4, -r1, ror #28]!
    1428:	00657461 	rsbeq	r7, r5, r1, ror #8
    142c:	61477353 	cmpvs	r7, r3, asr r3
    1430:	5f006574 	svcpl	0x00006574
    1434:	6d63635f 	stclvs	3, cr6, [r3, #-380]!	; 0xfffffe84
    1438:	65665f75 	strbvs	r5, [r6, #-3957]!	; 0xf75
    143c:	706d6564 	rsbvc	r6, sp, r4, ror #10
    1440:	6b6c635f 	blvs	1b1a1c4 <__dram_freq_start+0x1b1a1c4>
    1444:	5300745f 	movwpl	r7, #1119	; 0x45f
    1448:	636d4d64 	cmnvs	sp, #6400	; 0x1900
    144c:	6b6c4333 	blvs	1b12120 <__dram_freq_start+0x1b12120>
    1450:	6d644800 	stclvs	8, cr4, [r4, #-0]
    1454:	61474469 	cmpvs	r7, r9, ror #8
    1458:	41006574 	tstmi	r0, r4, ror r5
    145c:	6c434248 	sfmvs	f4, 2, [r3], {72}	; 0x48
    1460:	6372536b 	cmnvs	r2, #-1409286143	; 0xac000001
    1464:	4f444c00 	svcmi	0x00444c00
    1468:	7074754f 	rsbsvc	r7, r4, pc, asr #10
    146c:	55007475 	strpl	r7, [r0, #-1141]	; 0x475
    1470:	36747261 	ldrbtcc	r7, [r4], -r1, ror #4
    1474:	65746147 	ldrbvs	r6, [r4, #-327]!	; 0x147
    1478:	4f444c00 	svcmi	0x00444c00
    147c:	006e4532 	rsbeq	r4, lr, r2, lsr r5
    1480:	74636146 	strbtvc	r6, [r3], #-326	; 0x146
    1484:	314d726f 	cmpcc	sp, pc, ror #4
    1488:	6c6c5000 	stclvs	0, cr5, [ip], #-0
    148c:	6c744337 	ldclvs	3, cr4, [r4], #-220	; 0xffffff24
    1490:	635f5f00 	cmpvs	pc, #0
    1494:	5f756d63 	svcpl	0x00756d63
    1498:	5f676572 	svcpl	0x00676572
    149c:	7473696c 	ldrbtvc	r6, [r3], #-2412	; 0x96c
    14a0:	4e00745f 	cfmvsrmi	mvf0, r7
    14a4:	43646e61 	cmnmi	r4, #1552	; 0x610
    14a8:	43006b6c 	movwmi	r6, #2924	; 0xb6c
    14ac:	69446b6c 	stmdbvs	r4, {r2, r3, r5, r6, r8, r9, fp, sp, lr}^
    14b0:	4f004d76 	svcmi	0x00004d76
    14b4:	30494348 	subcc	r4, r9, r8, asr #6
    14b8:	63657053 	cmnvs	r5, #83	; 0x53
    14bc:	476b6c43 	strbmi	r6, [fp, -r3, asr #24]!
    14c0:	00657461 	rsbeq	r7, r5, r1, ror #8
    14c4:	63635f5f 	cmnvs	r3, #380	; 0x17c
    14c8:	745f756d 	ldrbvc	r7, [pc], #-1389	; 14d0 <__dram_freq_start+0x14d0>
    14cc:	635f6476 	cmpvs	pc, #1979711488	; 0x76000000
    14d0:	725f6b6c 	subsvc	r6, pc, #110592	; 0x1b000
    14d4:	31306765 	teqcc	r0, r5, ror #14
    14d8:	745f3832 	ldrbvc	r3, [pc], #-2098	; 14e0 <__dram_freq_start+0x14e0>
    14dc:	73694900 	cmnvc	r9, #0
    14e0:	74614732 	strbtvc	r4, [r1], #-1842	; 0x732
    14e4:	614d0065 	cmpvs	sp, r5, rrx
    14e8:	6c43696c 	mcrrvs	9, 6, r6, r3, cr12
    14ec:	7641006b 	strbvc	r0, [r1], -fp, rrx
    14f0:	6b6c4373 	blvs	1b122c4 <__dram_freq_start+0x1b122c4>
    14f4:	435f5f00 	cmpmi	pc, #0
    14f8:	5f554d43 	svcpl	0x00554d43
    14fc:	43414d47 	movtmi	r4, #7495	; 0x1d47
    1500:	4b4c435f 	blmi	1312284 <__dram_freq_start+0x1312284>
    1504:	4745525f 	smlsldmi	r5, r5, pc, r2	; <UNPREDICTABLE>
    1508:	34363130 	ldrtcc	r3, [r6], #-304	; 0x130
    150c:	62735500 	rsbsvs	r5, r3, #0
    1510:	31796850 	cmncc	r9, r0, asr r8
    1514:	00747352 	rsbseq	r7, r4, r2, asr r3
    1518:	63635f5f 	cmnvs	r3, #380	; 0x17c
    151c:	735f756d 	cmpvc	pc, #457179136	; 0x1b400000
    1520:	6c637379 	stclvs	3, cr7, [r3], #-484	; 0xfffffe1c
    1524:	725f6c6b 	subsvc	r6, pc, #27392	; 0x6b00
    1528:	6f697461 	svcvs	0x00697461
    152c:	6765725f 			; <UNDEFINED> instruction: 0x6765725f
    1530:	34353030 	ldrtcc	r3, [r5], #-48	; 0x30
    1534:	5500745f 	strpl	r7, [r0, #-1119]	; 0x45f
    1538:	33747261 	cmncc	r4, #268435462	; 0x10000006
    153c:	65746147 	ldrbvs	r6, [r4, #-327]!	; 0x147
    1540:	46654400 	strbtmi	r4, [r5], -r0, lsl #8
    1544:	61473065 	cmpvs	r7, r5, rrx
    1548:	43006574 	movwmi	r6, #1396	; 0x574
    154c:	47316973 			; <UNDEFINED> instruction: 0x47316973
    1550:	00657461 	rsbeq	r7, r5, r1, ror #8
    1554:	74696e69 	strbtvc	r6, [r9], #-3689	; 0xe69
    1558:	6576655f 	ldrbvs	r6, [r6, #-1375]!	; 0x55f
    155c:	635f746e 	cmpvs	pc, #1845493760	; 0x6e000000
    1560:	746e756f 	strbtvc	r7, [lr], #-1391	; 0x56f
    1564:	64007265 	strvs	r7, [r0], #-613	; 0x265
    1568:	79616c65 	stmdbvc	r1!, {r0, r2, r5, r6, sl, fp, sp, lr}^
    156c:	0073755f 	rsbseq	r7, r3, pc, asr r5
    1570:	3164634c 	cmncc	r4, ip, asr #6
    1574:	65746147 	ldrbvs	r6, [r4, #-327]!	; 0x147
    1578:	435f5f00 	cmpmi	pc, #0
    157c:	5f554d43 	svcpl	0x00554d43
    1580:	4344434c 	movtmi	r4, #17228	; 0x434c
    1584:	435f3048 	cmpmi	pc, #72	; 0x48
    1588:	54004b4c 	strpl	r4, [r0], #-2892	; 0xb4c
    158c:	47346977 			; <UNDEFINED> instruction: 0x47346977
    1590:	00657461 	rsbeq	r7, r5, r1, ror #8
    1594:	74636166 	strbtvc	r6, [r3], #-358	; 0x166
    1598:	6b5f726f 	blvs	17ddf5c <__dram_freq_start+0x17ddf5c>
    159c:	636f4c00 	cmnvs	pc, #0
    15a0:	6d69546b 	cfstrdvs	mvd5, [r9, #-428]!	; 0xfffffe54
    15a4:	5f5f0065 	svcpl	0x005f0065
    15a8:	554d4343 	strbpl	r4, [sp, #-835]	; 0x343
    15ac:	5f45565f 	svcpl	0x0045565f
    15b0:	5f4b4c43 	svcpl	0x004b4c43
    15b4:	30474552 	subcc	r4, r7, r2, asr r5
    15b8:	00433331 	subeq	r3, r3, r1, lsr r3
    15bc:	63635f5f 	cmnvs	r3, #380	; 0x17c
    15c0:	615f756d 	cmpvs	pc, sp, ror #10
    15c4:	635f7376 	cmpvs	pc, #-671088639	; 0xd8000001
    15c8:	725f6b6c 	subsvc	r6, pc, #110592	; 0x1b000
    15cc:	31306765 	teqcc	r0, r5, ror #14
    15d0:	745f3434 	ldrbvc	r3, [pc], #-1076	; 15d8 <__dram_freq_start+0x15d8>
    15d4:	72615500 	rsbvc	r5, r1, #0
    15d8:	61473074 	hvcvs	29444	; 0x7304
    15dc:	56006574 			; <UNDEFINED> instruction: 0x56006574
    15e0:	69426f63 	stmdbvs	r2, {r0, r1, r5, r6, r8, r9, sl, fp, sp, lr}^
    15e4:	50007361 	andpl	r7, r0, r1, ror #6
    15e8:	44766572 	ldrbtmi	r6, [r6], #-1394	; 0x572
    15ec:	5f007669 	svcpl	0x00007669
    15f0:	4d43435f 	stclmi	3, cr4, [r3, #-380]	; 0xfffffe84
    15f4:	50415f55 	subpl	r5, r1, r5, asr pc
    15f8:	4c433142 	stfmie	f3, [r3], {66}	; 0x42
    15fc:	41475f4b 	cmpmi	r7, fp, asr #30
    1600:	525f4554 	subspl	r4, pc, #352321536	; 0x15000000
    1604:	30304745 	eorscc	r4, r0, r5, asr #14
    1608:	41004336 	tstmi	r0, r6, lsr r3
    160c:	6c434958 	mcrrvs	9, 5, r4, r3, cr8
    1610:	7669446b 	strbtvc	r4, [r9], -fp, ror #8
    1614:	62704100 	rsbsvs	r4, r0, #0
    1618:	74614731 	strbtvc	r4, [r1], #-1841	; 0x731
    161c:	68500065 	ldmdavs	r0, {r0, r2, r5, r6}^
    1620:	00544979 	subseq	r4, r4, r9, ror r9
    1624:	474f4356 	smlsldmi	r4, pc, r6, r3	; <UNPREDICTABLE>
    1628:	006e6961 	rsbeq	r6, lr, r1, ror #18
    162c:	5f746567 	svcpl	0x00746567
    1630:	6e657665 	cdpvs	6, 6, cr7, cr5, cr5, {3}
    1634:	6f635f74 	svcvs	0x00635f74
    1638:	65746e75 	ldrbvs	r6, [r4, #-3701]!	; 0xe75
    163c:	77540072 			; <UNDEFINED> instruction: 0x77540072
    1640:	61473169 	cmpvs	r7, r9, ror #2
    1644:	50006574 	andpl	r6, r0, r4, ror r5
    1648:	43326c6c 	teqmi	r2, #27648	; 0x6c00
    164c:	5f006c74 	svcpl	0x00006c74
    1650:	4d43435f 	stclmi	3, cr4, [r3, #-380]	; 0xfffffe84
    1654:	45525f55 	ldrbmi	r5, [r2, #-3925]	; 0xf55
    1658:	494c5f47 	stmdbmi	ip, {r0, r1, r2, r6, r8, r9, sl, fp, ip, lr}^
    165c:	5f005453 	svcpl	0x00005453
    1660:	4d43435f 	stclmi	3, cr4, [r3, #-380]	; 0xfffffe84
    1664:	4c505f55 	mrrcmi	15, 5, r5, r0, cr5
    1668:	475f384c 	ldrbmi	r3, [pc, -ip, asr #16]
    166c:	525f5550 	subspl	r5, pc, #335544320	; 0x14000000
    1670:	30304745 	eorscc	r4, r0, r5, asr #14
    1674:	5f003034 	svcpl	0x00003034
    1678:	6d63635f 	stclvs	3, cr6, [r3, #-380]!	; 0xfffffe84
    167c:	6c705f75 	ldclvs	15, cr5, [r0], #-468	; 0xfffffe2c
    1680:	765f346c 	ldrbvc	r3, [pc], -ip, ror #8
    1684:	65725f65 	ldrbvs	r5, [r2, #-3941]!	; 0xf65
    1688:	31303067 	teqcc	r0, r7, rrx
    168c:	00745f38 	rsbseq	r5, r4, r8, lsr pc
    1690:	2e2e2f2e 	cdpcs	15, 2, cr2, cr14, cr14, {1}
    1694:	6d656d2f 	stclvs	13, cr6, [r5, #-188]!	; 0xffffff44
    1698:	6d69745f 	cfstrdvs	mvd7, [r9, #-380]!	; 0xfffffe84
    169c:	2e676e69 	cdpcs	14, 6, cr6, cr7, cr9, {3}
    16a0:	61660063 	cmnvs	r6, r3, rrx
    16a4:	726f7463 	rsbvc	r7, pc, #1660944384	; 0x63000000
    16a8:	50006e5f 	andpl	r6, r0, pc, asr lr
    16ac:	47313273 			; <UNDEFINED> instruction: 0x47313273
    16b0:	00657461 	rsbeq	r7, r5, r1, ror #8
    16b4:	30697343 	rsbcc	r7, r9, r3, asr #6
    16b8:	65746147 	ldrbvs	r6, [r4, #-327]!	; 0x147
    16bc:	6b6c4300 	blvs	1b122c4 <__dram_freq_start+0x1b122c4>
    16c0:	5f006e45 	svcpl	0x00006e45
    16c4:	4d43435f 	stclmi	3, cr4, [r3, #-380]	; 0xfffffe84
    16c8:	44485f55 	strbmi	r5, [r8], #-3925	; 0xf55
    16cc:	5f31494d 	svcpl	0x0031494d
    16d0:	5f4c5443 	svcpl	0x004c5443
    16d4:	30474552 	subcc	r4, r7, r2, asr r5
    16d8:	00343731 	eorseq	r3, r4, r1, lsr r7
    16dc:	6d6d6453 	cfstrdvs	mvd6, [sp, #-332]!	; 0xfffffeb4
    16e0:	61473163 	cmpvs	r7, r3, ror #2
    16e4:	5f006574 	svcpl	0x00006574
    16e8:	4d43435f 	stclmi	3, cr4, [r3, #-380]	; 0xfffffe84
    16ec:	50415f55 	subpl	r5, r1, r5, asr pc
    16f0:	4c433042 	mcrrmi	0, 4, r3, r3, cr2
    16f4:	41475f4b 	cmpmi	r7, fp, asr #30
    16f8:	525f4554 	subspl	r4, pc, #352321536	; 0x15000000
    16fc:	30304745 	eorscc	r4, r0, r5, asr #14
    1700:	6d003836 	stcvs	8, cr3, [r0, #-216]	; 0xffffff28
    1704:	5f6c7463 	svcpl	0x006c7463
    1708:	75746573 	ldrbvc	r6, [r4, #-1395]!	; 0x573
    170c:	72645f70 	rsbvc	r5, r4, #448	; 0x1c0
    1710:	635f6d61 	cmpvs	pc, #6208	; 0x1840
    1714:	6b636f6c 	blvs	18dd4cc <__dram_freq_start+0x18dd4cc>
    1718:	65726600 	ldrbvs	r6, [r2, #-1536]!	; 0x600
    171c:	00705f71 	rsbseq	r5, r0, r1, ror pc
    1720:	6c74636d 	ldclvs	3, cr6, [r4], #-436	; 0xfffffe4c
    1724:	6e6f635f 	mcrvs	3, 3, r6, cr15, cr15, {2}
    1728:	75676966 	strbvc	r6, [r7, #-2406]!	; 0x966
    172c:	685f6572 	ldmdavs	pc, {r1, r4, r5, r6, r8, sl, sp, lr}^	; <UNPREDICTABLE>
    1730:	7074736f 	rsbsvc	r7, r4, pc, ror #6
    1734:	0074726f 	rsbseq	r7, r4, pc, ror #4
    1738:	70696863 	rsbvc	r6, r9, r3, ror #16
    173c:	6e65645f 	mcrvs	4, 3, r6, cr5, cr15, {2}
    1740:	74636d00 	strbtvc	r6, [r3], #-3328	; 0xd00
    1744:	6e655f6c 	cdpvs	15, 6, cr5, cr5, cr12, {3}
    1748:	656c6261 	strbvs	r6, [ip, #-609]!	; 0x261
    174c:	6c6c645f 	cfstrdvs	mvd6, [ip], #-380	; 0xfffffe84
    1750:	6f680078 	svcvs	0x00680078
    1754:	665f646c 	ldrbvs	r6, [pc], -ip, ror #8
    1758:	0067616c 	rsbeq	r6, r7, ip, ror #2
    175c:	4d415244 	sfmmi	f5, 2, [r1, #-272]	; 0xfffffef0
    1760:	65675f43 	strbvs	r5, [r7, #-3907]!	; 0xf43
    1764:	72645f74 	rsbvc	r5, r4, #464	; 0x1d0
    1768:	735f6d61 	cmpvc	pc, #6208	; 0x1840
    176c:	00657a69 	rsbeq	r7, r5, r9, ror #20
    1770:	6d617264 	sfmvs	f7, 2, [r1, #-400]!	; 0xfffffe70
    1774:	7465735f 	strbtvc	r7, [r5], #-863	; 0x35f
    1778:	6f6c635f 	svcvs	0x006c635f
    177c:	5f006b63 	svcpl	0x00006b63
    1780:	6172645f 	cmnvs	r2, pc, asr r4
    1784:	61705f6d 	cmnvs	r0, sp, ror #30
    1788:	745f6172 	ldrbvc	r6, [pc], #-370	; 1790 <__dram_freq_start+0x1790>
    178c:	61726400 	cmnvs	r2, r0, lsl #8
    1790:	65735f6d 	ldrbvs	r5, [r3, #-3949]!	; 0xf6d
    1794:	75615f74 	strbvc	r5, [r1, #-3956]!	; 0xf74
    1798:	65726f74 	ldrbvs	r6, [r2, #-3956]!	; 0xf74
    179c:	73657266 	cmnvc	r5, #1610612742	; 0x60000006
    17a0:	79635f68 	stmdbvc	r3!, {r3, r5, r6, r8, r9, sl, fp, ip, lr}^
    17a4:	00656c63 	rsbeq	r6, r5, r3, ror #24
    17a8:	746f6f62 	strbtvc	r6, [pc], #-3938	; 17b0 <__dram_freq_start+0x17b0>
    17ac:	61705f30 	cmnvs	r0, r0, lsr pc
    17b0:	64006172 	strvs	r6, [r0], #-370	; 0x172
    17b4:	5f6d6172 	svcpl	0x006d6172
    17b8:	6e616373 	mcrvs	3, 3, r6, cr1, cr3, {3}
    17bc:	6165725f 	cmnvs	r5, pc, asr r2
    17c0:	70697064 	rsbvc	r7, r9, r4, rrx
    17c4:	2f2e0065 	svccs	0x002e0065
    17c8:	732f2e2e 	teqvc	pc, #736	; 0x2e0
    17cc:	646e6174 	strbtvs	r6, [lr], #-372	; 0x174
    17d0:	642f7962 	strtvs	r7, [pc], #-2402	; 17d8 <__dram_freq_start+0x17d8>
    17d4:	2f6d6172 	svccs	0x006d6172
    17d8:	6d617264 	sfmvs	f7, 2, [r1, #-400]!	; 0xfffffe70
    17dc:	696e695f 	stmdbvs	lr!, {r0, r1, r2, r3, r4, r6, r8, fp, sp, lr}^
    17e0:	00632e74 	rsbeq	r2, r3, r4, ror lr
    17e4:	5f6d656d 	svcpl	0x006d656d
    17e8:	616c6564 	cmnvs	ip, r4, ror #10
    17ec:	72640079 	rsbvc	r0, r4, #121	; 0x79
    17f0:	735f6d61 	cmpvc	pc, #6208	; 0x1840
    17f4:	645f7465 	ldrbvs	r7, [pc], #-1125	; 17fc <__dram_freq_start+0x17fc>
    17f8:	65766972 	ldrbvs	r6, [r6, #-2418]!	; 0x972
    17fc:	61726400 	cmnvs	r2, r0, lsl #8
    1800:	78655f6d 	stmdavc	r5!, {r0, r2, r3, r5, r6, r8, r9, sl, fp, ip, lr}^
    1804:	64007469 	strvs	r7, [r0], #-1129	; 0x469
    1808:	5f6d6172 	svcpl	0x006d6172
    180c:	5f746567 	svcpl	0x00746567
    1810:	657a6973 	ldrbvs	r6, [sl, #-2419]!	; 0x973
    1814:	73716400 	cmnvc	r1, #0
    1818:	6168705f 	qdsubvs	r7, pc, r8	; <UNPREDICTABLE>
    181c:	70006573 	andvc	r6, r0, r3, ror r5
    1820:	745f6c6c 	ldrbvc	r6, [pc], #-3180	; 1828 <__dram_freq_start+0x1828>
    1824:	655f6e75 	ldrbvs	r6, [pc, #-3701]	; 9b7 <__dram_freq_start+0x9b7>
    1828:	5244006e 	subpl	r0, r4, #110	; 0x6e
    182c:	5f434d41 	svcpl	0x00434d41
    1830:	74696e69 	strbtvc	r6, [r9], #-3689	; 0xe69
    1834:	74636d00 	strbtvc	r6, [r3], #-3328	; 0xd00
    1838:	69645f6c 	stmdbvs	r4!, {r2, r3, r5, r6, r8, r9, sl, fp, ip, lr}^
    183c:	6c626173 	stfvse	f6, [r2], #-460	; 0xfffffe34
    1840:	6c645f65 	stclvs	15, cr5, [r4], #-404	; 0xfffffe6c
    1844:	6e69006c 	cdpvs	0, 6, cr0, cr9, cr12, {3}
    1848:	445f7469 	ldrbmi	r7, [pc], #-1129	; 1850 <__dram_freq_start+0x1850>
    184c:	004d4152 	subeq	r4, sp, r2, asr r1
    1850:	75746573 	ldrbvc	r6, [r4, #-1395]!	; 0x573
    1854:	72645f70 	rsbvc	r5, r4, #448	; 0x1c0
    1858:	705f6d61 	subsvc	r6, pc, r1, ror #26
    185c:	64006c6c 	strvs	r6, [r0], #-3180	; 0xc6c
    1860:	5f6d6172 	svcpl	0x006d6172
    1864:	74696e69 	strbtvc	r6, [r9], #-3689	; 0xe69
    1868:	41524400 	cmpmi	r2, r0, lsl #8
    186c:	735f434d 	cmpvc	pc, #872415233	; 0x34000001
    1870:	5f6e6163 	svcpl	0x006e6163
    1874:	64616572 	strbtvs	r6, [r1], #-1394	; 0x572
    1878:	65706970 	ldrbvs	r6, [r0, #-2416]!	; 0x970
    187c:	74636d00 	strbtvc	r6, [r3], #-3328	; 0xd00
    1880:	6e655f6c 	cdpvs	15, 6, cr5, cr5, cr12, {3}
    1884:	656c6261 	strbvs	r6, [ip, #-609]!	; 0x261
    1888:	6c6c645f 	cfstrdvs	mvd6, [ip], #-380	; 0xfffffe84
    188c:	52440030 	subpl	r0, r4, #48	; 0x30
    1890:	5f434d41 	svcpl	0x00434d41
    1894:	636f6c63 	cmnvs	pc, #25344	; 0x6300
    1898:	756f5f6b 	strbvc	r5, [pc, #-3947]!	; 935 <__dram_freq_start+0x935>
    189c:	74757074 	ldrbtvc	r7, [r5], #-116	; 0x74
    18a0:	006e655f 	rsbeq	r6, lr, pc, asr r5
    18a4:	4d415244 	sfmmi	f5, 2, [r1, #-272]	; 0xfffffef0
    18a8:	65735f43 	ldrbvs	r5, [r3, #-3907]!	; 0xf43
    18ac:	75615f74 	strbvc	r5, [r1, #-3956]!	; 0xf74
    18b0:	65726f74 	ldrbvs	r6, [r2, #-3956]!	; 0xf74
    18b4:	73657266 	cmnvc	r5, #1610612742	; 0x60000006
    18b8:	79635f68 	stmdbvc	r3!, {r3, r5, r6, r8, r9, sl, fp, ip, lr}^
    18bc:	00656c63 	rsbeq	r6, r5, r3, ror #24
    18c0:	6c74636d 	ldclvs	3, cr6, [r4], #-436	; 0xfffffe4c
    18c4:	6d74695f 	ldclvs	9, cr6, [r4, #-380]!	; 0xfffffe84
    18c8:	7369645f 	cmnvc	r9, #1593835520	; 0x5f000000
    18cc:	656c6261 	strbvs	r6, [ip, #-609]!	; 0x261
    18d0:	706d7400 	rsbvc	r7, sp, r0, lsl #8
    18d4:	6c61765f 	stclvs	6, cr7, [r1], #-380	; 0xfffffe84
    18d8:	74636d00 	strbtvc	r6, [r3], #-3328	; 0xd00
    18dc:	65735f6c 	ldrbvs	r5, [r3, #-3948]!	; 0xf6c
    18e0:	72645f74 	rsbvc	r5, r4, #464	; 0x1d0
    18e4:	00657669 	rsbeq	r7, r5, r9, ror #12
    18e8:	38755f5f 	ldmdacc	r5!, {r0, r1, r2, r3, r4, r6, r8, r9, sl, fp, ip, lr}^
    18ec:	74636d00 	strbtvc	r6, [r3], #-3328	; 0xd00
    18f0:	64645f6c 	strbtvs	r5, [r4], #-3948	; 0xf6c
    18f4:	725f3372 	subsvc	r3, pc, #-939524095	; 0xc8000001
    18f8:	74657365 	strbtvc	r7, [r5], #-869	; 0x365
    18fc:	74636d00 	strbtvc	r6, [r3], #-3328	; 0xd00
    1900:	65735f6c 	ldrbvs	r5, [r3, #-3948]!	; 0xf6c
    1904:	725f666c 	subsvc	r6, pc, #113246208	; 0x6c00000
    1908:	65726665 	ldrbvs	r6, [r2, #-1637]!	; 0x665
    190c:	655f6873 	ldrbvs	r6, [pc, #-2163]	; 10a1 <__dram_freq_start+0x10a1>
    1910:	7972746e 	ldmdbvc	r2!, {r1, r2, r3, r5, r6, sl, ip, sp, lr}^
    1914:	74636d00 	strbtvc	r6, [r3], #-3328	; 0xd00
    1918:	74695f6c 	strbtvc	r5, [r9], #-3948	; 0xf6c
    191c:	6e655f6d 	cdpvs	15, 6, cr5, cr5, cr13, {3}
    1920:	656c6261 	strbvs	r6, [ip, #-609]!	; 0x261
    1924:	74657200 	strbtvc	r7, [r5], #-512	; 0x200
    1928:	6c61765f 	stclvs	6, cr7, [r1], #-380	; 0xfffffe84
    192c:	67657200 	strbvs	r7, [r5, -r0, lsl #4]!
    1930:	6c61765f 	stclvs	6, cr7, [r1], #-380	; 0xfffffe84
    1934:	68006575 	stmdavs	r0, {r0, r2, r4, r5, r6, r8, sl, sp, lr}
    1938:	5f726370 	svcpl	0x00726370
    193c:	756c6176 	strbvc	r6, [ip, #-374]!	; 0x176
    1940:	61730065 	cmnvs	r3, r5, rrx
    1944:	6d5f6576 	cfldr64vs	mvdx6, [pc, #-472]	; 1774 <__dram_freq_start+0x1774>
    1948:	735f6d65 	cmpvc	pc, #6464	; 0x1940
    194c:	75746174 	ldrbvc	r6, [r4, #-372]!	; 0x174
    1950:	6c640073 	stclvs	0, cr0, [r4], #-460	; 0xfffffe34
    1954:	756e5f6c 	strbvc	r5, [lr, #-3948]!	; 0xf6c
    1958:	Address 0x00001958 is out of bounds.


Disassembly of section .comment:

00000000 <.comment>:
   0:	3a434347 	bcc	10d0d24 <__dram_freq_start+0x10d0d24>
   4:	72632820 	rsbvc	r2, r3, #2097152	; 0x200000
   8:	7473736f 	ldrbtvc	r7, [r3], #-879	; 0x36f
   c:	2d6c6f6f 	stclcs	15, cr6, [ip, #-444]!	; 0xfffffe44
  10:	6c20474e 	stcvs	7, cr4, [r0], #-312	; 0xfffffec8
  14:	72616e69 	rsbvc	r6, r1, #1680	; 0x690
  18:	2e312d6f 	cdpcs	13, 3, cr2, cr1, cr15, {3}
  1c:	312e3331 	teqcc	lr, r1, lsr r3
  20:	3130322d 	teqcc	r0, sp, lsr #4
  24:	32302e32 	eorscc	r2, r0, #800	; 0x320
  28:	3130322d 	teqcc	r0, sp, lsr #4
  2c:	32323032 	eorscc	r3, r2, #50	; 0x32
  30:	202d2032 	eorcs	r2, sp, r2, lsr r0
  34:	616e694c 	cmnvs	lr, ip, asr #18
  38:	47206f72 			; <UNDEFINED> instruction: 0x47206f72
  3c:	32204343 	eorcc	r4, r0, #201326593	; 0xc000001
  40:	2e323130 	mrccs	1, 1, r3, cr2, cr0, {1}
  44:	20293230 	eorcs	r3, r9, r0, lsr r2
  48:	2e362e34 	mrccs	14, 1, r2, cr6, cr4, {1}
  4c:	30322033 	eorscc	r2, r2, r3, lsr r0
  50:	32303231 	eorscc	r3, r0, #268435459	; 0x10000003
  54:	28203130 	stmdacs	r0!, {r4, r5, r8, ip, sp}
  58:	72657270 	rsbvc	r7, r5, #7
  5c:	61656c65 	cmnvs	r5, r5, ror #24
  60:	00296573 	eoreq	r6, r9, r3, ror r5

Disassembly of section .ARM.attributes:

00000000 <.ARM.attributes>:
   0:	00003241 	andeq	r3, r0, r1, asr #4
   4:	61656100 	cmnvs	r5, r0, lsl #2
   8:	01006962 	tsteq	r0, r2, ror #18
   c:	00000028 	andeq	r0, r0, r8, lsr #32
  10:	412d3705 	teqmi	sp, r5, lsl #14
  14:	070a0600 	streq	r0, [sl, -r0, lsl #12]
  18:	09010841 	stmdbeq	r1, {r0, r6, fp}
  1c:	12040a02 	andne	r0, r4, #8192	; 0x2000
  20:	15011404 	strne	r1, [r1, #-1028]	; 0x404
  24:	18031701 	stmdane	r3, {r0, r8, r9, sl, ip}
  28:	1b021a01 	blne	86834 <__dram_freq_start+0x86834>
  2c:	22021e03 	andcs	r1, r2, #48	; 0x30
  30:	Address 0x00000030 is out of bounds.


Disassembly of section .debug_frame:

00000000 <.debug_frame>:
   0:	0000000c 	andeq	r0, r0, ip
   4:	ffffffff 			; <UNDEFINED> instruction: 0xffffffff
   8:	7c020001 	stcvc	0, cr0, [r2], {1}
   c:	000d0c0e 	andeq	r0, sp, lr, lsl #24
  10:	0000000c 	andeq	r0, r0, ip
  14:	00000000 	andeq	r0, r0, r0
  18:	f000014c 			; <UNDEFINED> instruction: 0xf000014c
  1c:	00000034 	andeq	r0, r0, r4, lsr r0
  20:	0000000c 	andeq	r0, r0, ip
  24:	00000000 	andeq	r0, r0, r0
  28:	f0000180 			; <UNDEFINED> instruction: 0xf0000180
  2c:	00000028 	andeq	r0, r0, r8, lsr #32
  30:	0000000c 	andeq	r0, r0, ip
  34:	00000000 	andeq	r0, r0, r0
  38:	f00001a8 			; <UNDEFINED> instruction: 0xf00001a8
  3c:	00000018 	andeq	r0, r0, r8, lsl r0
  40:	0000000c 	andeq	r0, r0, ip
  44:	00000000 	andeq	r0, r0, r0
  48:	f00001c0 			; <UNDEFINED> instruction: 0xf00001c0
  4c:	0000001c 	andeq	r0, r0, ip, lsl r0
  50:	00000014 	andeq	r0, r0, r4, lsl r0
  54:	00000000 	andeq	r0, r0, r0
  58:	f00001dc 			; <UNDEFINED> instruction: 0xf00001dc
  5c:	00000048 	andeq	r0, r0, r8, asr #32
  60:	84040e42 	strhi	r0, [r4], #-3650	; 0xe42
  64:	00000001 	andeq	r0, r0, r1
  68:	0000000c 	andeq	r0, r0, ip
  6c:	00000000 	andeq	r0, r0, r0
  70:	f0000224 			; <UNDEFINED> instruction: 0xf0000224
  74:	0000003c 	andeq	r0, r0, ip, lsr r0
  78:	0000000c 	andeq	r0, r0, ip
  7c:	00000000 	andeq	r0, r0, r0
  80:	f0000260 			; <UNDEFINED> instruction: 0xf0000260
  84:	0000001c 	andeq	r0, r0, ip, lsl r0
  88:	0000001c 	andeq	r0, r0, ip, lsl r0
  8c:	00000000 	andeq	r0, r0, r0
  90:	f0000000 			; <UNDEFINED> instruction: 0xf0000000
  94:	0000014c 	andeq	r0, r0, ip, asr #2
  98:	8e180e46 	cdphi	14, 1, cr0, cr8, cr6, {2}
  9c:	86028701 	strhi	r8, [r2], -r1, lsl #14
  a0:	84048503 	strhi	r8, [r4], #-1283	; 0x503
  a4:	00068305 	andeq	r8, r6, r5, lsl #6
  a8:	0000000c 	andeq	r0, r0, ip
  ac:	ffffffff 			; <UNDEFINED> instruction: 0xffffffff
  b0:	7c020001 	stcvc	0, cr0, [r2], {1}
  b4:	000d0c0e 	andeq	r0, sp, lr, lsl #24
  b8:	0000000c 	andeq	r0, r0, ip
  bc:	000000a8 	andeq	r0, r0, r8, lsr #1
  c0:	f000027c 			; <UNDEFINED> instruction: 0xf000027c
  c4:	00000014 	andeq	r0, r0, r4, lsl r0
  c8:	0000000c 	andeq	r0, r0, ip
  cc:	000000a8 	andeq	r0, r0, r8, lsr #1
  d0:	f0000290 			; <UNDEFINED> instruction: 0xf0000290
  d4:	00000008 	andeq	r0, r0, r8
  d8:	0000000c 	andeq	r0, r0, ip
  dc:	000000a8 	andeq	r0, r0, r8, lsr #1
  e0:	f0000298 			; <UNDEFINED> instruction: 0xf0000298
  e4:	0000004c 	andeq	r0, r0, ip, asr #32
  e8:	0000000c 	andeq	r0, r0, ip
  ec:	000000a8 	andeq	r0, r0, r8, lsr #1
  f0:	f00002e4 			; <UNDEFINED> instruction: 0xf00002e4
  f4:	0000006c 	andeq	r0, r0, ip, rrx
  f8:	00000014 	andeq	r0, r0, r4, lsl r0
  fc:	000000a8 	andeq	r0, r0, r8, lsr #1
 100:	f0000350 			; <UNDEFINED> instruction: 0xf0000350
 104:	00000078 	andeq	r0, r0, r8, ror r0
 108:	84040e42 	strhi	r0, [r4], #-3650	; 0xe42
 10c:	00000001 	andeq	r0, r0, r1
 110:	0000000c 	andeq	r0, r0, ip
 114:	000000a8 	andeq	r0, r0, r8, lsr #1
 118:	f00003c8 			; <UNDEFINED> instruction: 0xf00003c8
 11c:	0000004c 	andeq	r0, r0, ip, asr #32
 120:	0000000c 	andeq	r0, r0, ip
 124:	ffffffff 			; <UNDEFINED> instruction: 0xffffffff
 128:	7c020001 	stcvc	0, cr0, [r2], {1}
 12c:	000d0c0e 	andeq	r0, sp, lr, lsl #24
 130:	0000000c 	andeq	r0, r0, ip
 134:	00000120 	andeq	r0, r0, r0, lsr #2
 138:	f0000414 			; <UNDEFINED> instruction: 0xf0000414
 13c:	0000002c 	andeq	r0, r0, ip, lsr #32
 140:	0000000c 	andeq	r0, r0, ip
 144:	00000120 	andeq	r0, r0, r0, lsr #2
 148:	f0000440 			; <UNDEFINED> instruction: 0xf0000440
 14c:	0000001c 	andeq	r0, r0, ip, lsl r0
 150:	0000000c 	andeq	r0, r0, ip
 154:	00000120 	andeq	r0, r0, r0, lsr #2
 158:	f000045c 			; <UNDEFINED> instruction: 0xf000045c
 15c:	00000028 	andeq	r0, r0, r8, lsr #32
 160:	0000000c 	andeq	r0, r0, ip
 164:	00000120 	andeq	r0, r0, r0, lsr #2
 168:	f0000484 			; <UNDEFINED> instruction: 0xf0000484
 16c:	00000040 	andeq	r0, r0, r0, asr #32
 170:	00000014 	andeq	r0, r0, r4, lsl r0
 174:	00000120 	andeq	r0, r0, r0, lsr #2
 178:	f00004c4 			; <UNDEFINED> instruction: 0xf00004c4
 17c:	00000068 	andeq	r0, r0, r8, rrx
 180:	84040e44 	strhi	r0, [r4], #-3652	; 0xe44
 184:	00000001 	andeq	r0, r0, r1
 188:	0000000c 	andeq	r0, r0, ip
 18c:	00000120 	andeq	r0, r0, r0, lsr #2
 190:	f000052c 			; <UNDEFINED> instruction: 0xf000052c
 194:	00000030 	andeq	r0, r0, r0, lsr r0
 198:	0000000c 	andeq	r0, r0, ip
 19c:	00000120 	andeq	r0, r0, r0, lsr #2
 1a0:	f000055c 			; <UNDEFINED> instruction: 0xf000055c
 1a4:	00000078 	andeq	r0, r0, r8, ror r0
 1a8:	00000024 	andeq	r0, r0, r4, lsr #32
 1ac:	00000120 	andeq	r0, r0, r0, lsr #2
 1b0:	f00005d4 			; <UNDEFINED> instruction: 0xf00005d4
 1b4:	000000e4 	andeq	r0, r0, r4, ror #1
 1b8:	8e200e42 	cdphi	14, 2, cr0, cr0, cr2, {2}
 1bc:	89028a01 	stmdbhi	r2, {r0, r9, fp, pc}
 1c0:	87048803 	strhi	r8, [r4, -r3, lsl #16]
 1c4:	85068605 	strhi	r8, [r6, #-1541]	; 0x605
 1c8:	4c088407 	cfstrsmi	mvf8, [r8], {7}
 1cc:	0000480e 	andeq	r4, r0, lr, lsl #16
 1d0:	00000020 	andeq	r0, r0, r0, lsr #32
 1d4:	00000120 	andeq	r0, r0, r0, lsr #2
 1d8:	f00006b8 			; <UNDEFINED> instruction: 0xf00006b8
 1dc:	000000bc 	strheq	r0, [r0], -ip
 1e0:	8e1c0e42 	cdphi	14, 1, cr0, cr12, cr2, {2}
 1e4:	88028a01 	stmdahi	r2, {r0, r9, fp, pc}
 1e8:	86048703 	strhi	r8, [r4], -r3, lsl #14
 1ec:	84068505 	strhi	r8, [r6], #-1285	; 0x505
 1f0:	480e4c07 	stmdami	lr, {r0, r1, r2, sl, fp, lr}
 1f4:	0000001c 	andeq	r0, r0, ip, lsl r0
 1f8:	00000120 	andeq	r0, r0, r0, lsr #2
 1fc:	f0000774 			; <UNDEFINED> instruction: 0xf0000774
 200:	0000005c 	andeq	r0, r0, ip, asr r0
 204:	8e140e42 	cdphi	14, 1, cr0, cr4, cr2, {2}
 208:	86028701 	strhi	r8, [r2], -r1, lsl #14
 20c:	84048503 	strhi	r8, [r4], #-1283	; 0x503
 210:	300e4c05 	andcc	r4, lr, r5, lsl #24
 214:	00000030 	andeq	r0, r0, r0, lsr r0
 218:	00000120 	andeq	r0, r0, r0, lsr #2
 21c:	f00007d0 			; <UNDEFINED> instruction: 0xf00007d0
 220:	000002f0 	strdeq	r0, [r0], -r0	; <UNPREDICTABLE>
 224:	83100e42 	tsthi	r0, #1056	; 0x420
 228:	81028201 	tsthi	r2, r1, lsl #4
 22c:	44048003 	strmi	r8, [r4], #-3
 230:	058e300e 	streq	r3, [lr, #14]
 234:	0789068a 	streq	r0, [r9, sl, lsl #13]
 238:	09870888 	stmibeq	r7, {r3, r7, fp}
 23c:	0b850a86 	bleq	fe142c5c <__bss_end+0xe13f924>
 240:	0e420c84 	cdpeq	12, 4, cr0, cr2, cr4, {4}
 244:	00000048 	andeq	r0, r0, r8, asr #32
 248:	00000030 	andeq	r0, r0, r0, lsr r0
 24c:	00000120 	andeq	r0, r0, r0, lsr #2
 250:	f0000ac0 			; <UNDEFINED> instruction: 0xf0000ac0
 254:	000002d4 	ldrdeq	r0, [r0], -r4
 258:	83100e42 	tsthi	r0, #1056	; 0x420
 25c:	81028201 	tsthi	r2, r1, lsl #4
 260:	42048003 	andmi	r8, r4, #3
 264:	058e300e 	streq	r3, [lr, #14]
 268:	0789068a 	streq	r0, [r9, sl, lsl #13]
 26c:	09870888 	stmibeq	r7, {r3, r7, fp}
 270:	0b850a86 	bleq	fe142c90 <__bss_end+0xe13f958>
 274:	0e420c84 	cdpeq	12, 4, cr0, cr2, cr4, {4}
 278:	00000048 	andeq	r0, r0, r8, asr #32
 27c:	0000000c 	andeq	r0, r0, ip
 280:	ffffffff 			; <UNDEFINED> instruction: 0xffffffff
 284:	7c020001 	stcvc	0, cr0, [r2], {1}
 288:	000d0c0e 	andeq	r0, sp, lr, lsl #24
 28c:	0000000c 	andeq	r0, r0, ip
 290:	0000027c 	andeq	r0, r0, ip, ror r2
 294:	f0000d94 			; <UNDEFINED> instruction: 0xf0000d94
 298:	0000000c 	andeq	r0, r0, ip
 29c:	0000000c 	andeq	r0, r0, ip
 2a0:	0000027c 	andeq	r0, r0, ip, ror r2
 2a4:	f0000da0 			; <UNDEFINED> instruction: 0xf0000da0
 2a8:	0000004c 	andeq	r0, r0, ip, asr #32
 2ac:	0000000c 	andeq	r0, r0, ip
 2b0:	ffffffff 			; <UNDEFINED> instruction: 0xffffffff
 2b4:	7c020001 	stcvc	0, cr0, [r2], {1}
 2b8:	000d0c0e 	andeq	r0, sp, lr, lsl #24
 2bc:	0000000c 	andeq	r0, r0, ip
 2c0:	000002ac 	andeq	r0, r0, ip, lsr #5
 2c4:	f0000fbc 			; <UNDEFINED> instruction: 0xf0000fbc
 2c8:	0000002c 	andeq	r0, r0, ip, lsr #32
 2cc:	0000000c 	andeq	r0, r0, ip
 2d0:	000002ac 	andeq	r0, r0, ip, lsr #5
 2d4:	f0000fe8 			; <UNDEFINED> instruction: 0xf0000fe8
 2d8:	0000001c 	andeq	r0, r0, ip, lsl r0
 2dc:	0000000c 	andeq	r0, r0, ip
 2e0:	000002ac 	andeq	r0, r0, ip, lsr #5
 2e4:	f0001004 			; <UNDEFINED> instruction: 0xf0001004
 2e8:	00000024 	andeq	r0, r0, r4, lsr #32
 2ec:	0000000c 	andeq	r0, r0, ip
 2f0:	000002ac 	andeq	r0, r0, ip, lsr #5
 2f4:	f0001028 			; <UNDEFINED> instruction: 0xf0001028
 2f8:	00000008 	andeq	r0, r0, r8
 2fc:	0000000c 	andeq	r0, r0, ip
 300:	000002ac 	andeq	r0, r0, ip, lsr #5
 304:	f0001030 			; <UNDEFINED> instruction: 0xf0001030
 308:	00000014 	andeq	r0, r0, r4, lsl r0
 30c:	00000014 	andeq	r0, r0, r4, lsl r0
 310:	000002ac 	andeq	r0, r0, ip, lsr #5
 314:	f0001044 			; <UNDEFINED> instruction: 0xf0001044
 318:	0000009c 	muleq	r0, ip, r0
 31c:	8e080e4a 	cdphi	14, 0, cr0, cr8, cr10, {2}
 320:	00028401 	andeq	r8, r2, r1, lsl #8
 324:	00000018 	andeq	r0, r0, r8, lsl r0
 328:	000002ac 	andeq	r0, r0, ip, lsr #5
 32c:	f00010e0 			; <UNDEFINED> instruction: 0xf00010e0
 330:	00000058 	andeq	r0, r0, r8, asr r0
 334:	8e100e42 	cdphi	14, 1, cr0, cr0, cr2, {2}
 338:	84028501 	strhi	r8, [r2], #-1281	; 0x501
 33c:	00048303 	andeq	r8, r4, r3, lsl #6
 340:	0000000c 	andeq	r0, r0, ip
 344:	000002ac 	andeq	r0, r0, ip, lsr #5
 348:	f0001138 			; <UNDEFINED> instruction: 0xf0001138
 34c:	0000000c 	andeq	r0, r0, ip
 350:	0000000c 	andeq	r0, r0, ip
 354:	000002ac 	andeq	r0, r0, ip, lsr #5
 358:	f0001144 			; <UNDEFINED> instruction: 0xf0001144
 35c:	0000002c 	andeq	r0, r0, ip, lsr #32
 360:	0000000c 	andeq	r0, r0, ip
 364:	000002ac 	andeq	r0, r0, ip, lsr #5
 368:	f0001170 			; <UNDEFINED> instruction: 0xf0001170
 36c:	0000002c 	andeq	r0, r0, ip, lsr #32
 370:	0000000c 	andeq	r0, r0, ip
 374:	000002ac 	andeq	r0, r0, ip, lsr #5
 378:	f000119c 			; <UNDEFINED> instruction: 0xf000119c
 37c:	0000002c 	andeq	r0, r0, ip, lsr #32
 380:	0000000c 	andeq	r0, r0, ip
 384:	ffffffff 			; <UNDEFINED> instruction: 0xffffffff
 388:	7c020001 	stcvc	0, cr0, [r2], {1}
 38c:	000d0c0e 	andeq	r0, sp, lr, lsl #24
 390:	00000018 	andeq	r0, r0, r8, lsl r0
 394:	00000380 	andeq	r0, r0, r0, lsl #7
 398:	f0001640 			; <UNDEFINED> instruction: 0xf0001640
 39c:	00000074 	andeq	r0, r0, r4, ror r0
 3a0:	8e080e42 	cdphi	14, 0, cr0, cr8, cr2, {2}
 3a4:	42028b01 	andmi	r8, r2, #1024	; 0x400
 3a8:	00040b0c 	andeq	r0, r4, ip, lsl #22
 3ac:	00000014 	andeq	r0, r0, r4, lsl r0
 3b0:	00000380 	andeq	r0, r0, r0, lsl #7
 3b4:	f00016b4 			; <UNDEFINED> instruction: 0xf00016b4
 3b8:	0000006c 	andeq	r0, r0, ip, rrx
 3bc:	8b040e42 	blhi	103ccc <__dram_freq_start+0x103ccc>
 3c0:	0b0d4201 	bleq	350bcc <__dram_freq_start+0x350bcc>
 3c4:	00000014 	andeq	r0, r0, r4, lsl r0
 3c8:	00000380 	andeq	r0, r0, r0, lsl #7
 3cc:	f0001720 			; <UNDEFINED> instruction: 0xf0001720
 3d0:	00000058 	andeq	r0, r0, r8, asr r0
 3d4:	8b040e42 	blhi	103ce4 <__dram_freq_start+0x103ce4>
 3d8:	0b0d4201 	bleq	350be4 <__dram_freq_start+0x350be4>
 3dc:	00000014 	andeq	r0, r0, r4, lsl r0
 3e0:	00000380 	andeq	r0, r0, r0, lsl #7
 3e4:	f0001778 			; <UNDEFINED> instruction: 0xf0001778
 3e8:	0000004c 	andeq	r0, r0, ip, asr #32
 3ec:	8b040e42 	blhi	103cfc <__dram_freq_start+0x103cfc>
 3f0:	0b0d4201 	bleq	350bfc <__dram_freq_start+0x350bfc>
 3f4:	00000018 	andeq	r0, r0, r8, lsl r0
 3f8:	00000380 	andeq	r0, r0, r0, lsl #7
 3fc:	f00017c4 			; <UNDEFINED> instruction: 0xf00017c4
 400:	000000bc 	strheq	r0, [r0], -ip
 404:	8e080e42 	cdphi	14, 0, cr0, cr8, cr2, {2}
 408:	42028b01 	andmi	r8, r2, #1024	; 0x400
 40c:	00040b0c 	andeq	r0, r4, ip, lsl #22
 410:	00000018 	andeq	r0, r0, r8, lsl r0
 414:	00000380 	andeq	r0, r0, r0, lsl #7
 418:	f0001880 			; <UNDEFINED> instruction: 0xf0001880
 41c:	00000204 	andeq	r0, r0, r4, lsl #4
 420:	8e080e42 	cdphi	14, 0, cr0, cr8, cr2, {2}
 424:	42028b01 	andmi	r8, r2, #1024	; 0x400
 428:	00040b0c 	andeq	r0, r4, ip, lsl #22
 42c:	00000014 	andeq	r0, r0, r4, lsl r0
 430:	00000380 	andeq	r0, r0, r0, lsl #7
 434:	f0001a84 			; <UNDEFINED> instruction: 0xf0001a84
 438:	00000130 	andeq	r0, r0, r0, lsr r1
 43c:	8b040e42 	blhi	103d4c <__dram_freq_start+0x103d4c>
 440:	0b0d4201 	bleq	350c4c <__dram_freq_start+0x350c4c>
 444:	00000014 	andeq	r0, r0, r4, lsl r0
 448:	00000380 	andeq	r0, r0, r0, lsl #7
 44c:	f0001bb4 			; <UNDEFINED> instruction: 0xf0001bb4
 450:	000000f0 	strdeq	r0, [r0], -r0	; <UNPREDICTABLE>
 454:	8b040e42 	blhi	103d64 <__dram_freq_start+0x103d64>
 458:	0b0d4201 	bleq	350c64 <__dram_freq_start+0x350c64>
 45c:	00000018 	andeq	r0, r0, r8, lsl r0
 460:	00000380 	andeq	r0, r0, r0, lsl #7
 464:	f0001ca4 			; <UNDEFINED> instruction: 0xf0001ca4
 468:	0000021c 	andeq	r0, r0, ip, lsl r2
 46c:	8e080e42 	cdphi	14, 0, cr0, cr8, cr2, {2}
 470:	42028b01 	andmi	r8, r2, #1024	; 0x400
 474:	00040b0c 	andeq	r0, r4, ip, lsl #22
 478:	00000018 	andeq	r0, r0, r8, lsl r0
 47c:	00000380 	andeq	r0, r0, r0, lsl #7
 480:	f0001ec0 			; <UNDEFINED> instruction: 0xf0001ec0
 484:	000007b8 			; <UNDEFINED> instruction: 0x000007b8
 488:	8e080e42 	cdphi	14, 0, cr0, cr8, cr2, {2}
 48c:	42028b01 	andmi	r8, r2, #1024	; 0x400
 490:	00040b0c 	andeq	r0, r4, ip, lsl #22
 494:	00000014 	andeq	r0, r0, r4, lsl r0
 498:	00000380 	andeq	r0, r0, r0, lsl #7
 49c:	f0002678 			; <UNDEFINED> instruction: 0xf0002678
 4a0:	000000bc 	strheq	r0, [r0], -ip
 4a4:	8b040e42 	blhi	103db4 <__dram_freq_start+0x103db4>
 4a8:	0b0d4201 	bleq	350cb4 <__dram_freq_start+0x350cb4>
 4ac:	00000014 	andeq	r0, r0, r4, lsl r0
 4b0:	00000380 	andeq	r0, r0, r0, lsl #7
 4b4:	f0002734 			; <UNDEFINED> instruction: 0xf0002734
 4b8:	00000064 	andeq	r0, r0, r4, rrx
 4bc:	8b040e42 	blhi	103dcc <__dram_freq_start+0x103dcc>
 4c0:	0b0d4201 	bleq	350ccc <__dram_freq_start+0x350ccc>
 4c4:	00000014 	andeq	r0, r0, r4, lsl r0
 4c8:	00000380 	andeq	r0, r0, r0, lsl #7
 4cc:	f0002798 			; <UNDEFINED> instruction: 0xf0002798
 4d0:	00000080 	andeq	r0, r0, r0, lsl #1
 4d4:	8b040e42 	blhi	103de4 <__dram_freq_start+0x103de4>
 4d8:	0b0d4201 	bleq	350ce4 <__dram_freq_start+0x350ce4>
 4dc:	00000014 	andeq	r0, r0, r4, lsl r0
 4e0:	00000380 	andeq	r0, r0, r0, lsl #7
 4e4:	f0002818 			; <UNDEFINED> instruction: 0xf0002818
 4e8:	00000120 	andeq	r0, r0, r0, lsr #2
 4ec:	8b040e42 	blhi	103dfc <__dram_freq_start+0x103dfc>
 4f0:	0b0d4201 	bleq	350cfc <__dram_freq_start+0x350cfc>
 4f4:	00000014 	andeq	r0, r0, r4, lsl r0
 4f8:	00000380 	andeq	r0, r0, r0, lsl #7
 4fc:	f0002938 			; <UNDEFINED> instruction: 0xf0002938
 500:	0000001c 	andeq	r0, r0, ip, lsl r0
 504:	8b040e42 	blhi	103e14 <__dram_freq_start+0x103e14>
 508:	0b0d4201 	bleq	350d14 <__dram_freq_start+0x350d14>
 50c:	00000014 	andeq	r0, r0, r4, lsl r0
 510:	00000380 	andeq	r0, r0, r0, lsl #7
 514:	f0002954 			; <UNDEFINED> instruction: 0xf0002954
 518:	0000001c 	andeq	r0, r0, ip, lsl r0
 51c:	8b040e42 	blhi	103e2c <__dram_freq_start+0x103e2c>
 520:	0b0d4201 	bleq	350d2c <__dram_freq_start+0x350d2c>
 524:	00000018 	andeq	r0, r0, r8, lsl r0
 528:	00000380 	andeq	r0, r0, r0, lsl #7
 52c:	f0002970 			; <UNDEFINED> instruction: 0xf0002970
 530:	00000098 	muleq	r0, r8, r0
 534:	8e080e42 	cdphi	14, 0, cr0, cr8, cr2, {2}
 538:	42028b01 	andmi	r8, r2, #1024	; 0x400
 53c:	00040b0c 	andeq	r0, r4, ip, lsl #22
 540:	00000018 	andeq	r0, r0, r8, lsl r0
 544:	00000380 	andeq	r0, r0, r0, lsl #7
 548:	f0002a08 			; <UNDEFINED> instruction: 0xf0002a08
 54c:	00000150 	andeq	r0, r0, r0, asr r1
 550:	8e080e42 	cdphi	14, 0, cr0, cr8, cr2, {2}
 554:	42028b01 	andmi	r8, r2, #1024	; 0x400
 558:	00040b0c 	andeq	r0, r4, ip, lsl #22
 55c:	00000018 	andeq	r0, r0, r8, lsl r0
 560:	00000380 	andeq	r0, r0, r0, lsl #7
 564:	f0002b58 			; <UNDEFINED> instruction: 0xf0002b58
 568:	000003dc 	ldrdeq	r0, [r0], -ip
 56c:	8e080e42 	cdphi	14, 0, cr0, cr8, cr2, {2}
 570:	42028b01 	andmi	r8, r2, #1024	; 0x400
 574:	00040b0c 	andeq	r0, r4, ip, lsl #22
 578:	00000018 	andeq	r0, r0, r8, lsl r0
 57c:	00000380 	andeq	r0, r0, r0, lsl #7
 580:	f0002f34 			; <UNDEFINED> instruction: 0xf0002f34
 584:	00000064 	andeq	r0, r0, r4, rrx
 588:	8e080e42 	cdphi	14, 0, cr0, cr8, cr2, {2}
 58c:	42028b01 	andmi	r8, r2, #1024	; 0x400
 590:	00040b0c 	andeq	r0, r4, ip, lsl #22
 594:	00000014 	andeq	r0, r0, r4, lsl r0
 598:	00000380 	andeq	r0, r0, r0, lsl #7
 59c:	f0002f98 			; <UNDEFINED> instruction: 0xf0002f98
 5a0:	0000001c 	andeq	r0, r0, ip, lsl r0
 5a4:	8b040e42 	blhi	103eb4 <__dram_freq_start+0x103eb4>
 5a8:	0b0d4201 	bleq	350db4 <__dram_freq_start+0x350db4>
 5ac:	00000018 	andeq	r0, r0, r8, lsl r0
 5b0:	00000380 	andeq	r0, r0, r0, lsl #7
 5b4:	f0002fb4 			; <UNDEFINED> instruction: 0xf0002fb4
 5b8:	00000018 	andeq	r0, r0, r8, lsl r0
 5bc:	8e080e42 	cdphi	14, 0, cr0, cr8, cr2, {2}
 5c0:	42028b01 	andmi	r8, r2, #1024	; 0x400
 5c4:	00040b0c 	andeq	r0, r4, ip, lsl #22
 5c8:	00000018 	andeq	r0, r0, r8, lsl r0
 5cc:	00000380 	andeq	r0, r0, r0, lsl #7
 5d0:	f0002fcc 			; <UNDEFINED> instruction: 0xf0002fcc
 5d4:	00000028 	andeq	r0, r0, r8, lsr #32
 5d8:	8e080e42 	cdphi	14, 0, cr0, cr8, cr2, {2}
 5dc:	42028b01 	andmi	r8, r2, #1024	; 0x400
 5e0:	00040b0c 	andeq	r0, r4, ip, lsl #22
 5e4:	00000018 	andeq	r0, r0, r8, lsl r0
 5e8:	00000380 	andeq	r0, r0, r0, lsl #7
 5ec:	f0002ff4 			; <UNDEFINED> instruction: 0xf0002ff4
 5f0:	00000010 	andeq	r0, r0, r0, lsl r0
 5f4:	8e080e42 	cdphi	14, 0, cr0, cr8, cr2, {2}
 5f8:	42028b01 	andmi	r8, r2, #1024	; 0x400
 5fc:	00040b0c 	andeq	r0, r4, ip, lsl #22
 600:	00000018 	andeq	r0, r0, r8, lsl r0
 604:	00000380 	andeq	r0, r0, r0, lsl #7
 608:	f0003004 			; <UNDEFINED> instruction: 0xf0003004
 60c:	00000020 	andeq	r0, r0, r0, lsr #32
 610:	8e080e42 	cdphi	14, 0, cr0, cr8, cr2, {2}
 614:	42028b01 	andmi	r8, r2, #1024	; 0x400
 618:	00040b0c 	andeq	r0, r4, ip, lsl #22
 61c:	00000018 	andeq	r0, r0, r8, lsl r0
 620:	00000380 	andeq	r0, r0, r0, lsl #7
 624:	f0003024 			; <UNDEFINED> instruction: 0xf0003024
 628:	00000018 	andeq	r0, r0, r8, lsl r0
 62c:	8e080e42 	cdphi	14, 0, cr0, cr8, cr2, {2}
 630:	42028b01 	andmi	r8, r2, #1024	; 0x400
 634:	00040b0c 	andeq	r0, r4, ip, lsl #22
